   1               		.file	"action_tapping.c"
   2               	__SP_H__ = 0x3e
   3               	__SP_L__ = 0x3d
   4               	__SREG__ = 0x3f
   5               	__tmp_reg__ = 0
   6               	__zero_reg__ = 1
   7               		.text
   8               	.Ltext0:
   9               		.cfi_sections	.debug_frame
  10               		.section	.text.debug_waiting_buffer,"ax",@progbits
  12               	debug_waiting_buffer:
  13               	.LFB13:
  14               		.file 1 "tmk_core/common/action_tapping.c"
   1:tmk_core/common/action_tapping.c **** #include <stdint.h>
   2:tmk_core/common/action_tapping.c **** #include <stdbool.h>
   3:tmk_core/common/action_tapping.c **** #include "action.h"
   4:tmk_core/common/action_tapping.c **** #include "action_layer.h"
   5:tmk_core/common/action_tapping.c **** #include "action_tapping.h"
   6:tmk_core/common/action_tapping.c **** #include "keycode.h"
   7:tmk_core/common/action_tapping.c **** #include "timer.h"
   8:tmk_core/common/action_tapping.c **** 
   9:tmk_core/common/action_tapping.c **** #ifdef DEBUG_ACTION
  10:tmk_core/common/action_tapping.c **** #    include "debug.h"
  11:tmk_core/common/action_tapping.c **** #else
  12:tmk_core/common/action_tapping.c **** #    include "nodebug.h"
  13:tmk_core/common/action_tapping.c **** #endif
  14:tmk_core/common/action_tapping.c **** 
  15:tmk_core/common/action_tapping.c **** #ifndef NO_ACTION_TAPPING
  16:tmk_core/common/action_tapping.c **** 
  17:tmk_core/common/action_tapping.c **** #    define IS_TAPPING() !IS_NOEVENT(tapping_key.event)
  18:tmk_core/common/action_tapping.c **** #    define IS_TAPPING_PRESSED() (IS_TAPPING() && tapping_key.event.pressed)
  19:tmk_core/common/action_tapping.c **** #    define IS_TAPPING_RELEASED() (IS_TAPPING() && !tapping_key.event.pressed)
  20:tmk_core/common/action_tapping.c **** #    define IS_TAPPING_KEY(k) (IS_TAPPING() && KEYEQ(tapping_key.event.key, (k)))
  21:tmk_core/common/action_tapping.c **** 
  22:tmk_core/common/action_tapping.c **** __attribute__((weak)) uint16_t get_tapping_term(uint16_t keycode, keyrecord_t *record) { return TAP
  23:tmk_core/common/action_tapping.c **** 
  24:tmk_core/common/action_tapping.c **** #    ifdef TAPPING_TERM_PER_KEY
  25:tmk_core/common/action_tapping.c **** #        define WITHIN_TAPPING_TERM(e) (TIMER_DIFF_16(e.time, tapping_key.event.time) < get_tapping
  26:tmk_core/common/action_tapping.c **** #    else
  27:tmk_core/common/action_tapping.c **** #        define WITHIN_TAPPING_TERM(e) (TIMER_DIFF_16(e.time, tapping_key.event.time) < TAPPING_TER
  28:tmk_core/common/action_tapping.c **** #    endif
  29:tmk_core/common/action_tapping.c **** 
  30:tmk_core/common/action_tapping.c **** #    ifdef TAPPING_FORCE_HOLD_PER_KEY
  31:tmk_core/common/action_tapping.c **** __attribute__((weak)) bool get_tapping_force_hold(uint16_t keycode, keyrecord_t *record) { return f
  32:tmk_core/common/action_tapping.c **** #    endif
  33:tmk_core/common/action_tapping.c **** 
  34:tmk_core/common/action_tapping.c **** #    ifdef PERMISSIVE_HOLD_PER_KEY
  35:tmk_core/common/action_tapping.c **** __attribute__((weak)) bool get_permissive_hold(uint16_t keycode, keyrecord_t *record) { return fals
  36:tmk_core/common/action_tapping.c **** #    endif
  37:tmk_core/common/action_tapping.c **** 
  38:tmk_core/common/action_tapping.c **** static keyrecord_t tapping_key                         = {};
  39:tmk_core/common/action_tapping.c **** static keyrecord_t waiting_buffer[WAITING_BUFFER_SIZE] = {};
  40:tmk_core/common/action_tapping.c **** static uint8_t     waiting_buffer_head                 = 0;
  41:tmk_core/common/action_tapping.c **** static uint8_t     waiting_buffer_tail                 = 0;
  42:tmk_core/common/action_tapping.c **** 
  43:tmk_core/common/action_tapping.c **** static bool process_tapping(keyrecord_t *record);
  44:tmk_core/common/action_tapping.c **** static bool waiting_buffer_enq(keyrecord_t record);
  45:tmk_core/common/action_tapping.c **** static void waiting_buffer_clear(void);
  46:tmk_core/common/action_tapping.c **** static bool waiting_buffer_typed(keyevent_t event);
  47:tmk_core/common/action_tapping.c **** static bool waiting_buffer_has_anykey_pressed(void);
  48:tmk_core/common/action_tapping.c **** static void waiting_buffer_scan_tap(void);
  49:tmk_core/common/action_tapping.c **** static void debug_tapping_key(void);
  50:tmk_core/common/action_tapping.c **** static void debug_waiting_buffer(void);
  51:tmk_core/common/action_tapping.c **** 
  52:tmk_core/common/action_tapping.c **** /** \brief Action Tapping Process
  53:tmk_core/common/action_tapping.c ****  *
  54:tmk_core/common/action_tapping.c ****  * FIXME: Needs doc
  55:tmk_core/common/action_tapping.c ****  */
  56:tmk_core/common/action_tapping.c **** void action_tapping_process(keyrecord_t record) {
  57:tmk_core/common/action_tapping.c ****     if (process_tapping(&record)) {
  58:tmk_core/common/action_tapping.c ****         if (!IS_NOEVENT(record.event)) {
  59:tmk_core/common/action_tapping.c ****             debug("processed: ");
  60:tmk_core/common/action_tapping.c ****             debug_record(record);
  61:tmk_core/common/action_tapping.c ****             debug("\n");
  62:tmk_core/common/action_tapping.c ****         }
  63:tmk_core/common/action_tapping.c ****     } else {
  64:tmk_core/common/action_tapping.c ****         if (!waiting_buffer_enq(record)) {
  65:tmk_core/common/action_tapping.c ****             // clear all in case of overflow.
  66:tmk_core/common/action_tapping.c ****             debug("OVERFLOW: CLEAR ALL STATES\n");
  67:tmk_core/common/action_tapping.c ****             clear_keyboard();
  68:tmk_core/common/action_tapping.c ****             waiting_buffer_clear();
  69:tmk_core/common/action_tapping.c ****             tapping_key = (keyrecord_t){};
  70:tmk_core/common/action_tapping.c ****         }
  71:tmk_core/common/action_tapping.c ****     }
  72:tmk_core/common/action_tapping.c **** 
  73:tmk_core/common/action_tapping.c ****     // process waiting_buffer
  74:tmk_core/common/action_tapping.c ****     if (!IS_NOEVENT(record.event) && waiting_buffer_head != waiting_buffer_tail) {
  75:tmk_core/common/action_tapping.c ****         debug("---- action_exec: process waiting_buffer -----\n");
  76:tmk_core/common/action_tapping.c ****     }
  77:tmk_core/common/action_tapping.c ****     for (; waiting_buffer_tail != waiting_buffer_head; waiting_buffer_tail = (waiting_buffer_tail +
  78:tmk_core/common/action_tapping.c ****         if (process_tapping(&waiting_buffer[waiting_buffer_tail])) {
  79:tmk_core/common/action_tapping.c ****             debug("processed: waiting_buffer[");
  80:tmk_core/common/action_tapping.c ****             debug_dec(waiting_buffer_tail);
  81:tmk_core/common/action_tapping.c ****             debug("] = ");
  82:tmk_core/common/action_tapping.c ****             debug_record(waiting_buffer[waiting_buffer_tail]);
  83:tmk_core/common/action_tapping.c ****             debug("\n\n");
  84:tmk_core/common/action_tapping.c ****         } else {
  85:tmk_core/common/action_tapping.c ****             break;
  86:tmk_core/common/action_tapping.c ****         }
  87:tmk_core/common/action_tapping.c ****     }
  88:tmk_core/common/action_tapping.c ****     if (!IS_NOEVENT(record.event)) {
  89:tmk_core/common/action_tapping.c ****         debug("\n");
  90:tmk_core/common/action_tapping.c ****     }
  91:tmk_core/common/action_tapping.c **** }
  92:tmk_core/common/action_tapping.c **** 
  93:tmk_core/common/action_tapping.c **** /** \brief Tapping
  94:tmk_core/common/action_tapping.c ****  *
  95:tmk_core/common/action_tapping.c ****  * Rule: Tap key is typed(pressed and released) within TAPPING_TERM.
  96:tmk_core/common/action_tapping.c ****  *       (without interfering by typing other key)
  97:tmk_core/common/action_tapping.c ****  */
  98:tmk_core/common/action_tapping.c **** /* return true when key event is processed or consumed. */
  99:tmk_core/common/action_tapping.c **** bool process_tapping(keyrecord_t *keyp) {
 100:tmk_core/common/action_tapping.c ****     keyevent_t event = keyp->event;
 101:tmk_core/common/action_tapping.c **** 
 102:tmk_core/common/action_tapping.c ****     // if tapping
 103:tmk_core/common/action_tapping.c ****     if (IS_TAPPING_PRESSED()) {
 104:tmk_core/common/action_tapping.c ****         if (WITHIN_TAPPING_TERM(event)) {
 105:tmk_core/common/action_tapping.c ****             if (tapping_key.tap.count == 0) {
 106:tmk_core/common/action_tapping.c ****                 if (IS_TAPPING_KEY(event.key) && !event.pressed) {
 107:tmk_core/common/action_tapping.c ****                     // first tap!
 108:tmk_core/common/action_tapping.c ****                     debug("Tapping: First tap(0->1).\n");
 109:tmk_core/common/action_tapping.c ****                     tapping_key.tap.count = 1;
 110:tmk_core/common/action_tapping.c ****                     debug_tapping_key();
 111:tmk_core/common/action_tapping.c ****                     process_record(&tapping_key);
 112:tmk_core/common/action_tapping.c **** 
 113:tmk_core/common/action_tapping.c ****                     // copy tapping state
 114:tmk_core/common/action_tapping.c ****                     keyp->tap = tapping_key.tap;
 115:tmk_core/common/action_tapping.c ****                     // enqueue
 116:tmk_core/common/action_tapping.c ****                     return false;
 117:tmk_core/common/action_tapping.c ****                 }
 118:tmk_core/common/action_tapping.c ****                 /* Process a key typed within TAPPING_TERM
 119:tmk_core/common/action_tapping.c ****                  * This can register the key before settlement of tapping,
 120:tmk_core/common/action_tapping.c ****                  * useful for long TAPPING_TERM but may prevent fast typing.
 121:tmk_core/common/action_tapping.c ****                  */
 122:tmk_core/common/action_tapping.c **** #    if defined(TAPPING_TERM_PER_KEY) || (TAPPING_TERM >= 500) || defined(PERMISSIVE_HOLD) || defin
 123:tmk_core/common/action_tapping.c ****                 else if (
 124:tmk_core/common/action_tapping.c **** #        ifdef TAPPING_TERM_PER_KEY
 125:tmk_core/common/action_tapping.c ****                     (get_tapping_term(get_event_keycode(tapping_key.event, false), keyp) >= 500) &&
 126:tmk_core/common/action_tapping.c **** #        endif
 127:tmk_core/common/action_tapping.c **** #        ifdef PERMISSIVE_HOLD_PER_KEY
 128:tmk_core/common/action_tapping.c ****                     !get_permissive_hold(get_event_keycode(tapping_key.event, false), keyp) &&
 129:tmk_core/common/action_tapping.c **** #        endif
 130:tmk_core/common/action_tapping.c ****                     IS_RELEASED(event) && waiting_buffer_typed(event)) {
 131:tmk_core/common/action_tapping.c ****                     debug("Tapping: End. No tap. Interfered by typing key\n");
 132:tmk_core/common/action_tapping.c ****                     process_record(&tapping_key);
 133:tmk_core/common/action_tapping.c ****                     tapping_key = (keyrecord_t){};
 134:tmk_core/common/action_tapping.c ****                     debug_tapping_key();
 135:tmk_core/common/action_tapping.c ****                     // enqueue
 136:tmk_core/common/action_tapping.c ****                     return false;
 137:tmk_core/common/action_tapping.c ****                 }
 138:tmk_core/common/action_tapping.c **** #    endif
 139:tmk_core/common/action_tapping.c ****                 /* Process release event of a key pressed before tapping starts
 140:tmk_core/common/action_tapping.c ****                  * Without this unexpected repeating will occur with having fast repeating setting
 141:tmk_core/common/action_tapping.c ****                  * https://github.com/tmk/tmk_keyboard/issues/60
 142:tmk_core/common/action_tapping.c ****                  */
 143:tmk_core/common/action_tapping.c ****                 else if (IS_RELEASED(event) && !waiting_buffer_typed(event)) {
 144:tmk_core/common/action_tapping.c ****                     // Modifier should be retained till end of this tapping.
 145:tmk_core/common/action_tapping.c ****                     action_t action = layer_switch_get_action(event.key);
 146:tmk_core/common/action_tapping.c ****                     switch (action.kind.id) {
 147:tmk_core/common/action_tapping.c ****                         case ACT_LMODS:
 148:tmk_core/common/action_tapping.c ****                         case ACT_RMODS:
 149:tmk_core/common/action_tapping.c ****                             if (action.key.mods && !action.key.code) return false;
 150:tmk_core/common/action_tapping.c ****                             if (IS_MOD(action.key.code)) return false;
 151:tmk_core/common/action_tapping.c ****                             break;
 152:tmk_core/common/action_tapping.c ****                         case ACT_LMODS_TAP:
 153:tmk_core/common/action_tapping.c ****                         case ACT_RMODS_TAP:
 154:tmk_core/common/action_tapping.c ****                             if (action.key.mods && keyp->tap.count == 0) return false;
 155:tmk_core/common/action_tapping.c ****                             if (IS_MOD(action.key.code)) return false;
 156:tmk_core/common/action_tapping.c ****                             break;
 157:tmk_core/common/action_tapping.c ****                     }
 158:tmk_core/common/action_tapping.c ****                     // Release of key should be process immediately.
 159:tmk_core/common/action_tapping.c ****                     debug("Tapping: release event of a key pressed before tapping\n");
 160:tmk_core/common/action_tapping.c ****                     process_record(keyp);
 161:tmk_core/common/action_tapping.c ****                     return true;
 162:tmk_core/common/action_tapping.c ****                 } else {
 163:tmk_core/common/action_tapping.c ****                     // set interrupted flag when other key preesed during tapping
 164:tmk_core/common/action_tapping.c ****                     if (event.pressed) {
 165:tmk_core/common/action_tapping.c ****                         tapping_key.tap.interrupted = true;
 166:tmk_core/common/action_tapping.c ****                     }
 167:tmk_core/common/action_tapping.c ****                     // enqueue
 168:tmk_core/common/action_tapping.c ****                     return false;
 169:tmk_core/common/action_tapping.c ****                 }
 170:tmk_core/common/action_tapping.c ****             }
 171:tmk_core/common/action_tapping.c ****             // tap_count > 0
 172:tmk_core/common/action_tapping.c ****             else {
 173:tmk_core/common/action_tapping.c ****                 if (IS_TAPPING_KEY(event.key) && !event.pressed) {
 174:tmk_core/common/action_tapping.c ****                     debug("Tapping: Tap release(");
 175:tmk_core/common/action_tapping.c ****                     debug_dec(tapping_key.tap.count);
 176:tmk_core/common/action_tapping.c ****                     debug(")\n");
 177:tmk_core/common/action_tapping.c ****                     keyp->tap = tapping_key.tap;
 178:tmk_core/common/action_tapping.c ****                     process_record(keyp);
 179:tmk_core/common/action_tapping.c ****                     tapping_key = *keyp;
 180:tmk_core/common/action_tapping.c ****                     debug_tapping_key();
 181:tmk_core/common/action_tapping.c ****                     return true;
 182:tmk_core/common/action_tapping.c ****                 } else if (is_tap_key(event.key) && event.pressed) {
 183:tmk_core/common/action_tapping.c ****                     if (tapping_key.tap.count > 1) {
 184:tmk_core/common/action_tapping.c ****                         debug("Tapping: Start new tap with releasing last tap(>1).\n");
 185:tmk_core/common/action_tapping.c ****                         // unregister key
 186:tmk_core/common/action_tapping.c ****                         process_record(&(keyrecord_t){.tap = tapping_key.tap, .event.key = tapping_
 187:tmk_core/common/action_tapping.c ****                     } else {
 188:tmk_core/common/action_tapping.c ****                         debug("Tapping: Start while last tap(1).\n");
 189:tmk_core/common/action_tapping.c ****                     }
 190:tmk_core/common/action_tapping.c ****                     tapping_key = *keyp;
 191:tmk_core/common/action_tapping.c ****                     waiting_buffer_scan_tap();
 192:tmk_core/common/action_tapping.c ****                     debug_tapping_key();
 193:tmk_core/common/action_tapping.c ****                     return true;
 194:tmk_core/common/action_tapping.c ****                 } else {
 195:tmk_core/common/action_tapping.c ****                     if (!IS_NOEVENT(event)) {
 196:tmk_core/common/action_tapping.c ****                         debug("Tapping: key event while last tap(>0).\n");
 197:tmk_core/common/action_tapping.c ****                     }
 198:tmk_core/common/action_tapping.c ****                     process_record(keyp);
 199:tmk_core/common/action_tapping.c ****                     return true;
 200:tmk_core/common/action_tapping.c ****                 }
 201:tmk_core/common/action_tapping.c ****             }
 202:tmk_core/common/action_tapping.c ****         }
 203:tmk_core/common/action_tapping.c ****         // after TAPPING_TERM
 204:tmk_core/common/action_tapping.c ****         else {
 205:tmk_core/common/action_tapping.c ****             if (tapping_key.tap.count == 0) {
 206:tmk_core/common/action_tapping.c ****                 debug("Tapping: End. Timeout. Not tap(0): ");
 207:tmk_core/common/action_tapping.c ****                 debug_event(event);
 208:tmk_core/common/action_tapping.c ****                 debug("\n");
 209:tmk_core/common/action_tapping.c ****                 process_record(&tapping_key);
 210:tmk_core/common/action_tapping.c ****                 tapping_key = (keyrecord_t){};
 211:tmk_core/common/action_tapping.c ****                 debug_tapping_key();
 212:tmk_core/common/action_tapping.c ****                 return false;
 213:tmk_core/common/action_tapping.c ****             } else {
 214:tmk_core/common/action_tapping.c ****                 if (IS_TAPPING_KEY(event.key) && !event.pressed) {
 215:tmk_core/common/action_tapping.c ****                     debug("Tapping: End. last timeout tap release(>0).");
 216:tmk_core/common/action_tapping.c ****                     keyp->tap = tapping_key.tap;
 217:tmk_core/common/action_tapping.c ****                     process_record(keyp);
 218:tmk_core/common/action_tapping.c ****                     tapping_key = (keyrecord_t){};
 219:tmk_core/common/action_tapping.c ****                     return true;
 220:tmk_core/common/action_tapping.c ****                 } else if (is_tap_key(event.key) && event.pressed) {
 221:tmk_core/common/action_tapping.c ****                     if (tapping_key.tap.count > 1) {
 222:tmk_core/common/action_tapping.c ****                         debug("Tapping: Start new tap with releasing last timeout tap(>1).\n");
 223:tmk_core/common/action_tapping.c ****                         // unregister key
 224:tmk_core/common/action_tapping.c ****                         process_record(&(keyrecord_t){.tap = tapping_key.tap, .event.key = tapping_
 225:tmk_core/common/action_tapping.c ****                     } else {
 226:tmk_core/common/action_tapping.c ****                         debug("Tapping: Start while last timeout tap(1).\n");
 227:tmk_core/common/action_tapping.c ****                     }
 228:tmk_core/common/action_tapping.c ****                     tapping_key = *keyp;
 229:tmk_core/common/action_tapping.c ****                     waiting_buffer_scan_tap();
 230:tmk_core/common/action_tapping.c ****                     debug_tapping_key();
 231:tmk_core/common/action_tapping.c ****                     return true;
 232:tmk_core/common/action_tapping.c ****                 } else {
 233:tmk_core/common/action_tapping.c ****                     if (!IS_NOEVENT(event)) {
 234:tmk_core/common/action_tapping.c ****                         debug("Tapping: key event while last timeout tap(>0).\n");
 235:tmk_core/common/action_tapping.c ****                     }
 236:tmk_core/common/action_tapping.c ****                     process_record(keyp);
 237:tmk_core/common/action_tapping.c ****                     return true;
 238:tmk_core/common/action_tapping.c ****                 }
 239:tmk_core/common/action_tapping.c ****             }
 240:tmk_core/common/action_tapping.c ****         }
 241:tmk_core/common/action_tapping.c ****     } else if (IS_TAPPING_RELEASED()) {
 242:tmk_core/common/action_tapping.c ****         if (WITHIN_TAPPING_TERM(event)) {
 243:tmk_core/common/action_tapping.c ****             if (event.pressed) {
 244:tmk_core/common/action_tapping.c ****                 if (IS_TAPPING_KEY(event.key)) {
 245:tmk_core/common/action_tapping.c **** //#    ifndef TAPPING_FORCE_HOLD
 246:tmk_core/common/action_tapping.c **** #    if !defined(TAPPING_FORCE_HOLD) || defined(TAPPING_FORCE_HOLD_PER_KEY)
 247:tmk_core/common/action_tapping.c ****                     if (
 248:tmk_core/common/action_tapping.c **** #        ifdef TAPPING_FORCE_HOLD_PER_KEY
 249:tmk_core/common/action_tapping.c ****                         !get_tapping_force_hold(get_event_keycode(tapping_key.event, false), keyp) 
 250:tmk_core/common/action_tapping.c **** #        endif
 251:tmk_core/common/action_tapping.c ****                         !tapping_key.tap.interrupted && tapping_key.tap.count > 0) {
 252:tmk_core/common/action_tapping.c ****                         // sequential tap.
 253:tmk_core/common/action_tapping.c ****                         keyp->tap = tapping_key.tap;
 254:tmk_core/common/action_tapping.c ****                         if (keyp->tap.count < 15) keyp->tap.count += 1;
 255:tmk_core/common/action_tapping.c ****                         debug("Tapping: Tap press(");
 256:tmk_core/common/action_tapping.c ****                         debug_dec(keyp->tap.count);
 257:tmk_core/common/action_tapping.c ****                         debug(")\n");
 258:tmk_core/common/action_tapping.c ****                         process_record(keyp);
 259:tmk_core/common/action_tapping.c ****                         tapping_key = *keyp;
 260:tmk_core/common/action_tapping.c ****                         debug_tapping_key();
 261:tmk_core/common/action_tapping.c ****                         return true;
 262:tmk_core/common/action_tapping.c ****                     }
 263:tmk_core/common/action_tapping.c **** #    endif
 264:tmk_core/common/action_tapping.c ****                     // FIX: start new tap again
 265:tmk_core/common/action_tapping.c ****                     tapping_key = *keyp;
 266:tmk_core/common/action_tapping.c ****                     return true;
 267:tmk_core/common/action_tapping.c ****                 } else if (is_tap_key(event.key)) {
 268:tmk_core/common/action_tapping.c ****                     // Sequential tap can be interfered with other tap key.
 269:tmk_core/common/action_tapping.c ****                     debug("Tapping: Start with interfering other tap.\n");
 270:tmk_core/common/action_tapping.c ****                     tapping_key = *keyp;
 271:tmk_core/common/action_tapping.c ****                     waiting_buffer_scan_tap();
 272:tmk_core/common/action_tapping.c ****                     debug_tapping_key();
 273:tmk_core/common/action_tapping.c ****                     return true;
 274:tmk_core/common/action_tapping.c ****                 } else {
 275:tmk_core/common/action_tapping.c ****                     // should none in buffer
 276:tmk_core/common/action_tapping.c ****                     // FIX: interrupted when other key is pressed
 277:tmk_core/common/action_tapping.c ****                     tapping_key.tap.interrupted = true;
 278:tmk_core/common/action_tapping.c ****                     process_record(keyp);
 279:tmk_core/common/action_tapping.c ****                     return true;
 280:tmk_core/common/action_tapping.c ****                 }
 281:tmk_core/common/action_tapping.c ****             } else {
 282:tmk_core/common/action_tapping.c ****                 if (!IS_NOEVENT(event)) debug("Tapping: other key just after tap.\n");
 283:tmk_core/common/action_tapping.c ****                 process_record(keyp);
 284:tmk_core/common/action_tapping.c ****                 return true;
 285:tmk_core/common/action_tapping.c ****             }
 286:tmk_core/common/action_tapping.c ****         } else {
 287:tmk_core/common/action_tapping.c ****             // FIX: process_action here?
 288:tmk_core/common/action_tapping.c ****             // timeout. no sequential tap.
 289:tmk_core/common/action_tapping.c ****             debug("Tapping: End(Timeout after releasing last tap): ");
 290:tmk_core/common/action_tapping.c ****             debug_event(event);
 291:tmk_core/common/action_tapping.c ****             debug("\n");
 292:tmk_core/common/action_tapping.c ****             tapping_key = (keyrecord_t){};
 293:tmk_core/common/action_tapping.c ****             debug_tapping_key();
 294:tmk_core/common/action_tapping.c ****             return false;
 295:tmk_core/common/action_tapping.c ****         }
 296:tmk_core/common/action_tapping.c ****     }
 297:tmk_core/common/action_tapping.c ****     // not tapping state
 298:tmk_core/common/action_tapping.c ****     else {
 299:tmk_core/common/action_tapping.c ****         if (event.pressed && is_tap_key(event.key)) {
 300:tmk_core/common/action_tapping.c ****             debug("Tapping: Start(Press tap key).\n");
 301:tmk_core/common/action_tapping.c ****             tapping_key = *keyp;
 302:tmk_core/common/action_tapping.c ****             process_record_tap_hint(&tapping_key);
 303:tmk_core/common/action_tapping.c ****             waiting_buffer_scan_tap();
 304:tmk_core/common/action_tapping.c ****             debug_tapping_key();
 305:tmk_core/common/action_tapping.c ****             return true;
 306:tmk_core/common/action_tapping.c ****         } else {
 307:tmk_core/common/action_tapping.c ****             process_record(keyp);
 308:tmk_core/common/action_tapping.c ****             return true;
 309:tmk_core/common/action_tapping.c ****         }
 310:tmk_core/common/action_tapping.c ****     }
 311:tmk_core/common/action_tapping.c **** }
 312:tmk_core/common/action_tapping.c **** 
 313:tmk_core/common/action_tapping.c **** /** \brief Waiting buffer enq
 314:tmk_core/common/action_tapping.c ****  *
 315:tmk_core/common/action_tapping.c ****  * FIXME: Needs docs
 316:tmk_core/common/action_tapping.c ****  */
 317:tmk_core/common/action_tapping.c **** bool waiting_buffer_enq(keyrecord_t record) {
 318:tmk_core/common/action_tapping.c ****     if (IS_NOEVENT(record.event)) {
 319:tmk_core/common/action_tapping.c ****         return true;
 320:tmk_core/common/action_tapping.c ****     }
 321:tmk_core/common/action_tapping.c **** 
 322:tmk_core/common/action_tapping.c ****     if ((waiting_buffer_head + 1) % WAITING_BUFFER_SIZE == waiting_buffer_tail) {
 323:tmk_core/common/action_tapping.c ****         debug("waiting_buffer_enq: Over flow.\n");
 324:tmk_core/common/action_tapping.c ****         return false;
 325:tmk_core/common/action_tapping.c ****     }
 326:tmk_core/common/action_tapping.c **** 
 327:tmk_core/common/action_tapping.c ****     waiting_buffer[waiting_buffer_head] = record;
 328:tmk_core/common/action_tapping.c ****     waiting_buffer_head                 = (waiting_buffer_head + 1) % WAITING_BUFFER_SIZE;
 329:tmk_core/common/action_tapping.c **** 
 330:tmk_core/common/action_tapping.c ****     debug("waiting_buffer_enq: ");
 331:tmk_core/common/action_tapping.c ****     debug_waiting_buffer();
 332:tmk_core/common/action_tapping.c ****     return true;
 333:tmk_core/common/action_tapping.c **** }
 334:tmk_core/common/action_tapping.c **** 
 335:tmk_core/common/action_tapping.c **** /** \brief Waiting buffer clear
 336:tmk_core/common/action_tapping.c ****  *
 337:tmk_core/common/action_tapping.c ****  * FIXME: Needs docs
 338:tmk_core/common/action_tapping.c ****  */
 339:tmk_core/common/action_tapping.c **** void waiting_buffer_clear(void) {
 340:tmk_core/common/action_tapping.c ****     waiting_buffer_head = 0;
 341:tmk_core/common/action_tapping.c ****     waiting_buffer_tail = 0;
 342:tmk_core/common/action_tapping.c **** }
 343:tmk_core/common/action_tapping.c **** 
 344:tmk_core/common/action_tapping.c **** /** \brief Waiting buffer typed
 345:tmk_core/common/action_tapping.c ****  *
 346:tmk_core/common/action_tapping.c ****  * FIXME: Needs docs
 347:tmk_core/common/action_tapping.c ****  */
 348:tmk_core/common/action_tapping.c **** bool waiting_buffer_typed(keyevent_t event) {
 349:tmk_core/common/action_tapping.c ****     for (uint8_t i = waiting_buffer_tail; i != waiting_buffer_head; i = (i + 1) % WAITING_BUFFER_SI
 350:tmk_core/common/action_tapping.c ****         if (KEYEQ(event.key, waiting_buffer[i].event.key) && event.pressed != waiting_buffer[i].eve
 351:tmk_core/common/action_tapping.c ****             return true;
 352:tmk_core/common/action_tapping.c ****         }
 353:tmk_core/common/action_tapping.c ****     }
 354:tmk_core/common/action_tapping.c ****     return false;
 355:tmk_core/common/action_tapping.c **** }
 356:tmk_core/common/action_tapping.c **** 
 357:tmk_core/common/action_tapping.c **** /** \brief Waiting buffer has anykey pressed
 358:tmk_core/common/action_tapping.c ****  *
 359:tmk_core/common/action_tapping.c ****  * FIXME: Needs docs
 360:tmk_core/common/action_tapping.c ****  */
 361:tmk_core/common/action_tapping.c **** __attribute__((unused)) bool waiting_buffer_has_anykey_pressed(void) {
 362:tmk_core/common/action_tapping.c ****     for (uint8_t i = waiting_buffer_tail; i != waiting_buffer_head; i = (i + 1) % WAITING_BUFFER_SI
 363:tmk_core/common/action_tapping.c ****         if (waiting_buffer[i].event.pressed) return true;
 364:tmk_core/common/action_tapping.c ****     }
 365:tmk_core/common/action_tapping.c ****     return false;
 366:tmk_core/common/action_tapping.c **** }
 367:tmk_core/common/action_tapping.c **** 
 368:tmk_core/common/action_tapping.c **** /** \brief Scan buffer for tapping
 369:tmk_core/common/action_tapping.c ****  *
 370:tmk_core/common/action_tapping.c ****  * FIXME: Needs docs
 371:tmk_core/common/action_tapping.c ****  */
 372:tmk_core/common/action_tapping.c **** void waiting_buffer_scan_tap(void) {
 373:tmk_core/common/action_tapping.c ****     // tapping already is settled
 374:tmk_core/common/action_tapping.c ****     if (tapping_key.tap.count > 0) return;
 375:tmk_core/common/action_tapping.c ****     // invalid state: tapping_key released && tap.count == 0
 376:tmk_core/common/action_tapping.c ****     if (!tapping_key.event.pressed) return;
 377:tmk_core/common/action_tapping.c **** 
 378:tmk_core/common/action_tapping.c ****     for (uint8_t i = waiting_buffer_tail; i != waiting_buffer_head; i = (i + 1) % WAITING_BUFFER_SI
 379:tmk_core/common/action_tapping.c ****         if (IS_TAPPING_KEY(waiting_buffer[i].event.key) && !waiting_buffer[i].event.pressed && WITH
 380:tmk_core/common/action_tapping.c ****             tapping_key.tap.count       = 1;
 381:tmk_core/common/action_tapping.c ****             waiting_buffer[i].tap.count = 1;
 382:tmk_core/common/action_tapping.c ****             process_record(&tapping_key);
 383:tmk_core/common/action_tapping.c **** 
 384:tmk_core/common/action_tapping.c ****             debug("waiting_buffer_scan_tap: found at [");
 385:tmk_core/common/action_tapping.c ****             debug_dec(i);
 386:tmk_core/common/action_tapping.c ****             debug("]\n");
 387:tmk_core/common/action_tapping.c ****             debug_waiting_buffer();
 388:tmk_core/common/action_tapping.c ****             return;
 389:tmk_core/common/action_tapping.c ****         }
 390:tmk_core/common/action_tapping.c ****     }
 391:tmk_core/common/action_tapping.c **** }
 392:tmk_core/common/action_tapping.c **** 
 393:tmk_core/common/action_tapping.c **** /** \brief Tapping key debug print
 394:tmk_core/common/action_tapping.c ****  *
 395:tmk_core/common/action_tapping.c ****  * FIXME: Needs docs
 396:tmk_core/common/action_tapping.c ****  */
 397:tmk_core/common/action_tapping.c **** static void debug_tapping_key(void) {
 398:tmk_core/common/action_tapping.c ****     debug("TAPPING_KEY=");
 399:tmk_core/common/action_tapping.c ****     debug_record(tapping_key);
 400:tmk_core/common/action_tapping.c ****     debug("\n");
 401:tmk_core/common/action_tapping.c **** }
 402:tmk_core/common/action_tapping.c **** 
 403:tmk_core/common/action_tapping.c **** /** \brief Waiting buffer debug print
 404:tmk_core/common/action_tapping.c ****  *
 405:tmk_core/common/action_tapping.c ****  * FIXME: Needs docs
 406:tmk_core/common/action_tapping.c ****  */
 407:tmk_core/common/action_tapping.c **** static void debug_waiting_buffer(void) {
  15               		.loc 1 407 40 view -0
  16               		.cfi_startproc
  17 0000 1F93      		push r17
  18               	.LCFI0:
  19               		.cfi_def_cfa_offset 3
  20               		.cfi_offset 17, -2
  21 0002 CF93      		push r28
  22               	.LCFI1:
  23               		.cfi_def_cfa_offset 4
  24               		.cfi_offset 28, -3
  25 0004 DF93      		push r29
  26               	.LCFI2:
  27               		.cfi_def_cfa_offset 5
  28               		.cfi_offset 29, -4
  29               	/* prologue: function */
  30               	/* frame size = 0 */
  31               	/* stack size = 3 */
  32               	.L__stack_usage = 3
 408:tmk_core/common/action_tapping.c ****     debug("{ ");
  33               		.loc 1 408 16 view .LVU1
 409:tmk_core/common/action_tapping.c ****     for (uint8_t i = waiting_buffer_tail; i != waiting_buffer_head; i = (i + 1) % WAITING_BUFFER_SI
  34               		.loc 1 409 5 view .LVU2
  35               	.LBB3:
  36               		.loc 1 409 10 view .LVU3
  37               		.loc 1 409 18 is_stmt 0 view .LVU4
  38 0006 C091 0000 		lds r28,waiting_buffer_tail
  39               	.LVL0:
 410:tmk_core/common/action_tapping.c ****         debug("[");
 411:tmk_core/common/action_tapping.c ****         debug_dec(i);
 412:tmk_core/common/action_tapping.c ****         debug("]=");
 413:tmk_core/common/action_tapping.c ****         debug_record(waiting_buffer[i]);
  40               		.loc 1 413 9 view .LVU5
  41 000a 16E0      		ldi r17,lo8(6)
  42               	.LVL1:
  43               	.L2:
 409:tmk_core/common/action_tapping.c ****     for (uint8_t i = waiting_buffer_tail; i != waiting_buffer_head; i = (i + 1) % WAITING_BUFFER_SI
  44               		.loc 1 409 43 is_stmt 1 discriminator 1 view .LVU6
 409:tmk_core/common/action_tapping.c ****     for (uint8_t i = waiting_buffer_tail; i != waiting_buffer_head; i = (i + 1) % WAITING_BUFFER_SI
  45               		.loc 1 409 5 is_stmt 0 discriminator 1 view .LVU7
  46 000c 8091 0000 		lds r24,waiting_buffer_head
  47 0010 8C13      		cpse r24,r28
  48 0012 00C0      		rjmp .L3
  49               	/* epilogue start */
  50               	.LBE3:
 414:tmk_core/common/action_tapping.c ****         debug(" ");
 415:tmk_core/common/action_tapping.c ****     }
 416:tmk_core/common/action_tapping.c ****     debug("}\n");
 417:tmk_core/common/action_tapping.c **** }
  51               		.loc 1 417 1 view .LVU8
  52 0014 DF91      		pop r29
  53 0016 CF91      		pop r28
  54               	.LVL2:
  55               		.loc 1 417 1 view .LVU9
  56 0018 1F91      		pop r17
  57 001a 0895      		ret
  58               	.LVL3:
  59               	.L3:
  60               	.LBB4:
 410:tmk_core/common/action_tapping.c ****         debug("[");
  61               		.loc 1 410 19 is_stmt 1 discriminator 3 view .LVU10
 411:tmk_core/common/action_tapping.c ****         debug("]=");
  62               		.loc 1 411 21 discriminator 3 view .LVU11
 412:tmk_core/common/action_tapping.c ****         debug_record(waiting_buffer[i]);
  63               		.loc 1 412 20 discriminator 3 view .LVU12
 413:tmk_core/common/action_tapping.c ****         debug(" ");
  64               		.loc 1 413 9 discriminator 3 view .LVU13
  65 001c D0E0      		ldi r29,0
  66 001e 1C9F      		mul r17,r28
  67 0020 F001      		movw r30,r0
  68 0022 1D9F      		mul r17,r29
  69 0024 F00D      		add r31,r0
  70 0026 1124      		clr __zero_reg__
  71 0028 E050      		subi r30,lo8(-(waiting_buffer))
  72 002a F040      		sbci r31,hi8(-(waiting_buffer))
  73 002c 4081      		ld r20,Z
  74 002e 5181      		ldd r21,Z+1
  75 0030 6281      		ldd r22,Z+2
  76 0032 7381      		ldd r23,Z+3
  77 0034 8481      		ldd r24,Z+4
  78 0036 9581      		ldd r25,Z+5
  79 0038 0E94 0000 		call debug_record
  80               	.LVL4:
 414:tmk_core/common/action_tapping.c ****     }
  81               		.loc 1 414 19 discriminator 3 view .LVU14
 409:tmk_core/common/action_tapping.c ****         debug("[");
  82               		.loc 1 409 69 discriminator 3 view .LVU15
 409:tmk_core/common/action_tapping.c ****         debug("[");
  83               		.loc 1 409 76 is_stmt 0 discriminator 3 view .LVU16
  84 003c 2196      		adiw r28,1
  85               	.LVL5:
 409:tmk_core/common/action_tapping.c ****         debug("[");
  86               		.loc 1 409 71 discriminator 3 view .LVU17
  87 003e C770      		andi r28,lo8(7)
 409:tmk_core/common/action_tapping.c ****         debug("[");
  88               		.loc 1 409 71 discriminator 3 view .LVU18
  89 0040 00C0      		rjmp .L2
  90               	.LBE4:
  91               		.cfi_endproc
  92               	.LFE13:
  94               		.section	.text.debug_tapping_key,"ax",@progbits
  96               	debug_tapping_key:
  97               	.LFB12:
 397:tmk_core/common/action_tapping.c ****     debug("TAPPING_KEY=");
  98               		.loc 1 397 37 is_stmt 1 view -0
  99               		.cfi_startproc
 100               	/* prologue: function */
 101               	/* frame size = 0 */
 102               	/* stack size = 0 */
 103               	.L__stack_usage = 0
 398:tmk_core/common/action_tapping.c ****     debug_record(tapping_key);
 104               		.loc 1 398 26 view .LVU20
 399:tmk_core/common/action_tapping.c ****     debug("\n");
 105               		.loc 1 399 5 view .LVU21
 106 0000 4091 0000 		lds r20,tapping_key
 107 0004 5091 0000 		lds r21,tapping_key+1
 108 0008 6091 0000 		lds r22,tapping_key+2
 109 000c 7091 0000 		lds r23,tapping_key+3
 110 0010 8091 0000 		lds r24,tapping_key+4
 111 0014 9091 0000 		lds r25,tapping_key+5
 112 0018 0C94 0000 		jmp debug_record
 113               	.LVL6:
 114               		.cfi_endproc
 115               	.LFE12:
 117               		.section	.text.waiting_buffer_scan_tap,"ax",@progbits
 119               	waiting_buffer_scan_tap:
 120               	.LFB11:
 372:tmk_core/common/action_tapping.c ****     // tapping already is settled
 121               		.loc 1 372 36 view -0
 122               		.cfi_startproc
 123 0000 1F93      		push r17
 124               	.LCFI3:
 125               		.cfi_def_cfa_offset 3
 126               		.cfi_offset 17, -2
 127 0002 CF93      		push r28
 128               	.LCFI4:
 129               		.cfi_def_cfa_offset 4
 130               		.cfi_offset 28, -3
 131 0004 DF93      		push r29
 132               	.LCFI5:
 133               		.cfi_def_cfa_offset 5
 134               		.cfi_offset 29, -4
 135               	/* prologue: function */
 136               	/* frame size = 0 */
 137               	/* stack size = 3 */
 138               	.L__stack_usage = 3
 374:tmk_core/common/action_tapping.c ****     // invalid state: tapping_key released && tap.count == 0
 139               		.loc 1 374 5 view .LVU23
 374:tmk_core/common/action_tapping.c ****     // invalid state: tapping_key released && tap.count == 0
 140               		.loc 1 374 31 is_stmt 0 view .LVU24
 141 0006 8091 0000 		lds r24,tapping_key+5
 142 000a 807F      		andi r24,lo8(-16)
 374:tmk_core/common/action_tapping.c ****     // invalid state: tapping_key released && tap.count == 0
 143               		.loc 1 374 8 view .LVU25
 144 000c 01F4      		brne .L5
 376:tmk_core/common/action_tapping.c **** 
 145               		.loc 1 376 5 is_stmt 1 view .LVU26
 376:tmk_core/common/action_tapping.c **** 
 146               		.loc 1 376 8 is_stmt 0 view .LVU27
 147 000e 8091 0000 		lds r24,tapping_key+2
 148 0012 8823      		tst r24
 149 0014 01F0      		breq .L5
 378:tmk_core/common/action_tapping.c ****         if (IS_TAPPING_KEY(waiting_buffer[i].event.key) && !waiting_buffer[i].event.pressed && WITH
 150               		.loc 1 378 5 is_stmt 1 view .LVU28
 151               	.LBB8:
 378:tmk_core/common/action_tapping.c ****         if (IS_TAPPING_KEY(waiting_buffer[i].event.key) && !waiting_buffer[i].event.pressed && WITH
 152               		.loc 1 378 10 view .LVU29
 378:tmk_core/common/action_tapping.c ****         if (IS_TAPPING_KEY(waiting_buffer[i].event.key) && !waiting_buffer[i].event.pressed && WITH
 153               		.loc 1 378 18 is_stmt 0 view .LVU30
 154 0016 8091 0000 		lds r24,waiting_buffer_tail
 155               	.LVL7:
 378:tmk_core/common/action_tapping.c ****         if (IS_TAPPING_KEY(waiting_buffer[i].event.key) && !waiting_buffer[i].event.pressed && WITH
 156               		.loc 1 378 45 view .LVU31
 157 001a C091 0000 		lds r28,waiting_buffer_head
 379:tmk_core/common/action_tapping.c ****             tapping_key.tap.count       = 1;
 158               		.loc 1 379 13 view .LVU32
 159 001e 6091 0000 		lds r22,tapping_key
 160 0022 7091 0000 		lds r23,tapping_key+1
 161 0026 A091 0000 		lds r26,tapping_key+3
 162 002a B091 0000 		lds r27,tapping_key+3+1
 163 002e D62F      		mov r29,r22
 164 0030 D723      		and r29,r23
 165 0032 16E0      		ldi r17,lo8(6)
 166               	.LVL8:
 167               	.L7:
 378:tmk_core/common/action_tapping.c ****         if (IS_TAPPING_KEY(waiting_buffer[i].event.key) && !waiting_buffer[i].event.pressed && WITH
 168               		.loc 1 378 43 is_stmt 1 discriminator 1 view .LVU33
 378:tmk_core/common/action_tapping.c ****         if (IS_TAPPING_KEY(waiting_buffer[i].event.key) && !waiting_buffer[i].event.pressed && WITH
 169               		.loc 1 378 5 is_stmt 0 discriminator 1 view .LVU34
 170 0034 C813      		cpse r28,r24
 171 0036 00C0      		rjmp .L10
 172               	.LVL9:
 173               	.L5:
 174               	/* epilogue start */
 378:tmk_core/common/action_tapping.c ****         if (IS_TAPPING_KEY(waiting_buffer[i].event.key) && !waiting_buffer[i].event.pressed && WITH
 175               		.loc 1 378 5 discriminator 1 view .LVU35
 176               	.LBE8:
 391:tmk_core/common/action_tapping.c **** 
 177               		.loc 1 391 1 view .LVU36
 178 0038 DF91      		pop r29
 179 003a CF91      		pop r28
 180 003c 1F91      		pop r17
 181 003e 0895      		ret
 182               	.LVL10:
 183               	.L10:
 184               	.LBB11:
 379:tmk_core/common/action_tapping.c ****             tapping_key.tap.count       = 1;
 185               		.loc 1 379 9 is_stmt 1 view .LVU37
 186               	.LBB9:
 187               	.LBI9:
 188               		.file 2 "tmk_core/common/keyboard.h"
   1:tmk_core/common/keyboard.h **** /*
   2:tmk_core/common/keyboard.h **** Copyright 2011,2012,2013 Jun Wako <wakojun@gmail.com>
   3:tmk_core/common/keyboard.h **** 
   4:tmk_core/common/keyboard.h **** This program is free software: you can redistribute it and/or modify
   5:tmk_core/common/keyboard.h **** it under the terms of the GNU General Public License as published by
   6:tmk_core/common/keyboard.h **** the Free Software Foundation, either version 2 of the License, or
   7:tmk_core/common/keyboard.h **** (at your option) any later version.
   8:tmk_core/common/keyboard.h **** 
   9:tmk_core/common/keyboard.h **** This program is distributed in the hope that it will be useful,
  10:tmk_core/common/keyboard.h **** but WITHOUT ANY WARRANTY; without even the implied warranty of
  11:tmk_core/common/keyboard.h **** MERCHANTABILITY or FITNESS FOR A PARTICULAR PURPOSE.  See the
  12:tmk_core/common/keyboard.h **** GNU General Public License for more details.
  13:tmk_core/common/keyboard.h **** 
  14:tmk_core/common/keyboard.h **** You should have received a copy of the GNU General Public License
  15:tmk_core/common/keyboard.h **** along with this program.  If not, see <http://www.gnu.org/licenses/>.
  16:tmk_core/common/keyboard.h **** */
  17:tmk_core/common/keyboard.h **** 
  18:tmk_core/common/keyboard.h **** #ifndef KEYBOARD_H
  19:tmk_core/common/keyboard.h **** #define KEYBOARD_H
  20:tmk_core/common/keyboard.h **** 
  21:tmk_core/common/keyboard.h **** #include <stdbool.h>
  22:tmk_core/common/keyboard.h **** #include <stdint.h>
  23:tmk_core/common/keyboard.h **** 
  24:tmk_core/common/keyboard.h **** #ifdef __cplusplus
  25:tmk_core/common/keyboard.h **** extern "C" {
  26:tmk_core/common/keyboard.h **** #endif
  27:tmk_core/common/keyboard.h **** 
  28:tmk_core/common/keyboard.h **** /* key matrix position */
  29:tmk_core/common/keyboard.h **** typedef struct {
  30:tmk_core/common/keyboard.h ****     uint8_t col;
  31:tmk_core/common/keyboard.h ****     uint8_t row;
  32:tmk_core/common/keyboard.h **** } keypos_t;
  33:tmk_core/common/keyboard.h **** 
  34:tmk_core/common/keyboard.h **** /* key event */
  35:tmk_core/common/keyboard.h **** typedef struct {
  36:tmk_core/common/keyboard.h ****     keypos_t key;
  37:tmk_core/common/keyboard.h ****     bool     pressed;
  38:tmk_core/common/keyboard.h ****     uint16_t time;
  39:tmk_core/common/keyboard.h **** } keyevent_t;
  40:tmk_core/common/keyboard.h **** 
  41:tmk_core/common/keyboard.h **** /* equivalent test of keypos_t */
  42:tmk_core/common/keyboard.h **** #define KEYEQ(keya, keyb) ((keya).row == (keyb).row && (keya).col == (keyb).col)
  43:tmk_core/common/keyboard.h **** 
  44:tmk_core/common/keyboard.h **** /* Rules for No Event:
  45:tmk_core/common/keyboard.h ****  * 1) (time == 0) to handle (keyevent_t){} as empty event
  46:tmk_core/common/keyboard.h ****  * 2) Matrix(255, 255) to make TICK event available
  47:tmk_core/common/keyboard.h ****  */
  48:tmk_core/common/keyboard.h **** static inline bool IS_NOEVENT(keyevent_t event) { return event.time == 0 || (event.key.row == 255 &
 189               		.loc 2 48 20 view .LVU38
 190               	.LBB10:
 191               		.loc 2 48 51 view .LVU39
 192 0040 90E0      		ldi r25,0
 193               		.loc 2 48 74 is_stmt 0 view .LVU40
 194 0042 1097      		sbiw r26,0
 195 0044 01F0      		breq .L8
 196 0046 DF3F      		cpi r29,lo8(-1)
 197 0048 01F4      		brne .L21
 198               	.L8:
 199               	.LBE10:
 200               	.LBE9:
 378:tmk_core/common/action_tapping.c ****         if (IS_TAPPING_KEY(waiting_buffer[i].event.key) && !waiting_buffer[i].event.pressed && WITH
 201               		.loc 1 378 69 is_stmt 1 discriminator 2 view .LVU41
 378:tmk_core/common/action_tapping.c ****         if (IS_TAPPING_KEY(waiting_buffer[i].event.key) && !waiting_buffer[i].event.pressed && WITH
 202               		.loc 1 378 76 is_stmt 0 discriminator 2 view .LVU42
 203 004a 0196      		adiw r24,1
 204               	.LVL11:
 378:tmk_core/common/action_tapping.c ****         if (IS_TAPPING_KEY(waiting_buffer[i].event.key) && !waiting_buffer[i].event.pressed && WITH
 205               		.loc 1 378 71 discriminator 2 view .LVU43
 206 004c 8770      		andi r24,lo8(7)
 378:tmk_core/common/action_tapping.c ****         if (IS_TAPPING_KEY(waiting_buffer[i].event.key) && !waiting_buffer[i].event.pressed && WITH
 207               		.loc 1 378 71 discriminator 2 view .LVU44
 208 004e 00C0      		rjmp .L7
 209               	.LVL12:
 210               	.L21:
 379:tmk_core/common/action_tapping.c ****             tapping_key.tap.count       = 1;
 211               		.loc 1 379 13 view .LVU45
 212 0050 189F      		mul r17,r24
 213 0052 9001      		movw r18,r0
 214 0054 199F      		mul r17,r25
 215 0056 300D      		add r19,r0
 216 0058 1124      		clr __zero_reg__
 217 005a F901      		movw r30,r18
 218 005c E050      		subi r30,lo8(-(waiting_buffer))
 219 005e F040      		sbci r31,hi8(-(waiting_buffer))
 220 0060 4181      		ldd r20,Z+1
 221 0062 4713      		cpse r20,r23
 222 0064 00C0      		rjmp .L8
 379:tmk_core/common/action_tapping.c ****             tapping_key.tap.count       = 1;
 223               		.loc 1 379 13 discriminator 2 view .LVU46
 224 0066 4081      		ld r20,Z
 225 0068 4613      		cpse r20,r22
 226 006a 00C0      		rjmp .L8
 379:tmk_core/common/action_tapping.c ****             tapping_key.tap.count       = 1;
 227               		.loc 1 379 57 discriminator 3 view .LVU47
 228 006c 4281      		ldd r20,Z+2
 229 006e 4111      		cpse r20,__zero_reg__
 230 0070 00C0      		rjmp .L8
 379:tmk_core/common/action_tapping.c ****             tapping_key.tap.count       = 1;
 231               		.loc 1 379 96 discriminator 4 view .LVU48
 232 0072 4381      		ldd r20,Z+3
 233 0074 5481      		ldd r21,Z+4
 234 0076 4A1B      		sub r20,r26
 235 0078 5B0B      		sbc r21,r27
 379:tmk_core/common/action_tapping.c ****             tapping_key.tap.count       = 1;
 236               		.loc 1 379 93 discriminator 4 view .LVU49
 237 007a 4436      		cpi r20,100
 238 007c 5105      		cpc r21,__zero_reg__
 239 007e 00F4      		brsh .L8
 380:tmk_core/common/action_tapping.c ****             waiting_buffer[i].tap.count = 1;
 240               		.loc 1 380 13 is_stmt 1 view .LVU50
 380:tmk_core/common/action_tapping.c ****             waiting_buffer[i].tap.count = 1;
 241               		.loc 1 380 41 is_stmt 0 view .LVU51
 242 0080 8091 0000 		lds r24,tapping_key+5
 243               	.LVL13:
 380:tmk_core/common/action_tapping.c ****             waiting_buffer[i].tap.count = 1;
 244               		.loc 1 380 41 view .LVU52
 245 0084 8F70      		andi r24,lo8(15)
 246 0086 8061      		ori r24,lo8(16)
 247 0088 8093 0000 		sts tapping_key+5,r24
 381:tmk_core/common/action_tapping.c ****             process_record(&tapping_key);
 248               		.loc 1 381 13 is_stmt 1 view .LVU53
 381:tmk_core/common/action_tapping.c ****             process_record(&tapping_key);
 249               		.loc 1 381 41 is_stmt 0 view .LVU54
 250 008c F901      		movw r30,r18
 251 008e E050      		subi r30,lo8(-(waiting_buffer+5))
 252 0090 F040      		sbci r31,hi8(-(waiting_buffer+5))
 253 0092 8081      		ld r24,Z
 254 0094 8F70      		andi r24,lo8(15)
 255 0096 8061      		ori r24,lo8(16)
 256 0098 8083      		st Z,r24
 382:tmk_core/common/action_tapping.c **** 
 257               		.loc 1 382 13 is_stmt 1 view .LVU55
 258 009a 80E0      		ldi r24,lo8(tapping_key)
 259 009c 90E0      		ldi r25,hi8(tapping_key)
 260 009e 0E94 0000 		call process_record
 261               	.LVL14:
 384:tmk_core/common/action_tapping.c ****             debug_dec(i);
 262               		.loc 1 384 57 view .LVU56
 385:tmk_core/common/action_tapping.c ****             debug("]\n");
 263               		.loc 1 385 25 view .LVU57
 386:tmk_core/common/action_tapping.c ****             debug_waiting_buffer();
 264               		.loc 1 386 25 view .LVU58
 387:tmk_core/common/action_tapping.c ****             return;
 265               		.loc 1 387 13 view .LVU59
 266               	/* epilogue start */
 267               	.LBE11:
 391:tmk_core/common/action_tapping.c **** 
 268               		.loc 1 391 1 is_stmt 0 view .LVU60
 269 00a2 DF91      		pop r29
 270 00a4 CF91      		pop r28
 271 00a6 1F91      		pop r17
 272               	.LBB12:
 387:tmk_core/common/action_tapping.c ****             return;
 273               		.loc 1 387 13 view .LVU61
 274 00a8 0C94 0000 		jmp debug_waiting_buffer
 275               	.LVL15:
 276               	.LBE12:
 277               		.cfi_endproc
 278               	.LFE11:
 280               		.section	.text.process_tapping,"ax",@progbits
 282               	process_tapping:
 283               	.LVL16:
 284               	.LFB6:
  99:tmk_core/common/action_tapping.c ****     keyevent_t event = keyp->event;
 285               		.loc 1 99 41 is_stmt 1 view -0
 286               		.cfi_startproc
  99:tmk_core/common/action_tapping.c ****     keyevent_t event = keyp->event;
 287               		.loc 1 99 41 is_stmt 0 view .LVU63
 288 0000 AF92      		push r10
 289               	.LCFI6:
 290               		.cfi_def_cfa_offset 3
 291               		.cfi_offset 10, -2
 292 0002 BF92      		push r11
 293               	.LCFI7:
 294               		.cfi_def_cfa_offset 4
 295               		.cfi_offset 11, -3
 296 0004 CF92      		push r12
 297               	.LCFI8:
 298               		.cfi_def_cfa_offset 5
 299               		.cfi_offset 12, -4
 300 0006 DF92      		push r13
 301               	.LCFI9:
 302               		.cfi_def_cfa_offset 6
 303               		.cfi_offset 13, -5
 304 0008 EF92      		push r14
 305               	.LCFI10:
 306               		.cfi_def_cfa_offset 7
 307               		.cfi_offset 14, -6
 308 000a FF92      		push r15
 309               	.LCFI11:
 310               		.cfi_def_cfa_offset 8
 311               		.cfi_offset 15, -7
 312 000c 0F93      		push r16
 313               	.LCFI12:
 314               		.cfi_def_cfa_offset 9
 315               		.cfi_offset 16, -8
 316 000e 1F93      		push r17
 317               	.LCFI13:
 318               		.cfi_def_cfa_offset 10
 319               		.cfi_offset 17, -9
 320 0010 CF93      		push r28
 321               	.LCFI14:
 322               		.cfi_def_cfa_offset 11
 323               		.cfi_offset 28, -10
 324 0012 DF93      		push r29
 325               	.LCFI15:
 326               		.cfi_def_cfa_offset 12
 327               		.cfi_offset 29, -11
 328 0014 CDB7      		in r28,__SP_L__
 329 0016 DEB7      		in r29,__SP_H__
 330               	.LCFI16:
 331               		.cfi_def_cfa_register 28
 332 0018 6197      		sbiw r28,17
 333               	.LCFI17:
 334               		.cfi_def_cfa_offset 29
 335 001a 0FB6      		in __tmp_reg__,__SREG__
 336 001c F894      		cli
 337 001e DEBF      		out __SP_H__,r29
 338 0020 0FBE      		out __SREG__,__tmp_reg__
 339 0022 CDBF      		out __SP_L__,r28
 340               	/* prologue: function */
 341               	/* frame size = 17 */
 342               	/* stack size = 27 */
 343               	.L__stack_usage = 27
 344 0024 8C01      		movw r16,r24
 100:tmk_core/common/action_tapping.c **** 
 345               		.loc 1 100 5 is_stmt 1 view .LVU64
 100:tmk_core/common/action_tapping.c **** 
 346               		.loc 1 100 16 is_stmt 0 view .LVU65
 347 0026 85E0      		ldi r24,lo8(5)
 348               	.LVL17:
 100:tmk_core/common/action_tapping.c **** 
 349               		.loc 1 100 16 view .LVU66
 350 0028 F801      		movw r30,r16
 351 002a DE01      		movw r26,r28
 352 002c 1D96      		adiw r26,13
 353               		0:
 354 002e 0190      		ld r0,Z+
 355 0030 0D92      		st X+,r0
 356 0032 8A95      		dec r24
 357 0034 01F4      		brne 0b
 358 0036 F801      		movw r30,r16
 359 0038 4081      		ld r20,Z
 360               	.LVL18:
 100:tmk_core/common/action_tapping.c **** 
 361               		.loc 1 100 16 view .LVU67
 362 003a 5181      		ldd r21,Z+1
 363               	.LVL19:
 100:tmk_core/common/action_tapping.c **** 
 364               		.loc 1 100 16 view .LVU68
 365 003c E280      		ldd r14,Z+2
 366               	.LVL20:
 103:tmk_core/common/action_tapping.c ****         if (WITHIN_TAPPING_TERM(event)) {
 367               		.loc 1 103 5 is_stmt 1 view .LVU69
 103:tmk_core/common/action_tapping.c ****         if (WITHIN_TAPPING_TERM(event)) {
 368               		.loc 1 103 9 is_stmt 0 view .LVU70
 369 003e 80E0      		ldi r24,lo8(tapping_key)
 370 0040 C82E      		mov r12,r24
 371 0042 80E0      		ldi r24,hi8(tapping_key)
 372 0044 D82E      		mov r13,r24
 373 0046 6091 0000 		lds r22,tapping_key+3
 374 004a 7091 0000 		lds r23,tapping_key+3+1
 375               	.LBB23:
 376               	.LBI23:
 377               		.loc 2 48 20 is_stmt 1 view .LVU71
 378               	.LBB24:
 379               		.loc 2 48 51 view .LVU72
 380               		.loc 2 48 74 is_stmt 0 view .LVU73
 381 004e 6115      		cp r22,__zero_reg__
 382 0050 7105      		cpc r23,__zero_reg__
 383 0052 01F4      		brne .+2
 384 0054 00C0      		rjmp .L23
 385               	.LBE24:
 386               	.LBE23:
 103:tmk_core/common/action_tapping.c ****         if (WITHIN_TAPPING_TERM(event)) {
 387               		.loc 1 103 9 view .LVU74
 388 0056 9091 0000 		lds r25,tapping_key
 389 005a 2091 0000 		lds r18,tapping_key+1
 390               	.LBB26:
 391               	.LBB25:
 392               		.loc 2 48 74 view .LVU75
 393 005e 892F      		mov r24,r25
 394 0060 8223      		and r24,r18
 395 0062 8F3F      		cpi r24,lo8(-1)
 396 0064 01F4      		brne .+2
 397 0066 00C0      		rjmp .L23
 398               	.LBE25:
 399               	.LBE26:
 100:tmk_core/common/action_tapping.c **** 
 400               		.loc 1 100 16 discriminator 1 view .LVU76
 401 0068 A380      		ldd r10,Z+3
 402 006a B480      		ldd r11,Z+4
 103:tmk_core/common/action_tapping.c ****         if (WITHIN_TAPPING_TERM(event)) {
 403               		.loc 1 103 9 discriminator 1 view .LVU77
 404 006c F090 0000 		lds r15,tapping_key+2
 405 0070 F501      		movw r30,r10
 406 0072 E61B      		sub r30,r22
 407 0074 F70B      		sbc r31,r23
 408 0076 FF20      		tst r15
 409 0078 01F4      		brne .+2
 410 007a 00C0      		rjmp .L24
 104:tmk_core/common/action_tapping.c ****             if (tapping_key.tap.count == 0) {
 411               		.loc 1 104 9 is_stmt 1 view .LVU78
 412 007c 8091 0000 		lds r24,tapping_key+5
 413 0080 382F      		mov r19,r24
 414 0082 307F      		andi r19,lo8(-16)
 104:tmk_core/common/action_tapping.c ****             if (tapping_key.tap.count == 0) {
 415               		.loc 1 104 12 is_stmt 0 view .LVU79
 416 0084 E436      		cpi r30,100
 417 0086 F105      		cpc r31,__zero_reg__
 418 0088 00F0      		brlo .+2
 419 008a 00C0      		rjmp .L25
 105:tmk_core/common/action_tapping.c ****                 if (IS_TAPPING_KEY(event.key) && !event.pressed) {
 420               		.loc 1 105 13 is_stmt 1 view .LVU80
 105:tmk_core/common/action_tapping.c ****                 if (IS_TAPPING_KEY(event.key) && !event.pressed) {
 421               		.loc 1 105 16 is_stmt 0 view .LVU81
 422 008c 3111      		cpse r19,__zero_reg__
 423 008e 00C0      		rjmp .L26
 106:tmk_core/common/action_tapping.c ****                     // first tap!
 424               		.loc 1 106 17 is_stmt 1 discriminator 1 view .LVU82
 425 0090 FE2C      		mov r15,r14
 106:tmk_core/common/action_tapping.c ****                     // first tap!
 426               		.loc 1 106 21 is_stmt 0 discriminator 1 view .LVU83
 427 0092 2513      		cpse r18,r21
 428 0094 00C0      		rjmp .L27
 106:tmk_core/common/action_tapping.c ****                     // first tap!
 429               		.loc 1 106 21 discriminator 2 view .LVU84
 430 0096 9413      		cpse r25,r20
 431 0098 00C0      		rjmp .L27
 106:tmk_core/common/action_tapping.c ****                     // first tap!
 432               		.loc 1 106 47 discriminator 3 view .LVU85
 433 009a E110      		cpse r14,__zero_reg__
 434 009c 00C0      		rjmp .L27
 108:tmk_core/common/action_tapping.c ****                     tapping_key.tap.count = 1;
 435               		.loc 1 108 57 is_stmt 1 view .LVU86
 109:tmk_core/common/action_tapping.c ****                     debug_tapping_key();
 436               		.loc 1 109 21 view .LVU87
 109:tmk_core/common/action_tapping.c ****                     debug_tapping_key();
 437               		.loc 1 109 43 is_stmt 0 view .LVU88
 438 009e 8F70      		andi r24,lo8(15)
 439 00a0 8061      		ori r24,lo8(16)
 440 00a2 8093 0000 		sts tapping_key+5,r24
 441               	.LVL21:
 110:tmk_core/common/action_tapping.c ****                     process_record(&tapping_key);
 442               		.loc 1 110 21 is_stmt 1 view .LVU89
 443 00a6 0E94 0000 		call debug_tapping_key
 444               	.LVL22:
 111:tmk_core/common/action_tapping.c **** 
 445               		.loc 1 111 21 view .LVU90
 446 00aa C601      		movw r24,r12
 447 00ac 0E94 0000 		call process_record
 448               	.LVL23:
 114:tmk_core/common/action_tapping.c ****                     // enqueue
 449               		.loc 1 114 21 view .LVU91
 114:tmk_core/common/action_tapping.c ****                     // enqueue
 450               		.loc 1 114 31 is_stmt 0 view .LVU92
 451 00b0 8091 0000 		lds r24,tapping_key+5
 452 00b4 F801      		movw r30,r16
 453 00b6 8583      		std Z+5,r24
 116:tmk_core/common/action_tapping.c ****                 }
 454               		.loc 1 116 21 is_stmt 1 view .LVU93
 455               	.LVL24:
 456               	.L22:
 311:tmk_core/common/action_tapping.c **** 
 457               		.loc 1 311 1 is_stmt 0 view .LVU94
 458 00b8 8F2D      		mov r24,r15
 459               	/* epilogue start */
 311:tmk_core/common/action_tapping.c **** 
 460               		.loc 1 311 1 view .LVU95
 461 00ba 6196      		adiw r28,17
 462 00bc 0FB6      		in __tmp_reg__,__SREG__
 463 00be F894      		cli
 464 00c0 DEBF      		out __SP_H__,r29
 465 00c2 0FBE      		out __SREG__,__tmp_reg__
 466 00c4 CDBF      		out __SP_L__,r28
 467 00c6 DF91      		pop r29
 468 00c8 CF91      		pop r28
 469 00ca 1F91      		pop r17
 470 00cc 0F91      		pop r16
 471               	.LVL25:
 311:tmk_core/common/action_tapping.c **** 
 472               		.loc 1 311 1 view .LVU96
 473 00ce FF90      		pop r15
 474 00d0 EF90      		pop r14
 475               	.LVL26:
 311:tmk_core/common/action_tapping.c **** 
 476               		.loc 1 311 1 view .LVU97
 477 00d2 DF90      		pop r13
 478 00d4 CF90      		pop r12
 479 00d6 BF90      		pop r11
 480 00d8 AF90      		pop r10
 481 00da 0895      		ret
 482               	.LVL27:
 483               	.L27:
 143:tmk_core/common/action_tapping.c ****                     // Modifier should be retained till end of this tapping.
 484               		.loc 1 143 22 is_stmt 1 view .LVU98
 485               	.LBB27:
 486               	.LBI27:
  49:tmk_core/common/keyboard.h **** static inline bool IS_PRESSED(keyevent_t event) { return (!IS_NOEVENT(event) && event.pressed); }
  50:tmk_core/common/keyboard.h **** static inline bool IS_RELEASED(keyevent_t event) { return (!IS_NOEVENT(event) && !event.pressed); }
 487               		.loc 2 50 20 view .LVU99
 488               	.LBB28:
 489               		.loc 2 50 52 view .LVU100
 490               	.LBB29:
 491               	.LBI29:
  48:tmk_core/common/keyboard.h **** static inline bool IS_PRESSED(keyevent_t event) { return (!IS_NOEVENT(event) && event.pressed); }
 492               		.loc 2 48 20 view .LVU101
 493               	.LBB30:
  48:tmk_core/common/keyboard.h **** static inline bool IS_PRESSED(keyevent_t event) { return (!IS_NOEVENT(event) && event.pressed); }
 494               		.loc 2 48 51 view .LVU102
  48:tmk_core/common/keyboard.h **** static inline bool IS_PRESSED(keyevent_t event) { return (!IS_NOEVENT(event) && event.pressed); }
 495               		.loc 2 48 74 is_stmt 0 view .LVU103
 496 00dc AB28      		or r10,r11
 497 00de 01F0      		breq .L52
 498 00e0 842F      		mov r24,r20
 499 00e2 8523      		and r24,r21
 500 00e4 8F3F      		cpi r24,lo8(-1)
 501 00e6 01F0      		breq .+2
 502 00e8 00C0      		rjmp .L30
 503               	.L52:
  48:tmk_core/common/keyboard.h **** static inline bool IS_PRESSED(keyevent_t event) { return (!IS_NOEVENT(event) && event.pressed); }
 504               		.loc 2 48 74 view .LVU104
 505               	.LBE30:
 506               	.LBE29:
 507               		.loc 2 50 79 view .LVU105
 508 00ea 80E0      		ldi r24,0
 509               	.L29:
 510               	.LVL28:
 511               		.loc 2 50 79 view .LVU106
 512               	.LBE28:
 513               	.LBE27:
 143:tmk_core/common/action_tapping.c ****                     // Modifier should be retained till end of this tapping.
 514               		.loc 1 143 25 view .LVU107
 515 00ec F82F      		mov r31,r24
 516 00ee F170      		andi r31,lo8(1)
 517 00f0 DF2E      		mov r13,r31
 518 00f2 80FF      		sbrs r24,0
 519 00f4 00C0      		rjmp .L31
 520               	.LBB32:
 521               	.LBI32:
 348:tmk_core/common/action_tapping.c ****     for (uint8_t i = waiting_buffer_tail; i != waiting_buffer_head; i = (i + 1) % WAITING_BUFFER_SI
 522               		.loc 1 348 6 is_stmt 1 discriminator 1 view .LVU108
 523               	.LBE32:
 349:tmk_core/common/action_tapping.c ****         if (KEYEQ(event.key, waiting_buffer[i].event.key) && event.pressed != waiting_buffer[i].eve
 524               		.loc 1 349 5 discriminator 1 view .LVU109
 525               	.LBB35:
 526               	.LBB33:
 349:tmk_core/common/action_tapping.c ****         if (KEYEQ(event.key, waiting_buffer[i].event.key) && event.pressed != waiting_buffer[i].eve
 527               		.loc 1 349 10 discriminator 1 view .LVU110
 349:tmk_core/common/action_tapping.c ****         if (KEYEQ(event.key, waiting_buffer[i].event.key) && event.pressed != waiting_buffer[i].eve
 528               		.loc 1 349 18 is_stmt 0 discriminator 1 view .LVU111
 529 00f6 8091 0000 		lds r24,waiting_buffer_tail
 530               	.LVL29:
 349:tmk_core/common/action_tapping.c ****         if (KEYEQ(event.key, waiting_buffer[i].event.key) && event.pressed != waiting_buffer[i].eve
 531               		.loc 1 349 45 discriminator 1 view .LVU112
 532 00fa 2091 0000 		lds r18,waiting_buffer_head
 350:tmk_core/common/action_tapping.c ****             return true;
 533               		.loc 1 350 13 discriminator 1 view .LVU113
 534 00fe 36E0      		ldi r19,lo8(6)
 535               	.LVL30:
 536               	.L32:
 349:tmk_core/common/action_tapping.c ****         if (KEYEQ(event.key, waiting_buffer[i].event.key) && event.pressed != waiting_buffer[i].eve
 537               		.loc 1 349 43 is_stmt 1 view .LVU114
 349:tmk_core/common/action_tapping.c ****         if (KEYEQ(event.key, waiting_buffer[i].event.key) && event.pressed != waiting_buffer[i].eve
 538               		.loc 1 349 5 is_stmt 0 view .LVU115
 539 0100 8213      		cpse r24,r18
 540 0102 00C0      		rjmp .L34
 541               	.LVL31:
 349:tmk_core/common/action_tapping.c ****         if (KEYEQ(event.key, waiting_buffer[i].event.key) && event.pressed != waiting_buffer[i].eve
 542               		.loc 1 349 5 view .LVU116
 543               	.LBE33:
 544               	.LBE35:
 545               	.LBB36:
 145:tmk_core/common/action_tapping.c ****                     switch (action.kind.id) {
 546               		.loc 1 145 21 is_stmt 1 view .LVU117
 145:tmk_core/common/action_tapping.c ****                     switch (action.kind.id) {
 547               		.loc 1 145 39 is_stmt 0 view .LVU118
 548 0104 4D87      		std Y+13,r20
 549 0106 5E87      		std Y+14,r21
 550 0108 8D85      		ldd r24,Y+13
 551 010a 9E85      		ldd r25,Y+14
 552 010c 0E94 0000 		call layer_switch_get_action
 553               	.LVL32:
 146:tmk_core/common/action_tapping.c ****                         case ACT_LMODS:
 554               		.loc 1 146 21 is_stmt 1 view .LVU119
 146:tmk_core/common/action_tapping.c ****                         case ACT_LMODS:
 555               		.loc 1 146 40 is_stmt 0 view .LVU120
 556 0110 292F      		mov r18,r25
 557 0112 2295      		swap r18
 558 0114 2F70      		andi r18,lo8(15)
 146:tmk_core/common/action_tapping.c ****                         case ACT_LMODS:
 559               		.loc 1 146 21 view .LVU121
 560 0116 2230      		cpi r18,lo8(2)
 561 0118 00F0      		brlo .L50
 146:tmk_core/common/action_tapping.c ****                         case ACT_LMODS:
 562               		.loc 1 146 21 view .LVU122
 563 011a 2430      		cpi r18,lo8(4)
 564 011c 00F4      		brsh .L38
 154:tmk_core/common/action_tapping.c ****                             if (IS_MOD(action.key.code)) return false;
 565               		.loc 1 154 29 is_stmt 1 view .LVU123
 154:tmk_core/common/action_tapping.c ****                             if (IS_MOD(action.key.code)) return false;
 566               		.loc 1 154 33 is_stmt 0 view .LVU124
 567 011e 9F70      		andi r25,lo8(15)
 568               	.LVL33:
 154:tmk_core/common/action_tapping.c ****                             if (IS_MOD(action.key.code)) return false;
 569               		.loc 1 154 32 view .LVU125
 570 0120 01F0      		breq .L39
 154:tmk_core/common/action_tapping.c ****                             if (IS_MOD(action.key.code)) return false;
 571               		.loc 1 154 68 discriminator 1 view .LVU126
 572 0122 F801      		movw r30,r16
 573 0124 9581      		ldd r25,Z+5
 574 0126 907F      		andi r25,lo8(-16)
 154:tmk_core/common/action_tapping.c ****                             if (IS_MOD(action.key.code)) return false;
 575               		.loc 1 154 49 discriminator 1 view .LVU127
 576 0128 01F4      		brne .L39
 577               	.LVL34:
 578               	.L56:
 149:tmk_core/common/action_tapping.c ****                             if (IS_MOD(action.key.code)) return false;
 579               		.loc 1 149 77 view .LVU128
 580 012a D12C      		mov r13,__zero_reg__
 581 012c 00C0      		rjmp .L37
 582               	.LVL35:
 583               	.L34:
 149:tmk_core/common/action_tapping.c ****                             if (IS_MOD(action.key.code)) return false;
 584               		.loc 1 149 77 view .LVU129
 585               	.LBE36:
 586               	.LBB37:
 587               	.LBB34:
 350:tmk_core/common/action_tapping.c ****             return true;
 588               		.loc 1 350 9 is_stmt 1 view .LVU130
 350:tmk_core/common/action_tapping.c ****             return true;
 589               		.loc 1 350 13 is_stmt 0 view .LVU131
 590 012e 90E0      		ldi r25,0
 591 0130 389F      		mul r19,r24
 592 0132 F001      		movw r30,r0
 593 0134 399F      		mul r19,r25
 594 0136 F00D      		add r31,r0
 595 0138 1124      		clr __zero_reg__
 596 013a E050      		subi r30,lo8(-(waiting_buffer))
 597 013c F040      		sbci r31,hi8(-(waiting_buffer))
 350:tmk_core/common/action_tapping.c ****             return true;
 598               		.loc 1 350 12 view .LVU132
 599 013e 6181      		ldd r22,Z+1
 600 0140 6513      		cpse r22,r21
 601 0142 00C0      		rjmp .L33
 350:tmk_core/common/action_tapping.c ****             return true;
 602               		.loc 1 350 13 view .LVU133
 603 0144 6081      		ld r22,Z
 604 0146 6413      		cpse r22,r20
 605 0148 00C0      		rjmp .L33
 350:tmk_core/common/action_tapping.c ****             return true;
 606               		.loc 1 350 59 view .LVU134
 607 014a 6281      		ldd r22,Z+2
 608 014c 6E11      		cpse r22,r14
 609 014e 00C0      		rjmp .L31
 610               	.L33:
 349:tmk_core/common/action_tapping.c ****         if (KEYEQ(event.key, waiting_buffer[i].event.key) && event.pressed != waiting_buffer[i].eve
 611               		.loc 1 349 69 is_stmt 1 view .LVU135
 349:tmk_core/common/action_tapping.c ****         if (KEYEQ(event.key, waiting_buffer[i].event.key) && event.pressed != waiting_buffer[i].eve
 612               		.loc 1 349 76 is_stmt 0 view .LVU136
 613 0150 0196      		adiw r24,1
 614               	.LVL36:
 349:tmk_core/common/action_tapping.c ****         if (KEYEQ(event.key, waiting_buffer[i].event.key) && event.pressed != waiting_buffer[i].eve
 615               		.loc 1 349 71 view .LVU137
 616 0152 8770      		andi r24,lo8(7)
 349:tmk_core/common/action_tapping.c ****         if (KEYEQ(event.key, waiting_buffer[i].event.key) && event.pressed != waiting_buffer[i].eve
 617               		.loc 1 349 71 view .LVU138
 618 0154 00C0      		rjmp .L32
 619               	.LVL37:
 620               	.L50:
 349:tmk_core/common/action_tapping.c ****         if (KEYEQ(event.key, waiting_buffer[i].event.key) && event.pressed != waiting_buffer[i].eve
 621               		.loc 1 349 71 view .LVU139
 622               	.LBE34:
 623               	.LBE37:
 624               	.LBB38:
 149:tmk_core/common/action_tapping.c ****                             if (IS_MOD(action.key.code)) return false;
 625               		.loc 1 149 29 is_stmt 1 view .LVU140
 149:tmk_core/common/action_tapping.c ****                             if (IS_MOD(action.key.code)) return false;
 626               		.loc 1 149 33 is_stmt 0 view .LVU141
 627 0156 9F70      		andi r25,lo8(15)
 628               	.LVL38:
 149:tmk_core/common/action_tapping.c ****                             if (IS_MOD(action.key.code)) return false;
 629               		.loc 1 149 32 view .LVU142
 630 0158 01F0      		breq .L39
 149:tmk_core/common/action_tapping.c ****                             if (IS_MOD(action.key.code)) return false;
 631               		.loc 1 149 49 discriminator 1 view .LVU143
 632 015a 8823      		tst r24
 633 015c 01F0      		breq .L56
 634               	.L39:
 155:tmk_core/common/action_tapping.c ****                             break;
 635               		.loc 1 155 29 is_stmt 1 view .LVU144
 155:tmk_core/common/action_tapping.c ****                             break;
 636               		.loc 1 155 33 is_stmt 0 view .LVU145
 637 015e 805E      		subi r24,lo8(-(32))
 638               	.LVL39:
 155:tmk_core/common/action_tapping.c ****                             break;
 639               		.loc 1 155 32 view .LVU146
 640 0160 8830      		cpi r24,lo8(8)
 641 0162 00F0      		brlo .L56
 642               	.LVL40:
 643               	.L38:
 159:tmk_core/common/action_tapping.c ****                     process_record(keyp);
 644               		.loc 1 159 86 is_stmt 1 view .LVU147
 160:tmk_core/common/action_tapping.c ****                     return true;
 645               		.loc 1 160 21 view .LVU148
 646 0164 C801      		movw r24,r16
 647               	.LVL41:
 160:tmk_core/common/action_tapping.c ****                     return true;
 648               		.loc 1 160 21 is_stmt 0 view .LVU149
 649 0166 0E94 0000 		call process_record
 650               	.LVL42:
 161:tmk_core/common/action_tapping.c ****                 } else {
 651               		.loc 1 161 21 is_stmt 1 view .LVU150
 652               	.L37:
 161:tmk_core/common/action_tapping.c ****                 } else {
 653               		.loc 1 161 21 is_stmt 0 view .LVU151
 654 016a FD2C      		mov r15,r13
 655 016c 00C0      		rjmp .L22
 656               	.LVL43:
 657               	.L31:
 161:tmk_core/common/action_tapping.c ****                 } else {
 658               		.loc 1 161 21 view .LVU152
 659               	.LBE38:
 164:tmk_core/common/action_tapping.c ****                         tapping_key.tap.interrupted = true;
 660               		.loc 1 164 21 is_stmt 1 view .LVU153
 164:tmk_core/common/action_tapping.c ****                         tapping_key.tap.interrupted = true;
 661               		.loc 1 164 24 is_stmt 0 view .LVU154
 662 016e EE20      		tst r14
 663 0170 01F4      		brne .+2
 664 0172 00C0      		rjmp .L22
 165:tmk_core/common/action_tapping.c ****                     }
 665               		.loc 1 165 25 is_stmt 1 view .LVU155
 165:tmk_core/common/action_tapping.c ****                     }
 666               		.loc 1 165 53 is_stmt 0 view .LVU156
 667 0174 8091 0000 		lds r24,tapping_key+5
 668 0178 8160      		ori r24,lo8(1<<0)
 669 017a 8093 0000 		sts tapping_key+5,r24
 670               	.LVL44:
 671               	.L100:
 212:tmk_core/common/action_tapping.c ****             } else {
 672               		.loc 1 212 17 is_stmt 1 view .LVU157
 212:tmk_core/common/action_tapping.c ****             } else {
 673               		.loc 1 212 24 is_stmt 0 view .LVU158
 674 017e F12C      		mov r15,__zero_reg__
 675 0180 00C0      		rjmp .L22
 676               	.LVL45:
 677               	.L26:
 173:tmk_core/common/action_tapping.c ****                     debug("Tapping: Tap release(");
 678               		.loc 1 173 17 is_stmt 1 discriminator 1 view .LVU159
 173:tmk_core/common/action_tapping.c ****                     debug("Tapping: Tap release(");
 679               		.loc 1 173 21 is_stmt 0 discriminator 1 view .LVU160
 680 0182 2513      		cpse r18,r21
 681 0184 00C0      		rjmp .L40
 173:tmk_core/common/action_tapping.c ****                     debug("Tapping: Tap release(");
 682               		.loc 1 173 21 discriminator 2 view .LVU161
 683 0186 9413      		cpse r25,r20
 684 0188 00C0      		rjmp .L40
 173:tmk_core/common/action_tapping.c ****                     debug("Tapping: Tap release(");
 685               		.loc 1 173 47 discriminator 3 view .LVU162
 686 018a E110      		cpse r14,__zero_reg__
 687 018c 00C0      		rjmp .L40
 174:tmk_core/common/action_tapping.c ****                     debug_dec(tapping_key.tap.count);
 688               		.loc 1 174 51 is_stmt 1 view .LVU163
 175:tmk_core/common/action_tapping.c ****                     debug(")\n");
 689               		.loc 1 175 53 view .LVU164
 176:tmk_core/common/action_tapping.c ****                     keyp->tap = tapping_key.tap;
 690               		.loc 1 176 33 view .LVU165
 177:tmk_core/common/action_tapping.c ****                     process_record(keyp);
 691               		.loc 1 177 21 view .LVU166
 177:tmk_core/common/action_tapping.c ****                     process_record(keyp);
 692               		.loc 1 177 31 is_stmt 0 view .LVU167
 693 018e F801      		movw r30,r16
 694 0190 8583      		std Z+5,r24
 178:tmk_core/common/action_tapping.c ****                     tapping_key = *keyp;
 695               		.loc 1 178 21 is_stmt 1 view .LVU168
 696 0192 C801      		movw r24,r16
 697 0194 0E94 0000 		call process_record
 698               	.LVL46:
 179:tmk_core/common/action_tapping.c ****                     debug_tapping_key();
 699               		.loc 1 179 21 view .LVU169
 179:tmk_core/common/action_tapping.c ****                     debug_tapping_key();
 700               		.loc 1 179 33 is_stmt 0 view .LVU170
 701 0198 86E0      		ldi r24,lo8(6)
 702 019a F801      		movw r30,r16
 703 019c A0E0      		ldi r26,lo8(tapping_key)
 704 019e B0E0      		ldi r27,hi8(tapping_key)
 705               		0:
 706 01a0 0190      		ld r0,Z+
 707 01a2 0D92      		st X+,r0
 708 01a4 8A95      		dec r24
 709 01a6 01F4      		brne 0b
 180:tmk_core/common/action_tapping.c ****                     return true;
 710               		.loc 1 180 21 is_stmt 1 view .LVU171
 711               	.LVL47:
 712               	.L99:
 304:tmk_core/common/action_tapping.c ****             return true;
 713               		.loc 1 304 13 view .LVU172
 714 01a8 0E94 0000 		call debug_tapping_key
 715               	.LVL48:
 305:tmk_core/common/action_tapping.c ****         } else {
 716               		.loc 1 305 13 view .LVU173
 305:tmk_core/common/action_tapping.c ****         } else {
 717               		.loc 1 305 20 is_stmt 0 view .LVU174
 718 01ac 00C0      		rjmp .L22
 719               	.LVL49:
 720               	.L40:
 182:tmk_core/common/action_tapping.c ****                     if (tapping_key.tap.count > 1) {
 721               		.loc 1 182 24 is_stmt 1 view .LVU175
 182:tmk_core/common/action_tapping.c ****                     if (tapping_key.tap.count > 1) {
 722               		.loc 1 182 28 is_stmt 0 view .LVU176
 723 01ae 4D87      		std Y+13,r20
 724 01b0 5E87      		std Y+14,r21
 725 01b2 8D85      		ldd r24,Y+13
 726 01b4 9E85      		ldd r25,Y+14
 727 01b6 0E94 0000 		call is_tap_key
 728               	.LVL50:
 182:tmk_core/common/action_tapping.c ****                     if (tapping_key.tap.count > 1) {
 729               		.loc 1 182 27 view .LVU177
 730 01ba 8823      		tst r24
 731 01bc 01F0      		breq .L48
 182:tmk_core/common/action_tapping.c ****                     if (tapping_key.tap.count > 1) {
 732               		.loc 1 182 50 discriminator 1 view .LVU178
 733 01be EE20      		tst r14
 734 01c0 01F0      		breq .L48
 183:tmk_core/common/action_tapping.c ****                         debug("Tapping: Start new tap with releasing last tap(>1).\n");
 735               		.loc 1 183 21 is_stmt 1 view .LVU179
 183:tmk_core/common/action_tapping.c ****                         debug("Tapping: Start new tap with releasing last tap(>1).\n");
 736               		.loc 1 183 40 is_stmt 0 view .LVU180
 737 01c2 8091 0000 		lds r24,tapping_key+5
 183:tmk_core/common/action_tapping.c ****                         debug("Tapping: Start new tap with releasing last tap(>1).\n");
 738               		.loc 1 183 24 view .LVU181
 739 01c6 8032      		cpi r24,lo8(32)
 740 01c8 00F0      		brlo .L43
 184:tmk_core/common/action_tapping.c ****                         // unregister key
 741               		.loc 1 184 87 is_stmt 1 view .LVU182
 186:tmk_core/common/action_tapping.c ****                     } else {
 742               		.loc 1 186 25 view .LVU183
 186:tmk_core/common/action_tapping.c ****                     } else {
 743               		.loc 1 186 54 is_stmt 0 view .LVU184
 744 01ca 2091 0000 		lds r18,tapping_key
 745 01ce 3091 0000 		lds r19,tapping_key+1
 746 01d2 3887      		std Y+8,r19
 747 01d4 2F83      		std Y+7,r18
 748 01d6 1986      		std Y+9,__zero_reg__
 749 01d8 BB86      		std Y+11,r11
 750 01da AA86      		std Y+10,r10
 751 01dc 8C87      		std Y+12,r24
 186:tmk_core/common/action_tapping.c ****                     } else {
 752               		.loc 1 186 25 view .LVU185
 753 01de CE01      		movw r24,r28
 754 01e0 0796      		adiw r24,7
 755               	.L98:
 186:tmk_core/common/action_tapping.c ****                     } else {
 756               		.loc 1 186 25 view .LVU186
 757 01e2 0E94 0000 		call process_record
 758               	.LVL51:
 759               	.L43:
 188:tmk_core/common/action_tapping.c ****                     }
 760               		.loc 1 188 69 is_stmt 1 view .LVU187
 190:tmk_core/common/action_tapping.c ****                     waiting_buffer_scan_tap();
 761               		.loc 1 190 21 view .LVU188
 190:tmk_core/common/action_tapping.c ****                     waiting_buffer_scan_tap();
 762               		.loc 1 190 33 is_stmt 0 view .LVU189
 763 01e6 86E0      		ldi r24,lo8(6)
 764 01e8 F801      		movw r30,r16
 765 01ea A0E0      		ldi r26,lo8(tapping_key)
 766 01ec B0E0      		ldi r27,hi8(tapping_key)
 767               		0:
 768 01ee 0190      		ld r0,Z+
 769 01f0 0D92      		st X+,r0
 770 01f2 8A95      		dec r24
 771 01f4 01F4      		brne 0b
 191:tmk_core/common/action_tapping.c ****                     debug_tapping_key();
 772               		.loc 1 191 21 is_stmt 1 view .LVU190
 773 01f6 0E94 0000 		call waiting_buffer_scan_tap
 774               	.LVL52:
 192:tmk_core/common/action_tapping.c ****                     return true;
 775               		.loc 1 192 21 view .LVU191
 776 01fa 0E94 0000 		call debug_tapping_key
 777               	.LVL53:
 193:tmk_core/common/action_tapping.c ****                 } else {
 778               		.loc 1 193 21 view .LVU192
 779               	.L101:
 199:tmk_core/common/action_tapping.c ****                 }
 780               		.loc 1 199 21 view .LVU193
 199:tmk_core/common/action_tapping.c ****                 }
 781               		.loc 1 199 28 is_stmt 0 view .LVU194
 782 01fe FF24      		clr r15
 783 0200 F394      		inc r15
 784 0202 00C0      		rjmp .L22
 785               	.L48:
 195:tmk_core/common/action_tapping.c ****                         debug("Tapping: key event while last tap(>0).\n");
 786               		.loc 1 195 21 is_stmt 1 view .LVU195
 196:tmk_core/common/action_tapping.c ****                     }
 787               		.loc 1 196 74 view .LVU196
 198:tmk_core/common/action_tapping.c ****                     return true;
 788               		.loc 1 198 21 view .LVU197
 789 0204 C801      		movw r24,r16
 790 0206 0E94 0000 		call process_record
 791               	.LVL54:
 792 020a 00C0      		rjmp .L101
 793               	.LVL55:
 794               	.L25:
 205:tmk_core/common/action_tapping.c ****                 debug("Tapping: End. Timeout. Not tap(0): ");
 795               		.loc 1 205 13 view .LVU198
 205:tmk_core/common/action_tapping.c ****                 debug("Tapping: End. Timeout. Not tap(0): ");
 796               		.loc 1 205 16 is_stmt 0 view .LVU199
 797 020c 3111      		cpse r19,__zero_reg__
 798 020e 00C0      		rjmp .L44
 206:tmk_core/common/action_tapping.c ****                 debug_event(event);
 799               		.loc 1 206 61 is_stmt 1 view .LVU200
 207:tmk_core/common/action_tapping.c ****                 debug("\n");
 800               		.loc 1 207 17 view .LVU201
 207:tmk_core/common/action_tapping.c ****                 debug("\n");
 801               		.loc 1 207 17 is_stmt 0 view .LVU202
 802 0210 7A2D      		mov r23,r10
 803 0212 B98A      		std Y+17,r11
 804 0214 A88A      		std Y+16,r10
 805 0216 6E2D      		mov r22,r14
 806 0218 8989      		ldd r24,Y+17
 807 021a 0E94 0000 		call debug_event
 808               	.LVL56:
 208:tmk_core/common/action_tapping.c ****                 process_record(&tapping_key);
 809               		.loc 1 208 28 is_stmt 1 view .LVU203
 209:tmk_core/common/action_tapping.c ****                 tapping_key = (keyrecord_t){};
 810               		.loc 1 209 17 view .LVU204
 811 021e 80E0      		ldi r24,lo8(tapping_key)
 812 0220 90E0      		ldi r25,hi8(tapping_key)
 813 0222 0E94 0000 		call process_record
 814               	.LVL57:
 210:tmk_core/common/action_tapping.c ****                 debug_tapping_key();
 815               		.loc 1 210 17 view .LVU205
 210:tmk_core/common/action_tapping.c ****                 debug_tapping_key();
 816               		.loc 1 210 29 is_stmt 0 view .LVU206
 817 0226 86E0      		ldi r24,lo8(6)
 818 0228 F601      		movw r30,r12
 819               		0:
 820 022a 1192      		st Z+,__zero_reg__
 821 022c 8A95      		dec r24
 822 022e 01F4      		brne 0b
 211:tmk_core/common/action_tapping.c ****                 return false;
 823               		.loc 1 211 17 is_stmt 1 view .LVU207
 824 0230 0E94 0000 		call debug_tapping_key
 825               	.LVL58:
 826 0234 00C0      		rjmp .L100
 827               	.LVL59:
 828               	.L44:
 214:tmk_core/common/action_tapping.c ****                     debug("Tapping: End. last timeout tap release(>0).");
 829               		.loc 1 214 17 discriminator 1 view .LVU208
 214:tmk_core/common/action_tapping.c ****                     debug("Tapping: End. last timeout tap release(>0).");
 830               		.loc 1 214 21 is_stmt 0 discriminator 1 view .LVU209
 831 0236 2513      		cpse r18,r21
 832 0238 00C0      		rjmp .L45
 214:tmk_core/common/action_tapping.c ****                     debug("Tapping: End. last timeout tap release(>0).");
 833               		.loc 1 214 21 discriminator 2 view .LVU210
 834 023a 9413      		cpse r25,r20
 835 023c 00C0      		rjmp .L45
 214:tmk_core/common/action_tapping.c ****                     debug("Tapping: End. last timeout tap release(>0).");
 836               		.loc 1 214 47 discriminator 3 view .LVU211
 837 023e E110      		cpse r14,__zero_reg__
 838 0240 00C0      		rjmp .L45
 215:tmk_core/common/action_tapping.c ****                     keyp->tap = tapping_key.tap;
 839               		.loc 1 215 73 is_stmt 1 view .LVU212
 216:tmk_core/common/action_tapping.c ****                     process_record(keyp);
 840               		.loc 1 216 21 view .LVU213
 216:tmk_core/common/action_tapping.c ****                     process_record(keyp);
 841               		.loc 1 216 31 is_stmt 0 view .LVU214
 842 0242 F801      		movw r30,r16
 843 0244 8583      		std Z+5,r24
 217:tmk_core/common/action_tapping.c ****                     tapping_key = (keyrecord_t){};
 844               		.loc 1 217 21 is_stmt 1 view .LVU215
 845 0246 C801      		movw r24,r16
 846 0248 0E94 0000 		call process_record
 847               	.LVL60:
 218:tmk_core/common/action_tapping.c ****                     return true;
 848               		.loc 1 218 21 view .LVU216
 218:tmk_core/common/action_tapping.c ****                     return true;
 849               		.loc 1 218 33 is_stmt 0 view .LVU217
 850 024c 86E0      		ldi r24,lo8(6)
 851 024e F601      		movw r30,r12
 852               		0:
 853 0250 1192      		st Z+,__zero_reg__
 854 0252 8A95      		dec r24
 855 0254 01F4      		brne 0b
 219:tmk_core/common/action_tapping.c ****                 } else if (is_tap_key(event.key) && event.pressed) {
 856               		.loc 1 219 21 is_stmt 1 view .LVU218
 219:tmk_core/common/action_tapping.c ****                 } else if (is_tap_key(event.key) && event.pressed) {
 857               		.loc 1 219 28 is_stmt 0 view .LVU219
 858 0256 00C0      		rjmp .L22
 859               	.LVL61:
 860               	.L45:
 220:tmk_core/common/action_tapping.c ****                     if (tapping_key.tap.count > 1) {
 861               		.loc 1 220 24 is_stmt 1 view .LVU220
 220:tmk_core/common/action_tapping.c ****                     if (tapping_key.tap.count > 1) {
 862               		.loc 1 220 28 is_stmt 0 view .LVU221
 863 0258 4D87      		std Y+13,r20
 864 025a 5E87      		std Y+14,r21
 865 025c 8D85      		ldd r24,Y+13
 866 025e 9E85      		ldd r25,Y+14
 867 0260 0E94 0000 		call is_tap_key
 868               	.LVL62:
 220:tmk_core/common/action_tapping.c ****                     if (tapping_key.tap.count > 1) {
 869               		.loc 1 220 27 view .LVU222
 870 0264 8823      		tst r24
 871 0266 01F0      		breq .L48
 220:tmk_core/common/action_tapping.c ****                     if (tapping_key.tap.count > 1) {
 872               		.loc 1 220 50 discriminator 1 view .LVU223
 873 0268 EE20      		tst r14
 874 026a 01F0      		breq .L48
 221:tmk_core/common/action_tapping.c ****                         debug("Tapping: Start new tap with releasing last timeout tap(>1).\n");
 875               		.loc 1 221 21 is_stmt 1 view .LVU224
 221:tmk_core/common/action_tapping.c ****                         debug("Tapping: Start new tap with releasing last timeout tap(>1).\n");
 876               		.loc 1 221 40 is_stmt 0 view .LVU225
 877 026c 8091 0000 		lds r24,tapping_key+5
 221:tmk_core/common/action_tapping.c ****                         debug("Tapping: Start new tap with releasing last timeout tap(>1).\n");
 878               		.loc 1 221 24 view .LVU226
 879 0270 8032      		cpi r24,lo8(32)
 880 0272 00F4      		brsh .+2
 881 0274 00C0      		rjmp .L43
 222:tmk_core/common/action_tapping.c ****                         // unregister key
 882               		.loc 1 222 95 is_stmt 1 view .LVU227
 224:tmk_core/common/action_tapping.c ****                     } else {
 883               		.loc 1 224 25 view .LVU228
 224:tmk_core/common/action_tapping.c ****                     } else {
 884               		.loc 1 224 54 is_stmt 0 view .LVU229
 885 0276 2091 0000 		lds r18,tapping_key
 886 027a 3091 0000 		lds r19,tapping_key+1
 887 027e 3A83      		std Y+2,r19
 888 0280 2983      		std Y+1,r18
 889 0282 1B82      		std Y+3,__zero_reg__
 890 0284 BD82      		std Y+5,r11
 891 0286 AC82      		std Y+4,r10
 892 0288 8E83      		std Y+6,r24
 224:tmk_core/common/action_tapping.c ****                     } else {
 893               		.loc 1 224 25 view .LVU230
 894 028a CE01      		movw r24,r28
 895 028c 0196      		adiw r24,1
 896 028e 00C0      		rjmp .L98
 897               	.LVL63:
 898               	.L24:
 241:tmk_core/common/action_tapping.c ****         if (WITHIN_TAPPING_TERM(event)) {
 899               		.loc 1 241 12 is_stmt 1 discriminator 1 view .LVU231
 242:tmk_core/common/action_tapping.c ****             if (event.pressed) {
 900               		.loc 1 242 9 discriminator 1 view .LVU232
 242:tmk_core/common/action_tapping.c ****             if (event.pressed) {
 901               		.loc 1 242 12 is_stmt 0 discriminator 1 view .LVU233
 902 0290 E436      		cpi r30,100
 903 0292 F105      		cpc r31,__zero_reg__
 904 0294 00F4      		brsh .L47
 243:tmk_core/common/action_tapping.c ****                 if (IS_TAPPING_KEY(event.key)) {
 905               		.loc 1 243 13 is_stmt 1 view .LVU234
 243:tmk_core/common/action_tapping.c ****                 if (IS_TAPPING_KEY(event.key)) {
 906               		.loc 1 243 22 is_stmt 0 view .LVU235
 907 0296 FE2C      		mov r15,r14
 243:tmk_core/common/action_tapping.c ****                 if (IS_TAPPING_KEY(event.key)) {
 908               		.loc 1 243 16 view .LVU236
 909 0298 EE20      		tst r14
 910 029a 01F4      		brne .+2
 911 029c 00C0      		rjmp .L48
 244:tmk_core/common/action_tapping.c **** //#    ifndef TAPPING_FORCE_HOLD
 912               		.loc 1 244 17 is_stmt 1 discriminator 1 view .LVU237
 244:tmk_core/common/action_tapping.c **** //#    ifndef TAPPING_FORCE_HOLD
 913               		.loc 1 244 21 is_stmt 0 discriminator 1 view .LVU238
 914 029e 2513      		cpse r18,r21
 915 02a0 00C0      		rjmp .L49
 244:tmk_core/common/action_tapping.c **** //#    ifndef TAPPING_FORCE_HOLD
 916               		.loc 1 244 21 discriminator 2 view .LVU239
 917 02a2 9413      		cpse r25,r20
 918 02a4 00C0      		rjmp .L49
 265:tmk_core/common/action_tapping.c ****                     return true;
 919               		.loc 1 265 21 is_stmt 1 view .LVU240
 265:tmk_core/common/action_tapping.c ****                     return true;
 920               		.loc 1 265 33 is_stmt 0 view .LVU241
 921 02a6 86E0      		ldi r24,lo8(6)
 922 02a8 F801      		movw r30,r16
 923 02aa A0E0      		ldi r26,lo8(tapping_key)
 924 02ac B0E0      		ldi r27,hi8(tapping_key)
 925               		0:
 926 02ae 0190      		ld r0,Z+
 927 02b0 0D92      		st X+,r0
 928 02b2 8A95      		dec r24
 929 02b4 01F4      		brne 0b
 266:tmk_core/common/action_tapping.c ****                 } else if (is_tap_key(event.key)) {
 930               		.loc 1 266 21 is_stmt 1 view .LVU242
 266:tmk_core/common/action_tapping.c ****                 } else if (is_tap_key(event.key)) {
 931               		.loc 1 266 28 is_stmt 0 view .LVU243
 932 02b6 00C0      		rjmp .L22
 933               	.L49:
 267:tmk_core/common/action_tapping.c ****                     // Sequential tap can be interfered with other tap key.
 934               		.loc 1 267 24 is_stmt 1 view .LVU244
 267:tmk_core/common/action_tapping.c ****                     // Sequential tap can be interfered with other tap key.
 935               		.loc 1 267 28 is_stmt 0 view .LVU245
 936 02b8 4D87      		std Y+13,r20
 937 02ba 5E87      		std Y+14,r21
 938 02bc 8D85      		ldd r24,Y+13
 939 02be 9E85      		ldd r25,Y+14
 940 02c0 0E94 0000 		call is_tap_key
 941               	.LVL64:
 267:tmk_core/common/action_tapping.c ****                     // Sequential tap can be interfered with other tap key.
 942               		.loc 1 267 27 view .LVU246
 943 02c4 8111      		cpse r24,__zero_reg__
 944 02c6 00C0      		rjmp .L43
 277:tmk_core/common/action_tapping.c ****                     process_record(keyp);
 945               		.loc 1 277 21 is_stmt 1 view .LVU247
 277:tmk_core/common/action_tapping.c ****                     process_record(keyp);
 946               		.loc 1 277 49 is_stmt 0 view .LVU248
 947 02c8 8091 0000 		lds r24,tapping_key+5
 948 02cc 8160      		ori r24,lo8(1<<0)
 949 02ce 8093 0000 		sts tapping_key+5,r24
 278:tmk_core/common/action_tapping.c ****                     return true;
 950               		.loc 1 278 21 is_stmt 1 view .LVU249
 951 02d2 C801      		movw r24,r16
 952 02d4 0E94 0000 		call process_record
 953               	.LVL65:
 279:tmk_core/common/action_tapping.c ****                 }
 954               		.loc 1 279 21 view .LVU250
 279:tmk_core/common/action_tapping.c ****                 }
 955               		.loc 1 279 28 is_stmt 0 view .LVU251
 956 02d8 00C0      		rjmp .L22
 957               	.LVL66:
 958               	.L47:
 289:tmk_core/common/action_tapping.c ****             debug_event(event);
 959               		.loc 1 289 70 is_stmt 1 view .LVU252
 290:tmk_core/common/action_tapping.c ****             debug("\n");
 960               		.loc 1 290 13 view .LVU253
 290:tmk_core/common/action_tapping.c ****             debug("\n");
 961               		.loc 1 290 13 is_stmt 0 view .LVU254
 962 02da 7A2D      		mov r23,r10
 963 02dc B98A      		std Y+17,r11
 964 02de A88A      		std Y+16,r10
 965 02e0 6E2D      		mov r22,r14
 966 02e2 8989      		ldd r24,Y+17
 967 02e4 0E94 0000 		call debug_event
 968               	.LVL67:
 291:tmk_core/common/action_tapping.c ****             tapping_key = (keyrecord_t){};
 969               		.loc 1 291 24 is_stmt 1 view .LVU255
 292:tmk_core/common/action_tapping.c ****             debug_tapping_key();
 970               		.loc 1 292 13 view .LVU256
 292:tmk_core/common/action_tapping.c ****             debug_tapping_key();
 971               		.loc 1 292 25 is_stmt 0 view .LVU257
 972 02e8 86E0      		ldi r24,lo8(6)
 973 02ea F601      		movw r30,r12
 974               		0:
 975 02ec 1192      		st Z+,__zero_reg__
 976 02ee 8A95      		dec r24
 977 02f0 01F4      		brne 0b
 293:tmk_core/common/action_tapping.c ****             return false;
 978               		.loc 1 293 13 is_stmt 1 view .LVU258
 979 02f2 00C0      		rjmp .L99
 980               	.LVL68:
 981               	.L23:
 299:tmk_core/common/action_tapping.c ****             debug("Tapping: Start(Press tap key).\n");
 982               		.loc 1 299 9 view .LVU259
 299:tmk_core/common/action_tapping.c ****             debug("Tapping: Start(Press tap key).\n");
 983               		.loc 1 299 12 is_stmt 0 view .LVU260
 984 02f4 EE20      		tst r14
 985 02f6 01F4      		brne .+2
 986 02f8 00C0      		rjmp .L48
 299:tmk_core/common/action_tapping.c ****             debug("Tapping: Start(Press tap key).\n");
 987               		.loc 1 299 30 discriminator 1 view .LVU261
 988 02fa 4D87      		std Y+13,r20
 989 02fc 5E87      		std Y+14,r21
 990 02fe 8D85      		ldd r24,Y+13
 991 0300 9E85      		ldd r25,Y+14
 992 0302 0E94 0000 		call is_tap_key
 993               	.LVL69:
 299:tmk_core/common/action_tapping.c ****             debug("Tapping: Start(Press tap key).\n");
 994               		.loc 1 299 30 discriminator 1 view .LVU262
 995 0306 F82E      		mov r15,r24
 299:tmk_core/common/action_tapping.c ****             debug("Tapping: Start(Press tap key).\n");
 996               		.loc 1 299 27 discriminator 1 view .LVU263
 997 0308 8823      		tst r24
 998 030a 01F4      		brne .+2
 999 030c 00C0      		rjmp .L48
 300:tmk_core/common/action_tapping.c ****             tapping_key = *keyp;
 1000               		.loc 1 300 54 is_stmt 1 view .LVU264
 301:tmk_core/common/action_tapping.c ****             process_record_tap_hint(&tapping_key);
 1001               		.loc 1 301 13 view .LVU265
 301:tmk_core/common/action_tapping.c ****             process_record_tap_hint(&tapping_key);
 1002               		.loc 1 301 25 is_stmt 0 view .LVU266
 1003 030e 86E0      		ldi r24,lo8(6)
 1004 0310 F801      		movw r30,r16
 1005 0312 A0E0      		ldi r26,lo8(tapping_key)
 1006 0314 B0E0      		ldi r27,hi8(tapping_key)
 1007               		0:
 1008 0316 0190      		ld r0,Z+
 1009 0318 0D92      		st X+,r0
 1010 031a 8A95      		dec r24
 1011 031c 01F4      		brne 0b
 302:tmk_core/common/action_tapping.c ****             waiting_buffer_scan_tap();
 1012               		.loc 1 302 13 is_stmt 1 view .LVU267
 1013 031e 80E0      		ldi r24,lo8(tapping_key)
 1014 0320 90E0      		ldi r25,hi8(tapping_key)
 1015 0322 0E94 0000 		call process_record_tap_hint
 1016               	.LVL70:
 303:tmk_core/common/action_tapping.c ****             debug_tapping_key();
 1017               		.loc 1 303 13 view .LVU268
 1018 0326 0E94 0000 		call waiting_buffer_scan_tap
 1019               	.LVL71:
 1020 032a 00C0      		rjmp .L99
 1021               	.LVL72:
 1022               	.L30:
 1023               	.LBB39:
 1024               	.LBB31:
 1025               		.loc 2 50 79 is_stmt 0 view .LVU269
 1026 032c 81E0      		ldi r24,lo8(1)
 1027 032e 8E25      		eor r24,r14
 1028 0330 00C0      		rjmp .L29
 1029               	.LBE31:
 1030               	.LBE39:
 1031               		.cfi_endproc
 1032               	.LFE6:
 1034               		.section	.text.get_tapping_term,"ax",@progbits
 1035               		.weak	get_tapping_term
 1037               	get_tapping_term:
 1038               	.LVL73:
 1039               	.LFB4:
  22:tmk_core/common/action_tapping.c **** 
 1040               		.loc 1 22 88 is_stmt 1 view -0
 1041               		.cfi_startproc
 1042               	/* prologue: function */
 1043               	/* frame size = 0 */
 1044               	/* stack size = 0 */
 1045               	.L__stack_usage = 0
  22:tmk_core/common/action_tapping.c **** 
 1046               		.loc 1 22 90 view .LVU271
  22:tmk_core/common/action_tapping.c **** 
 1047               		.loc 1 22 1 is_stmt 0 view .LVU272
 1048 0000 84E6      		ldi r24,lo8(100)
 1049 0002 90E0      		ldi r25,0
 1050               	.LVL74:
 1051               	/* epilogue start */
  22:tmk_core/common/action_tapping.c **** 
 1052               		.loc 1 22 1 view .LVU273
 1053 0004 0895      		ret
 1054               		.cfi_endproc
 1055               	.LFE4:
 1057               		.section	.text.action_tapping_process,"ax",@progbits
 1058               	.global	action_tapping_process
 1060               	action_tapping_process:
 1061               	.LFB5:
  56:tmk_core/common/action_tapping.c ****     if (process_tapping(&record)) {
 1062               		.loc 1 56 49 is_stmt 1 view -0
 1063               		.cfi_startproc
 1064 0000 1F93      		push r17
 1065               	.LCFI18:
 1066               		.cfi_def_cfa_offset 3
 1067               		.cfi_offset 17, -2
 1068 0002 CF93      		push r28
 1069               	.LCFI19:
 1070               		.cfi_def_cfa_offset 4
 1071               		.cfi_offset 28, -3
 1072 0004 DF93      		push r29
 1073               	.LCFI20:
 1074               		.cfi_def_cfa_offset 5
 1075               		.cfi_offset 29, -4
 1076 0006 CDB7      		in r28,__SP_L__
 1077 0008 DEB7      		in r29,__SP_H__
 1078               	.LCFI21:
 1079               		.cfi_def_cfa_register 28
 1080 000a 2C97      		sbiw r28,12
 1081               	.LCFI22:
 1082               		.cfi_def_cfa_offset 17
 1083 000c 0FB6      		in __tmp_reg__,__SREG__
 1084 000e F894      		cli
 1085 0010 DEBF      		out __SP_H__,r29
 1086 0012 0FBE      		out __SREG__,__tmp_reg__
 1087 0014 CDBF      		out __SP_L__,r28
 1088               	/* prologue: function */
 1089               	/* frame size = 12 */
 1090               	/* stack size = 15 */
 1091               	.L__stack_usage = 15
 1092 0016 4F83      		std Y+7,r20
 1093 0018 5887      		std Y+8,r21
 1094 001a 6987      		std Y+9,r22
 1095 001c 7A87      		std Y+10,r23
 1096 001e 8B87      		std Y+11,r24
 1097 0020 9C87      		std Y+12,r25
  57:tmk_core/common/action_tapping.c ****         if (!IS_NOEVENT(record.event)) {
 1098               		.loc 1 57 5 view .LVU275
  57:tmk_core/common/action_tapping.c ****         if (!IS_NOEVENT(record.event)) {
 1099               		.loc 1 57 9 is_stmt 0 view .LVU276
 1100 0022 CE01      		movw r24,r28
 1101 0024 0796      		adiw r24,7
 1102 0026 0E94 0000 		call process_tapping
 1103               	.LVL75:
  57:tmk_core/common/action_tapping.c ****         if (!IS_NOEVENT(record.event)) {
 1104               		.loc 1 57 8 view .LVU277
 1105 002a 8823      		tst r24
 1106 002c 01F0      		breq .L104
  58:tmk_core/common/action_tapping.c ****             debug("processed: ");
 1107               		.loc 1 58 9 is_stmt 1 view .LVU278
 1108               	.LBB48:
 1109               	.LBI48:
  48:tmk_core/common/keyboard.h **** static inline bool IS_PRESSED(keyevent_t event) { return (!IS_NOEVENT(event) && event.pressed); }
 1110               		.loc 2 48 20 view .LVU279
 1111               	.LBB49:
  48:tmk_core/common/keyboard.h **** static inline bool IS_PRESSED(keyevent_t event) { return (!IS_NOEVENT(event) && event.pressed); }
 1112               		.loc 2 48 51 view .LVU280
  48:tmk_core/common/keyboard.h **** static inline bool IS_PRESSED(keyevent_t event) { return (!IS_NOEVENT(event) && event.pressed); }
 1113               		.loc 2 48 74 is_stmt 0 view .LVU281
 1114 002e 8A85      		ldd r24,Y+10
 1115 0030 9B85      		ldd r25,Y+11
 1116 0032 892B      		or r24,r25
 1117 0034 01F0      		breq .L105
 1118 0036 4F81      		ldd r20,Y+7
 1119 0038 5885      		ldd r21,Y+8
 1120 003a 842F      		mov r24,r20
 1121 003c 8523      		and r24,r21
 1122 003e 8F3F      		cpi r24,lo8(-1)
 1123 0040 01F0      		breq .+2
 1124 0042 00C0      		rjmp .L127
 1125               	.L105:
 1126               	.LBE49:
 1127               	.LBE48:
  78:tmk_core/common/action_tapping.c ****             debug("processed: waiting_buffer[");
 1128               		.loc 1 78 13 discriminator 1 view .LVU282
 1129 0044 16E0      		ldi r17,lo8(6)
 1130 0046 00C0      		rjmp .L112
 1131               	.L104:
  64:tmk_core/common/action_tapping.c ****             // clear all in case of overflow.
 1132               		.loc 1 64 9 is_stmt 1 view .LVU283
 1133 0048 86E0      		ldi r24,lo8(6)
 1134 004a FE01      		movw r30,r28
 1135 004c 3796      		adiw r30,7
 1136 004e DE01      		movw r26,r28
 1137 0050 1196      		adiw r26,1
 1138               		0:
 1139 0052 0190      		ld r0,Z+
 1140 0054 0D92      		st X+,r0
 1141 0056 8A95      		dec r24
 1142 0058 01F4      		brne 0b
 1143               	.LVL76:
 1144               	.LBB50:
 1145               	.LBI50:
 317:tmk_core/common/action_tapping.c ****     if (IS_NOEVENT(record.event)) {
 1146               		.loc 1 317 6 view .LVU284
 1147               	.LBB51:
 318:tmk_core/common/action_tapping.c ****         return true;
 1148               		.loc 1 318 5 view .LVU285
 1149               	.LBB52:
 1150               	.LBI52:
  48:tmk_core/common/keyboard.h **** static inline bool IS_PRESSED(keyevent_t event) { return (!IS_NOEVENT(event) && event.pressed); }
 1151               		.loc 2 48 20 view .LVU286
 1152               	.LBB53:
  48:tmk_core/common/keyboard.h **** static inline bool IS_PRESSED(keyevent_t event) { return (!IS_NOEVENT(event) && event.pressed); }
 1153               		.loc 2 48 51 view .LVU287
  48:tmk_core/common/keyboard.h **** static inline bool IS_PRESSED(keyevent_t event) { return (!IS_NOEVENT(event) && event.pressed); }
 1154               		.loc 2 48 74 is_stmt 0 view .LVU288
 1155 005a 8A85      		ldd r24,Y+10
 1156 005c 9B85      		ldd r25,Y+11
 1157 005e 892B      		or r24,r25
 1158 0060 01F0      		breq .L105
 1159 0062 8F81      		ldd r24,Y+7
 1160 0064 9885      		ldd r25,Y+8
 1161 0066 8923      		and r24,r25
 1162 0068 8F3F      		cpi r24,lo8(-1)
 1163 006a 01F0      		breq .L105
 1164               	.LBE53:
 1165               	.LBE52:
 322:tmk_core/common/action_tapping.c ****         debug("waiting_buffer_enq: Over flow.\n");
 1166               		.loc 1 322 5 is_stmt 1 view .LVU289
 322:tmk_core/common/action_tapping.c ****         debug("waiting_buffer_enq: Over flow.\n");
 1167               		.loc 1 322 30 is_stmt 0 view .LVU290
 1168 006c 2091 0000 		lds r18,waiting_buffer_head
 1169 0070 30E0      		ldi r19,0
 1170 0072 C901      		movw r24,r18
 1171 0074 0196      		adiw r24,1
 322:tmk_core/common/action_tapping.c ****         debug("waiting_buffer_enq: Over flow.\n");
 1172               		.loc 1 322 35 view .LVU291
 1173 0076 8770      		andi r24,7
 1174 0078 9927      		clr r25
 322:tmk_core/common/action_tapping.c ****         debug("waiting_buffer_enq: Over flow.\n");
 1175               		.loc 1 322 57 view .LVU292
 1176 007a 4091 0000 		lds r20,waiting_buffer_tail
 322:tmk_core/common/action_tapping.c ****         debug("waiting_buffer_enq: Over flow.\n");
 1177               		.loc 1 322 8 view .LVU293
 1178 007e 4817      		cp r20,r24
 1179 0080 1906      		cpc __zero_reg__,r25
 1180 0082 01F4      		brne .L129
 1181               	.LVL77:
 322:tmk_core/common/action_tapping.c ****         debug("waiting_buffer_enq: Over flow.\n");
 1182               		.loc 1 322 8 view .LVU294
 1183               	.LBE51:
 1184               	.LBE50:
  66:tmk_core/common/action_tapping.c ****             clear_keyboard();
 1185               		.loc 1 66 50 is_stmt 1 view .LVU295
  67:tmk_core/common/action_tapping.c ****             waiting_buffer_clear();
 1186               		.loc 1 67 13 view .LVU296
 1187 0084 0E94 0000 		call clear_keyboard
 1188               	.LVL78:
  68:tmk_core/common/action_tapping.c ****             tapping_key = (keyrecord_t){};
 1189               		.loc 1 68 13 view .LVU297
 1190               	.LBB55:
 1191               	.LBI55:
 339:tmk_core/common/action_tapping.c ****     waiting_buffer_head = 0;
 1192               		.loc 1 339 6 view .LVU298
 1193               	.LBB56:
 340:tmk_core/common/action_tapping.c ****     waiting_buffer_tail = 0;
 1194               		.loc 1 340 5 view .LVU299
 340:tmk_core/common/action_tapping.c ****     waiting_buffer_tail = 0;
 1195               		.loc 1 340 25 is_stmt 0 view .LVU300
 1196 0088 1092 0000 		sts waiting_buffer_head,__zero_reg__
 341:tmk_core/common/action_tapping.c **** }
 1197               		.loc 1 341 5 is_stmt 1 view .LVU301
 341:tmk_core/common/action_tapping.c **** }
 1198               		.loc 1 341 25 is_stmt 0 view .LVU302
 1199 008c 1092 0000 		sts waiting_buffer_tail,__zero_reg__
 1200               	.LBE56:
 1201               	.LBE55:
  69:tmk_core/common/action_tapping.c ****         }
 1202               		.loc 1 69 13 is_stmt 1 view .LVU303
  69:tmk_core/common/action_tapping.c ****         }
 1203               		.loc 1 69 25 is_stmt 0 view .LVU304
 1204 0090 86E0      		ldi r24,lo8(6)
 1205 0092 E0E0      		ldi r30,lo8(tapping_key)
 1206 0094 F0E0      		ldi r31,hi8(tapping_key)
 1207 0096 DF01      		movw r26,r30
 1208               		0:
 1209 0098 1D92      		st X+,__zero_reg__
 1210 009a 8A95      		dec r24
 1211 009c 01F4      		brne 0b
 1212 009e 00C0      		rjmp .L105
 1213               	.LVL79:
 1214               	.L129:
 1215               	.LBB57:
 1216               	.LBB54:
 327:tmk_core/common/action_tapping.c ****     waiting_buffer_head                 = (waiting_buffer_head + 1) % WAITING_BUFFER_SIZE;
 1217               		.loc 1 327 5 is_stmt 1 view .LVU305
 327:tmk_core/common/action_tapping.c ****     waiting_buffer_head                 = (waiting_buffer_head + 1) % WAITING_BUFFER_SIZE;
 1218               		.loc 1 327 41 is_stmt 0 view .LVU306
 1219 00a0 96E0      		ldi r25,lo8(6)
 1220               	.LVL80:
 327:tmk_core/common/action_tapping.c ****     waiting_buffer_head                 = (waiting_buffer_head + 1) % WAITING_BUFFER_SIZE;
 1221               		.loc 1 327 41 view .LVU307
 1222 00a2 929F      		mul r25,r18
 1223 00a4 D001      		movw r26,r0
 1224 00a6 939F      		mul r25,r19
 1225 00a8 B00D      		add r27,r0
 1226 00aa 1124      		clr __zero_reg__
 1227 00ac A050      		subi r26,lo8(-(waiting_buffer))
 1228 00ae B040      		sbci r27,hi8(-(waiting_buffer))
 1229 00b0 FE01      		movw r30,r28
 1230 00b2 3196      		adiw r30,1
 1231               		0:
 1232 00b4 0190      		ld r0,Z+
 1233 00b6 0D92      		st X+,r0
 1234 00b8 9A95      		dec r25
 1235 00ba 01F4      		brne 0b
 328:tmk_core/common/action_tapping.c **** 
 1236               		.loc 1 328 5 is_stmt 1 view .LVU308
 328:tmk_core/common/action_tapping.c **** 
 1237               		.loc 1 328 41 is_stmt 0 view .LVU309
 1238 00bc 8093 0000 		sts waiting_buffer_head,r24
 330:tmk_core/common/action_tapping.c ****     debug_waiting_buffer();
 1239               		.loc 1 330 34 is_stmt 1 view .LVU310
 331:tmk_core/common/action_tapping.c ****     return true;
 1240               		.loc 1 331 5 view .LVU311
 1241 00c0 0E94 0000 		call debug_waiting_buffer
 1242               	.LVL81:
 332:tmk_core/common/action_tapping.c **** }
 1243               		.loc 1 332 5 view .LVU312
 332:tmk_core/common/action_tapping.c **** }
 1244               		.loc 1 332 5 is_stmt 0 view .LVU313
 1245 00c4 00C0      		rjmp .L105
 1246               	.L110:
 332:tmk_core/common/action_tapping.c **** }
 1247               		.loc 1 332 5 view .LVU314
 1248               	.LBE54:
 1249               	.LBE57:
  78:tmk_core/common/action_tapping.c ****             debug("processed: waiting_buffer[");
 1250               		.loc 1 78 9 is_stmt 1 view .LVU315
  78:tmk_core/common/action_tapping.c ****             debug("processed: waiting_buffer[");
 1251               		.loc 1 78 13 is_stmt 0 view .LVU316
 1252 00c6 819F      		mul r24,r17
 1253 00c8 C001      		movw r24,r0
 1254 00ca 1124      		clr __zero_reg__
 1255 00cc 8050      		subi r24,lo8(-(waiting_buffer))
 1256 00ce 9040      		sbci r25,hi8(-(waiting_buffer))
 1257 00d0 0E94 0000 		call process_tapping
 1258               	.LVL82:
  78:tmk_core/common/action_tapping.c ****             debug("processed: waiting_buffer[");
 1259               		.loc 1 78 12 view .LVU317
 1260 00d4 8823      		tst r24
 1261 00d6 01F0      		breq .L103
  79:tmk_core/common/action_tapping.c ****             debug_dec(waiting_buffer_tail);
 1262               		.loc 1 79 48 is_stmt 1 view .LVU318
  80:tmk_core/common/action_tapping.c ****             debug("] = ");
 1263               		.loc 1 80 43 view .LVU319
  81:tmk_core/common/action_tapping.c ****             debug_record(waiting_buffer[waiting_buffer_tail]);
 1264               		.loc 1 81 26 view .LVU320
  82:tmk_core/common/action_tapping.c ****             debug("\n\n");
 1265               		.loc 1 82 13 view .LVU321
 1266 00d8 E091 0000 		lds r30,waiting_buffer_tail
 1267 00dc 1E9F      		mul r17,r30
 1268 00de F001      		movw r30,r0
 1269 00e0 1124      		clr __zero_reg__
 1270 00e2 E050      		subi r30,lo8(-(waiting_buffer))
 1271 00e4 F040      		sbci r31,hi8(-(waiting_buffer))
 1272 00e6 4081      		ld r20,Z
 1273 00e8 5181      		ldd r21,Z+1
 1274 00ea 6281      		ldd r22,Z+2
 1275 00ec 7381      		ldd r23,Z+3
 1276 00ee 8481      		ldd r24,Z+4
 1277 00f0 9581      		ldd r25,Z+5
 1278 00f2 0E94 0000 		call debug_record
 1279               	.LVL83:
  83:tmk_core/common/action_tapping.c ****         } else {
 1280               		.loc 1 83 26 view .LVU322
  77:tmk_core/common/action_tapping.c ****         if (process_tapping(&waiting_buffer[waiting_buffer_tail])) {
 1281               		.loc 1 77 56 view .LVU323
  77:tmk_core/common/action_tapping.c ****         if (process_tapping(&waiting_buffer[waiting_buffer_tail])) {
 1282               		.loc 1 77 99 is_stmt 0 view .LVU324
 1283 00f6 8091 0000 		lds r24,waiting_buffer_tail
 1284 00fa 90E0      		ldi r25,0
 1285 00fc 0196      		adiw r24,1
  77:tmk_core/common/action_tapping.c ****         if (process_tapping(&waiting_buffer[waiting_buffer_tail])) {
 1286               		.loc 1 77 104 view .LVU325
 1287 00fe 8770      		andi r24,7
 1288 0100 9927      		clr r25
  77:tmk_core/common/action_tapping.c ****         if (process_tapping(&waiting_buffer[waiting_buffer_tail])) {
 1289               		.loc 1 77 76 view .LVU326
 1290 0102 8093 0000 		sts waiting_buffer_tail,r24
 1291               	.L112:
  77:tmk_core/common/action_tapping.c ****         if (process_tapping(&waiting_buffer[waiting_buffer_tail])) {
 1292               		.loc 1 77 12 is_stmt 1 discriminator 1 view .LVU327
  77:tmk_core/common/action_tapping.c ****         if (process_tapping(&waiting_buffer[waiting_buffer_tail])) {
 1293               		.loc 1 77 32 is_stmt 0 discriminator 1 view .LVU328
 1294 0106 8091 0000 		lds r24,waiting_buffer_tail
  77:tmk_core/common/action_tapping.c ****         if (process_tapping(&waiting_buffer[waiting_buffer_tail])) {
 1295               		.loc 1 77 5 discriminator 1 view .LVU329
 1296 010a 9091 0000 		lds r25,waiting_buffer_head
 1297 010e 8913      		cpse r24,r25
 1298 0110 00C0      		rjmp .L110
 1299               	.L103:
 1300               	/* epilogue start */
  91:tmk_core/common/action_tapping.c **** 
 1301               		.loc 1 91 1 view .LVU330
 1302 0112 2C96      		adiw r28,12
 1303 0114 0FB6      		in __tmp_reg__,__SREG__
 1304 0116 F894      		cli
 1305 0118 DEBF      		out __SP_H__,r29
 1306 011a 0FBE      		out __SREG__,__tmp_reg__
 1307 011c CDBF      		out __SP_L__,r28
 1308 011e DF91      		pop r29
 1309 0120 CF91      		pop r28
 1310 0122 1F91      		pop r17
 1311 0124 0895      		ret
 1312               	.L127:
  59:tmk_core/common/action_tapping.c ****             debug_record(record);
 1313               		.loc 1 59 33 is_stmt 1 view .LVU331
  60:tmk_core/common/action_tapping.c ****             debug("\n");
 1314               		.loc 1 60 13 view .LVU332
 1315 0126 6985      		ldd r22,Y+9
 1316 0128 7A85      		ldd r23,Y+10
 1317 012a 8B85      		ldd r24,Y+11
 1318 012c 9C85      		ldd r25,Y+12
 1319 012e 0E94 0000 		call debug_record
 1320               	.LVL84:
 1321 0132 00C0      		rjmp .L105
 1322               		.cfi_endproc
 1323               	.LFE5:
 1325               		.section	.bss.waiting_buffer_tail,"aw",@nobits
 1328               	waiting_buffer_tail:
 1329 0000 00        		.zero	1
 1330               		.section	.bss.waiting_buffer_head,"aw",@nobits
 1333               	waiting_buffer_head:
 1334 0000 00        		.zero	1
 1335               		.section	.bss.waiting_buffer,"aw",@nobits
 1338               	waiting_buffer:
 1339 0000 0000 0000 		.zero	48
 1339      0000 0000 
 1339      0000 0000 
 1339      0000 0000 
 1339      0000 0000 
 1340               		.section	.bss.tapping_key,"aw",@nobits
 1343               	tapping_key:
 1344 0000 0000 0000 		.zero	6
 1344      0000 
 1345               		.text
 1346               	.Letext0:
 1347               		.file 3 "/usr/local/Cellar/avr-gcc@8/8.4.0_2/avr/include/stdint.h"
 1348               		.file 4 "tmk_core/common/keycode.h"
 1349               		.file 5 "tmk_core/common/action_code.h"
 1350               		.file 6 "tmk_core/common/action.h"
 1351               		.file 7 "tmk_core/common/action_layer.h"
 1352               		.file 8 "tmk_core/common/timer.h"
 1353               		.file 9 "tmk_core/common/debug.h"