   1               		.file	"rgblight.c"
   2               	__SP_H__ = 0x3e
   3               	__SP_L__ = 0x3d
   4               	__SREG__ = 0x3f
   5               	__tmp_reg__ = 0
   6               	__zero_reg__ = 1
   7               		.text
   8               	.Ltext0:
   9               		.cfi_sections	.debug_frame
  10               		.section	.text.rgblight_effect_dummy,"ax",@progbits
  12               	rgblight_effect_dummy:
  13               	.LVL0:
  14               	.LFB171:
  15               		.file 1 "quantum/rgblight.c"
   1:quantum/rgblight.c **** /* Copyright 2016-2017 Yang Liu
   2:quantum/rgblight.c ****  *
   3:quantum/rgblight.c ****  * This program is free software: you can redistribute it and/or modify
   4:quantum/rgblight.c ****  * it under the terms of the GNU General Public License as published by
   5:quantum/rgblight.c ****  * the Free Software Foundation, either version 2 of the License, or
   6:quantum/rgblight.c ****  * (at your option) any later version.
   7:quantum/rgblight.c ****  *
   8:quantum/rgblight.c ****  * This program is distributed in the hope that it will be useful,
   9:quantum/rgblight.c ****  * but WITHOUT ANY WARRANTY; without even the implied warranty of
  10:quantum/rgblight.c ****  * MERCHANTABILITY or FITNESS FOR A PARTICULAR PURPOSE.  See the
  11:quantum/rgblight.c ****  * GNU General Public License for more details.
  12:quantum/rgblight.c ****  *
  13:quantum/rgblight.c ****  * You should have received a copy of the GNU General Public License
  14:quantum/rgblight.c ****  * along with this program.  If not, see <http://www.gnu.org/licenses/>.
  15:quantum/rgblight.c ****  */
  16:quantum/rgblight.c **** #include <math.h>
  17:quantum/rgblight.c **** #include <string.h>
  18:quantum/rgblight.c **** #include <stdlib.h>
  19:quantum/rgblight.c **** #ifdef __AVR__
  20:quantum/rgblight.c **** #    include <avr/eeprom.h>
  21:quantum/rgblight.c **** #    include <avr/interrupt.h>
  22:quantum/rgblight.c **** #endif
  23:quantum/rgblight.c **** #ifdef EEPROM_ENABLE
  24:quantum/rgblight.c **** #    include "eeprom.h"
  25:quantum/rgblight.c **** #endif
  26:quantum/rgblight.c **** #ifdef STM32_EEPROM_ENABLE
  27:quantum/rgblight.c **** #    include "hal.h"
  28:quantum/rgblight.c **** #    include "eeprom_stm32.h"
  29:quantum/rgblight.c **** #endif
  30:quantum/rgblight.c **** #include "wait.h"
  31:quantum/rgblight.c **** #include "progmem.h"
  32:quantum/rgblight.c **** #include "timer.h"
  33:quantum/rgblight.c **** #include "rgblight.h"
  34:quantum/rgblight.c **** #include "color.h"
  35:quantum/rgblight.c **** #include "debug.h"
  36:quantum/rgblight.c **** #include "led_tables.h"
  37:quantum/rgblight.c **** #include "lib/lib8tion/lib8tion.h"
  38:quantum/rgblight.c **** #ifdef VELOCIKEY_ENABLE
  39:quantum/rgblight.c **** #    include "velocikey.h"
  40:quantum/rgblight.c **** #endif
  41:quantum/rgblight.c **** 
  42:quantum/rgblight.c **** #ifndef MIN
  43:quantum/rgblight.c **** #    define MIN(a, b) (((a) < (b)) ? (a) : (b))
  44:quantum/rgblight.c **** #endif
  45:quantum/rgblight.c **** 
  46:quantum/rgblight.c **** #ifdef RGBLIGHT_SPLIT
  47:quantum/rgblight.c **** /* for split keyboard */
  48:quantum/rgblight.c **** #    define RGBLIGHT_SPLIT_SET_CHANGE_MODE rgblight_status.change_flags |= RGBLIGHT_STATUS_CHANGE_M
  49:quantum/rgblight.c **** #    define RGBLIGHT_SPLIT_SET_CHANGE_HSVS rgblight_status.change_flags |= RGBLIGHT_STATUS_CHANGE_H
  50:quantum/rgblight.c **** #    define RGBLIGHT_SPLIT_SET_CHANGE_MODEHSVS rgblight_status.change_flags |= (RGBLIGHT_STATUS_CHA
  51:quantum/rgblight.c **** #    define RGBLIGHT_SPLIT_SET_CHANGE_LAYERS rgblight_status.change_flags |= RGBLIGHT_STATUS_CHANGE
  52:quantum/rgblight.c **** #    define RGBLIGHT_SPLIT_SET_CHANGE_TIMER_ENABLE rgblight_status.change_flags |= RGBLIGHT_STATUS_
  53:quantum/rgblight.c **** #    define RGBLIGHT_SPLIT_ANIMATION_TICK rgblight_status.change_flags |= RGBLIGHT_STATUS_ANIMATION
  54:quantum/rgblight.c **** #else
  55:quantum/rgblight.c **** #    define RGBLIGHT_SPLIT_SET_CHANGE_MODE
  56:quantum/rgblight.c **** #    define RGBLIGHT_SPLIT_SET_CHANGE_HSVS
  57:quantum/rgblight.c **** #    define RGBLIGHT_SPLIT_SET_CHANGE_MODEHSVS
  58:quantum/rgblight.c **** #    define RGBLIGHT_SPLIT_SET_CHANGE_LAYERS
  59:quantum/rgblight.c **** #    define RGBLIGHT_SPLIT_SET_CHANGE_TIMER_ENABLE
  60:quantum/rgblight.c **** #    define RGBLIGHT_SPLIT_ANIMATION_TICK
  61:quantum/rgblight.c **** #endif
  62:quantum/rgblight.c **** 
  63:quantum/rgblight.c **** #define _RGBM_SINGLE_STATIC(sym) RGBLIGHT_MODE_##sym,
  64:quantum/rgblight.c **** #define _RGBM_SINGLE_DYNAMIC(sym)
  65:quantum/rgblight.c **** #define _RGBM_MULTI_STATIC(sym) RGBLIGHT_MODE_##sym,
  66:quantum/rgblight.c **** #define _RGBM_MULTI_DYNAMIC(sym)
  67:quantum/rgblight.c **** #define _RGBM_TMP_STATIC(sym, msym) RGBLIGHT_MODE_##sym,
  68:quantum/rgblight.c **** #define _RGBM_TMP_DYNAMIC(sym, msym)
  69:quantum/rgblight.c **** static uint8_t static_effect_table[] = {
  70:quantum/rgblight.c **** #include "rgblight_modes.h"
  71:quantum/rgblight.c **** };
  72:quantum/rgblight.c **** 
  73:quantum/rgblight.c **** #define _RGBM_SINGLE_STATIC(sym) RGBLIGHT_MODE_##sym,
  74:quantum/rgblight.c **** #define _RGBM_SINGLE_DYNAMIC(sym) RGBLIGHT_MODE_##sym,
  75:quantum/rgblight.c **** #define _RGBM_MULTI_STATIC(sym) RGBLIGHT_MODE_##sym,
  76:quantum/rgblight.c **** #define _RGBM_MULTI_DYNAMIC(sym) RGBLIGHT_MODE_##sym,
  77:quantum/rgblight.c **** #define _RGBM_TMP_STATIC(sym, msym) RGBLIGHT_MODE_##msym,
  78:quantum/rgblight.c **** #define _RGBM_TMP_DYNAMIC(sym, msym) RGBLIGHT_MODE_##msym,
  79:quantum/rgblight.c **** static uint8_t mode_base_table[] = {
  80:quantum/rgblight.c ****     0,  // RGBLIGHT_MODE_zero
  81:quantum/rgblight.c **** #include "rgblight_modes.h"
  82:quantum/rgblight.c **** };
  83:quantum/rgblight.c **** 
  84:quantum/rgblight.c **** static inline int is_static_effect(uint8_t mode) { return memchr(static_effect_table, mode, sizeof(
  85:quantum/rgblight.c **** 
  86:quantum/rgblight.c **** #ifdef RGBLIGHT_LED_MAP
  87:quantum/rgblight.c **** const uint8_t led_map[] PROGMEM = RGBLIGHT_LED_MAP;
  88:quantum/rgblight.c **** #endif
  89:quantum/rgblight.c **** 
  90:quantum/rgblight.c **** #ifdef RGBLIGHT_EFFECT_STATIC_GRADIENT
  91:quantum/rgblight.c **** __attribute__((weak)) const uint8_t RGBLED_GRADIENT_RANGES[] PROGMEM = {255, 170, 127, 85, 64};
  92:quantum/rgblight.c **** #endif
  93:quantum/rgblight.c **** 
  94:quantum/rgblight.c **** rgblight_config_t rgblight_config;
  95:quantum/rgblight.c **** rgblight_status_t rgblight_status         = {.timer_enabled = false};
  96:quantum/rgblight.c **** bool              is_rgblight_initialized = false;
  97:quantum/rgblight.c **** 
  98:quantum/rgblight.c **** #ifdef RGBLIGHT_USE_TIMER
  99:quantum/rgblight.c **** animation_status_t animation_status = {};
 100:quantum/rgblight.c **** #endif
 101:quantum/rgblight.c **** 
 102:quantum/rgblight.c **** #ifndef LED_ARRAY
 103:quantum/rgblight.c **** LED_TYPE led[RGBLED_NUM];
 104:quantum/rgblight.c **** #    define LED_ARRAY led
 105:quantum/rgblight.c **** #endif
 106:quantum/rgblight.c **** 
 107:quantum/rgblight.c **** #ifdef RGBLIGHT_LAYERS
 108:quantum/rgblight.c **** rgblight_segment_t const *const *rgblight_layers = NULL;
 109:quantum/rgblight.c **** #endif
 110:quantum/rgblight.c **** 
 111:quantum/rgblight.c **** rgblight_ranges_t rgblight_ranges = {0, RGBLED_NUM, 0, RGBLED_NUM, RGBLED_NUM};
 112:quantum/rgblight.c **** 
 113:quantum/rgblight.c **** void rgblight_set_clipping_range(uint8_t start_pos, uint8_t num_leds) {
 114:quantum/rgblight.c ****     rgblight_ranges.clipping_start_pos = start_pos;
 115:quantum/rgblight.c ****     rgblight_ranges.clipping_num_leds  = num_leds;
 116:quantum/rgblight.c **** }
 117:quantum/rgblight.c **** 
 118:quantum/rgblight.c **** void rgblight_set_effect_range(uint8_t start_pos, uint8_t num_leds) {
 119:quantum/rgblight.c ****     if (start_pos >= RGBLED_NUM) return;
 120:quantum/rgblight.c ****     if (start_pos + num_leds > RGBLED_NUM) return;
 121:quantum/rgblight.c ****     rgblight_ranges.effect_start_pos = start_pos;
 122:quantum/rgblight.c ****     rgblight_ranges.effect_end_pos   = start_pos + num_leds;
 123:quantum/rgblight.c ****     rgblight_ranges.effect_num_leds  = num_leds;
 124:quantum/rgblight.c **** }
 125:quantum/rgblight.c **** 
 126:quantum/rgblight.c **** __attribute__((weak)) RGB rgblight_hsv_to_rgb(HSV hsv) { return hsv_to_rgb(hsv); }
 127:quantum/rgblight.c **** 
 128:quantum/rgblight.c **** void sethsv_raw(uint8_t hue, uint8_t sat, uint8_t val, LED_TYPE *led1) {
 129:quantum/rgblight.c ****     HSV hsv = {hue, sat, val};
 130:quantum/rgblight.c ****     RGB rgb = rgblight_hsv_to_rgb(hsv);
 131:quantum/rgblight.c ****     setrgb(rgb.r, rgb.g, rgb.b, led1);
 132:quantum/rgblight.c **** }
 133:quantum/rgblight.c **** 
 134:quantum/rgblight.c **** void sethsv(uint8_t hue, uint8_t sat, uint8_t val, LED_TYPE *led1) { sethsv_raw(hue, sat, val > RGB
 135:quantum/rgblight.c **** 
 136:quantum/rgblight.c **** void setrgb(uint8_t r, uint8_t g, uint8_t b, LED_TYPE *led1) {
 137:quantum/rgblight.c ****     led1->r = r;
 138:quantum/rgblight.c ****     led1->g = g;
 139:quantum/rgblight.c ****     led1->b = b;
 140:quantum/rgblight.c **** #ifdef RGBW
 141:quantum/rgblight.c ****     led1->w = 0;
 142:quantum/rgblight.c **** #endif
 143:quantum/rgblight.c **** }
 144:quantum/rgblight.c **** 
 145:quantum/rgblight.c **** void rgblight_check_config(void) {
 146:quantum/rgblight.c ****     /* Add some out of bound checks for RGB light config */
 147:quantum/rgblight.c **** 
 148:quantum/rgblight.c ****     if (rgblight_config.mode < RGBLIGHT_MODE_STATIC_LIGHT) {
 149:quantum/rgblight.c ****         rgblight_config.mode = RGBLIGHT_MODE_STATIC_LIGHT;
 150:quantum/rgblight.c ****     } else if (rgblight_config.mode > RGBLIGHT_MODES) {
 151:quantum/rgblight.c ****         rgblight_config.mode = RGBLIGHT_MODES;
 152:quantum/rgblight.c ****     }
 153:quantum/rgblight.c **** 
 154:quantum/rgblight.c ****     if (rgblight_config.val > RGBLIGHT_LIMIT_VAL) {
 155:quantum/rgblight.c ****         rgblight_config.val = RGBLIGHT_LIMIT_VAL;
 156:quantum/rgblight.c ****     }
 157:quantum/rgblight.c **** }
 158:quantum/rgblight.c **** 
 159:quantum/rgblight.c **** uint32_t eeconfig_read_rgblight(void) {
 160:quantum/rgblight.c **** #ifdef EEPROM_ENABLE
 161:quantum/rgblight.c ****     return eeprom_read_dword(EECONFIG_RGBLIGHT);
 162:quantum/rgblight.c **** #else
 163:quantum/rgblight.c ****     return 0;
 164:quantum/rgblight.c **** #endif
 165:quantum/rgblight.c **** }
 166:quantum/rgblight.c **** 
 167:quantum/rgblight.c **** void eeconfig_update_rgblight(uint32_t val) {
 168:quantum/rgblight.c **** #ifdef EEPROM_ENABLE
 169:quantum/rgblight.c ****     rgblight_check_config();
 170:quantum/rgblight.c ****     eeprom_update_dword(EECONFIG_RGBLIGHT, val);
 171:quantum/rgblight.c **** #endif
 172:quantum/rgblight.c **** }
 173:quantum/rgblight.c **** 
 174:quantum/rgblight.c **** void eeconfig_update_rgblight_current(void) { eeconfig_update_rgblight(rgblight_config.raw); }
 175:quantum/rgblight.c **** 
 176:quantum/rgblight.c **** void eeconfig_update_rgblight_default(void) {
 177:quantum/rgblight.c ****     rgblight_config.enable = 1;
 178:quantum/rgblight.c ****     rgblight_config.mode   = RGBLIGHT_MODE_STATIC_LIGHT;
 179:quantum/rgblight.c ****     rgblight_config.hue    = 0;
 180:quantum/rgblight.c ****     rgblight_config.sat    = UINT8_MAX;
 181:quantum/rgblight.c ****     rgblight_config.val    = RGBLIGHT_LIMIT_VAL;
 182:quantum/rgblight.c ****     rgblight_config.speed  = 0;
 183:quantum/rgblight.c ****     RGBLIGHT_SPLIT_SET_CHANGE_MODEHSVS;
 184:quantum/rgblight.c ****     eeconfig_update_rgblight(rgblight_config.raw);
 185:quantum/rgblight.c **** }
 186:quantum/rgblight.c **** 
 187:quantum/rgblight.c **** void eeconfig_debug_rgblight(void) {
 188:quantum/rgblight.c ****     dprintf("rgblight_config EEPROM:\n");
 189:quantum/rgblight.c ****     dprintf("rgblight_config.enable = %d\n", rgblight_config.enable);
 190:quantum/rgblight.c ****     dprintf("rghlight_config.mode = %d\n", rgblight_config.mode);
 191:quantum/rgblight.c ****     dprintf("rgblight_config.hue = %d\n", rgblight_config.hue);
 192:quantum/rgblight.c ****     dprintf("rgblight_config.sat = %d\n", rgblight_config.sat);
 193:quantum/rgblight.c ****     dprintf("rgblight_config.val = %d\n", rgblight_config.val);
 194:quantum/rgblight.c ****     dprintf("rgblight_config.speed = %d\n", rgblight_config.speed);
 195:quantum/rgblight.c **** }
 196:quantum/rgblight.c **** 
 197:quantum/rgblight.c **** void rgblight_init(void) {
 198:quantum/rgblight.c ****     /* if already initialized, don't do it again.
 199:quantum/rgblight.c ****        If you must do it again, extern this and set to false, first.
 200:quantum/rgblight.c ****        This is a dirty, dirty hack until proper hooks can be added for keyboard startup. */
 201:quantum/rgblight.c ****     if (is_rgblight_initialized) {
 202:quantum/rgblight.c ****         return;
 203:quantum/rgblight.c ****     }
 204:quantum/rgblight.c **** 
 205:quantum/rgblight.c ****     dprintf("rgblight_init called.\n");
 206:quantum/rgblight.c ****     dprintf("rgblight_init start!\n");
 207:quantum/rgblight.c ****     if (!eeconfig_is_enabled()) {
 208:quantum/rgblight.c ****         dprintf("rgblight_init eeconfig is not enabled.\n");
 209:quantum/rgblight.c ****         eeconfig_init();
 210:quantum/rgblight.c ****         eeconfig_update_rgblight_default();
 211:quantum/rgblight.c ****     }
 212:quantum/rgblight.c ****     rgblight_config.raw = eeconfig_read_rgblight();
 213:quantum/rgblight.c ****     RGBLIGHT_SPLIT_SET_CHANGE_MODEHSVS;
 214:quantum/rgblight.c ****     if (!rgblight_config.mode) {
 215:quantum/rgblight.c ****         dprintf("rgblight_init rgblight_config.mode = 0. Write default values to EEPROM.\n");
 216:quantum/rgblight.c ****         eeconfig_update_rgblight_default();
 217:quantum/rgblight.c ****         rgblight_config.raw = eeconfig_read_rgblight();
 218:quantum/rgblight.c ****     }
 219:quantum/rgblight.c ****     rgblight_check_config();
 220:quantum/rgblight.c **** 
 221:quantum/rgblight.c ****     eeconfig_debug_rgblight();  // display current eeprom values
 222:quantum/rgblight.c **** 
 223:quantum/rgblight.c ****     rgblight_timer_init();  // setup the timer
 224:quantum/rgblight.c **** 
 225:quantum/rgblight.c ****     if (rgblight_config.enable) {
 226:quantum/rgblight.c ****         rgblight_mode_noeeprom(rgblight_config.mode);
 227:quantum/rgblight.c ****     }
 228:quantum/rgblight.c **** 
 229:quantum/rgblight.c ****     is_rgblight_initialized = true;
 230:quantum/rgblight.c **** }
 231:quantum/rgblight.c **** 
 232:quantum/rgblight.c **** uint32_t rgblight_read_dword(void) { return rgblight_config.raw; }
 233:quantum/rgblight.c **** 
 234:quantum/rgblight.c **** void rgblight_update_dword(uint32_t dword) {
 235:quantum/rgblight.c ****     RGBLIGHT_SPLIT_SET_CHANGE_MODEHSVS;
 236:quantum/rgblight.c ****     rgblight_config.raw = dword;
 237:quantum/rgblight.c ****     if (rgblight_config.enable)
 238:quantum/rgblight.c ****         rgblight_mode_noeeprom(rgblight_config.mode);
 239:quantum/rgblight.c ****     else {
 240:quantum/rgblight.c ****         rgblight_timer_disable();
 241:quantum/rgblight.c ****         rgblight_set();
 242:quantum/rgblight.c ****     }
 243:quantum/rgblight.c **** }
 244:quantum/rgblight.c **** 
 245:quantum/rgblight.c **** void rgblight_increase(void) {
 246:quantum/rgblight.c ****     uint8_t mode = 0;
 247:quantum/rgblight.c ****     if (rgblight_config.mode < RGBLIGHT_MODES) {
 248:quantum/rgblight.c ****         mode = rgblight_config.mode + 1;
 249:quantum/rgblight.c ****     }
 250:quantum/rgblight.c ****     rgblight_mode(mode);
 251:quantum/rgblight.c **** }
 252:quantum/rgblight.c **** void rgblight_decrease(void) {
 253:quantum/rgblight.c ****     uint8_t mode = 0;
 254:quantum/rgblight.c ****     // Mode will never be < 1. If it ever is, eeprom needs to be initialized.
 255:quantum/rgblight.c ****     if (rgblight_config.mode > RGBLIGHT_MODE_STATIC_LIGHT) {
 256:quantum/rgblight.c ****         mode = rgblight_config.mode - 1;
 257:quantum/rgblight.c ****     }
 258:quantum/rgblight.c ****     rgblight_mode(mode);
 259:quantum/rgblight.c **** }
 260:quantum/rgblight.c **** void rgblight_step_helper(bool write_to_eeprom) {
 261:quantum/rgblight.c ****     uint8_t mode = 0;
 262:quantum/rgblight.c ****     mode         = rgblight_config.mode + 1;
 263:quantum/rgblight.c ****     if (mode > RGBLIGHT_MODES) {
 264:quantum/rgblight.c ****         mode = 1;
 265:quantum/rgblight.c ****     }
 266:quantum/rgblight.c ****     rgblight_mode_eeprom_helper(mode, write_to_eeprom);
 267:quantum/rgblight.c **** }
 268:quantum/rgblight.c **** void rgblight_step_noeeprom(void) { rgblight_step_helper(false); }
 269:quantum/rgblight.c **** void rgblight_step(void) { rgblight_step_helper(true); }
 270:quantum/rgblight.c **** void rgblight_step_reverse_helper(bool write_to_eeprom) {
 271:quantum/rgblight.c ****     uint8_t mode = 0;
 272:quantum/rgblight.c ****     mode         = rgblight_config.mode - 1;
 273:quantum/rgblight.c ****     if (mode < 1) {
 274:quantum/rgblight.c ****         mode = RGBLIGHT_MODES;
 275:quantum/rgblight.c ****     }
 276:quantum/rgblight.c ****     rgblight_mode_eeprom_helper(mode, write_to_eeprom);
 277:quantum/rgblight.c **** }
 278:quantum/rgblight.c **** void rgblight_step_reverse_noeeprom(void) { rgblight_step_reverse_helper(false); }
 279:quantum/rgblight.c **** void rgblight_step_reverse(void) { rgblight_step_reverse_helper(true); }
 280:quantum/rgblight.c **** 
 281:quantum/rgblight.c **** uint8_t rgblight_get_mode(void) {
 282:quantum/rgblight.c ****     if (!rgblight_config.enable) {
 283:quantum/rgblight.c ****         return false;
 284:quantum/rgblight.c ****     }
 285:quantum/rgblight.c **** 
 286:quantum/rgblight.c ****     return rgblight_config.mode;
 287:quantum/rgblight.c **** }
 288:quantum/rgblight.c **** 
 289:quantum/rgblight.c **** void rgblight_mode_eeprom_helper(uint8_t mode, bool write_to_eeprom) {
 290:quantum/rgblight.c ****     if (!rgblight_config.enable) {
 291:quantum/rgblight.c ****         return;
 292:quantum/rgblight.c ****     }
 293:quantum/rgblight.c ****     if (mode < RGBLIGHT_MODE_STATIC_LIGHT) {
 294:quantum/rgblight.c ****         rgblight_config.mode = RGBLIGHT_MODE_STATIC_LIGHT;
 295:quantum/rgblight.c ****     } else if (mode > RGBLIGHT_MODES) {
 296:quantum/rgblight.c ****         rgblight_config.mode = RGBLIGHT_MODES;
 297:quantum/rgblight.c ****     } else {
 298:quantum/rgblight.c ****         rgblight_config.mode = mode;
 299:quantum/rgblight.c ****     }
 300:quantum/rgblight.c ****     RGBLIGHT_SPLIT_SET_CHANGE_MODE;
 301:quantum/rgblight.c ****     if (write_to_eeprom) {
 302:quantum/rgblight.c ****         eeconfig_update_rgblight(rgblight_config.raw);
 303:quantum/rgblight.c ****         dprintf("rgblight mode [EEPROM]: %u\n", rgblight_config.mode);
 304:quantum/rgblight.c ****     } else {
 305:quantum/rgblight.c ****         dprintf("rgblight mode [NOEEPROM]: %u\n", rgblight_config.mode);
 306:quantum/rgblight.c ****     }
 307:quantum/rgblight.c ****     if (is_static_effect(rgblight_config.mode)) {
 308:quantum/rgblight.c ****         rgblight_timer_disable();
 309:quantum/rgblight.c ****     } else {
 310:quantum/rgblight.c ****         rgblight_timer_enable();
 311:quantum/rgblight.c ****     }
 312:quantum/rgblight.c **** #ifdef RGBLIGHT_USE_TIMER
 313:quantum/rgblight.c ****     animation_status.restart = true;
 314:quantum/rgblight.c **** #endif
 315:quantum/rgblight.c ****     rgblight_sethsv_noeeprom(rgblight_config.hue, rgblight_config.sat, rgblight_config.val);
 316:quantum/rgblight.c **** }
 317:quantum/rgblight.c **** 
 318:quantum/rgblight.c **** void rgblight_mode(uint8_t mode) { rgblight_mode_eeprom_helper(mode, true); }
 319:quantum/rgblight.c **** 
 320:quantum/rgblight.c **** void rgblight_mode_noeeprom(uint8_t mode) { rgblight_mode_eeprom_helper(mode, false); }
 321:quantum/rgblight.c **** 
 322:quantum/rgblight.c **** void rgblight_toggle(void) {
 323:quantum/rgblight.c ****     dprintf("rgblight toggle [EEPROM]: rgblight_config.enable = %u\n", !rgblight_config.enable);
 324:quantum/rgblight.c ****     if (rgblight_config.enable) {
 325:quantum/rgblight.c ****         rgblight_disable();
 326:quantum/rgblight.c ****     } else {
 327:quantum/rgblight.c ****         rgblight_enable();
 328:quantum/rgblight.c ****     }
 329:quantum/rgblight.c **** }
 330:quantum/rgblight.c **** 
 331:quantum/rgblight.c **** void rgblight_toggle_noeeprom(void) {
 332:quantum/rgblight.c ****     dprintf("rgblight toggle [NOEEPROM]: rgblight_config.enable = %u\n", !rgblight_config.enable);
 333:quantum/rgblight.c ****     if (rgblight_config.enable) {
 334:quantum/rgblight.c ****         rgblight_disable_noeeprom();
 335:quantum/rgblight.c ****     } else {
 336:quantum/rgblight.c ****         rgblight_enable_noeeprom();
 337:quantum/rgblight.c ****     }
 338:quantum/rgblight.c **** }
 339:quantum/rgblight.c **** 
 340:quantum/rgblight.c **** void rgblight_enable(void) {
 341:quantum/rgblight.c ****     rgblight_config.enable = 1;
 342:quantum/rgblight.c ****     // No need to update EEPROM here. rgblight_mode() will do that, actually
 343:quantum/rgblight.c ****     // eeconfig_update_rgblight(rgblight_config.raw);
 344:quantum/rgblight.c ****     dprintf("rgblight enable [EEPROM]: rgblight_config.enable = %u\n", rgblight_config.enable);
 345:quantum/rgblight.c ****     rgblight_mode(rgblight_config.mode);
 346:quantum/rgblight.c **** }
 347:quantum/rgblight.c **** 
 348:quantum/rgblight.c **** void rgblight_enable_noeeprom(void) {
 349:quantum/rgblight.c ****     rgblight_config.enable = 1;
 350:quantum/rgblight.c ****     dprintf("rgblight enable [NOEEPROM]: rgblight_config.enable = %u\n", rgblight_config.enable);
 351:quantum/rgblight.c ****     rgblight_mode_noeeprom(rgblight_config.mode);
 352:quantum/rgblight.c **** }
 353:quantum/rgblight.c **** 
 354:quantum/rgblight.c **** void rgblight_disable(void) {
 355:quantum/rgblight.c ****     rgblight_config.enable = 0;
 356:quantum/rgblight.c ****     eeconfig_update_rgblight(rgblight_config.raw);
 357:quantum/rgblight.c ****     dprintf("rgblight disable [EEPROM]: rgblight_config.enable = %u\n", rgblight_config.enable);
 358:quantum/rgblight.c ****     rgblight_timer_disable();
 359:quantum/rgblight.c ****     RGBLIGHT_SPLIT_SET_CHANGE_MODE;
 360:quantum/rgblight.c ****     wait_ms(50);
 361:quantum/rgblight.c ****     rgblight_set();
 362:quantum/rgblight.c **** }
 363:quantum/rgblight.c **** 
 364:quantum/rgblight.c **** void rgblight_disable_noeeprom(void) {
 365:quantum/rgblight.c ****     rgblight_config.enable = 0;
 366:quantum/rgblight.c ****     dprintf("rgblight disable [NOEEPROM]: rgblight_config.enable = %u\n", rgblight_config.enable);
 367:quantum/rgblight.c ****     rgblight_timer_disable();
 368:quantum/rgblight.c ****     RGBLIGHT_SPLIT_SET_CHANGE_MODE;
 369:quantum/rgblight.c ****     wait_ms(50);
 370:quantum/rgblight.c ****     rgblight_set();
 371:quantum/rgblight.c **** }
 372:quantum/rgblight.c **** 
 373:quantum/rgblight.c **** bool rgblight_is_enabled(void) { return rgblight_config.enable; }
 374:quantum/rgblight.c **** 
 375:quantum/rgblight.c **** void rgblight_increase_hue_helper(bool write_to_eeprom) {
 376:quantum/rgblight.c ****     uint8_t hue = rgblight_config.hue + RGBLIGHT_HUE_STEP;
 377:quantum/rgblight.c ****     rgblight_sethsv_eeprom_helper(hue, rgblight_config.sat, rgblight_config.val, write_to_eeprom);
 378:quantum/rgblight.c **** }
 379:quantum/rgblight.c **** void rgblight_increase_hue_noeeprom(void) { rgblight_increase_hue_helper(false); }
 380:quantum/rgblight.c **** void rgblight_increase_hue(void) { rgblight_increase_hue_helper(true); }
 381:quantum/rgblight.c **** void rgblight_decrease_hue_helper(bool write_to_eeprom) {
 382:quantum/rgblight.c ****     uint8_t hue = rgblight_config.hue - RGBLIGHT_HUE_STEP;
 383:quantum/rgblight.c ****     rgblight_sethsv_eeprom_helper(hue, rgblight_config.sat, rgblight_config.val, write_to_eeprom);
 384:quantum/rgblight.c **** }
 385:quantum/rgblight.c **** void rgblight_decrease_hue_noeeprom(void) { rgblight_decrease_hue_helper(false); }
 386:quantum/rgblight.c **** void rgblight_decrease_hue(void) { rgblight_decrease_hue_helper(true); }
 387:quantum/rgblight.c **** void rgblight_increase_sat_helper(bool write_to_eeprom) {
 388:quantum/rgblight.c ****     uint8_t sat = qadd8(rgblight_config.sat, RGBLIGHT_SAT_STEP);
 389:quantum/rgblight.c ****     rgblight_sethsv_eeprom_helper(rgblight_config.hue, sat, rgblight_config.val, write_to_eeprom);
 390:quantum/rgblight.c **** }
 391:quantum/rgblight.c **** void rgblight_increase_sat_noeeprom(void) { rgblight_increase_sat_helper(false); }
 392:quantum/rgblight.c **** void rgblight_increase_sat(void) { rgblight_increase_sat_helper(true); }
 393:quantum/rgblight.c **** void rgblight_decrease_sat_helper(bool write_to_eeprom) {
 394:quantum/rgblight.c ****     uint8_t sat = qsub8(rgblight_config.sat, RGBLIGHT_SAT_STEP);
 395:quantum/rgblight.c ****     rgblight_sethsv_eeprom_helper(rgblight_config.hue, sat, rgblight_config.val, write_to_eeprom);
 396:quantum/rgblight.c **** }
 397:quantum/rgblight.c **** void rgblight_decrease_sat_noeeprom(void) { rgblight_decrease_sat_helper(false); }
 398:quantum/rgblight.c **** void rgblight_decrease_sat(void) { rgblight_decrease_sat_helper(true); }
 399:quantum/rgblight.c **** void rgblight_increase_val_helper(bool write_to_eeprom) {
 400:quantum/rgblight.c ****     uint8_t val = qadd8(rgblight_config.val, RGBLIGHT_VAL_STEP);
 401:quantum/rgblight.c ****     rgblight_sethsv_eeprom_helper(rgblight_config.hue, rgblight_config.sat, val, write_to_eeprom);
 402:quantum/rgblight.c **** }
 403:quantum/rgblight.c **** void rgblight_increase_val_noeeprom(void) { rgblight_increase_val_helper(false); }
 404:quantum/rgblight.c **** void rgblight_increase_val(void) { rgblight_increase_val_helper(true); }
 405:quantum/rgblight.c **** void rgblight_decrease_val_helper(bool write_to_eeprom) {
 406:quantum/rgblight.c ****     uint8_t val = qsub8(rgblight_config.val, RGBLIGHT_VAL_STEP);
 407:quantum/rgblight.c ****     rgblight_sethsv_eeprom_helper(rgblight_config.hue, rgblight_config.sat, val, write_to_eeprom);
 408:quantum/rgblight.c **** }
 409:quantum/rgblight.c **** void rgblight_decrease_val_noeeprom(void) { rgblight_decrease_val_helper(false); }
 410:quantum/rgblight.c **** void rgblight_decrease_val(void) { rgblight_decrease_val_helper(true); }
 411:quantum/rgblight.c **** 
 412:quantum/rgblight.c **** void rgblight_increase_speed_helper(bool write_to_eeprom) {
 413:quantum/rgblight.c ****     if (rgblight_config.speed < 3) rgblight_config.speed++;
 414:quantum/rgblight.c ****     // RGBLIGHT_SPLIT_SET_CHANGE_HSVS; // NEED?
 415:quantum/rgblight.c ****     if (write_to_eeprom) {
 416:quantum/rgblight.c ****         eeconfig_update_rgblight(rgblight_config.raw);  // EECONFIG needs to be increased to suppor
 417:quantum/rgblight.c ****     }
 418:quantum/rgblight.c **** }
 419:quantum/rgblight.c **** void rgblight_increase_speed(void) { rgblight_increase_speed_helper(true); }
 420:quantum/rgblight.c **** void rgblight_increase_speed_noeeprom(void) { rgblight_increase_speed_helper(false); }
 421:quantum/rgblight.c **** 
 422:quantum/rgblight.c **** void rgblight_decrease_speed_helper(bool write_to_eeprom) {
 423:quantum/rgblight.c ****     if (rgblight_config.speed > 0) rgblight_config.speed--;
 424:quantum/rgblight.c ****     // RGBLIGHT_SPLIT_SET_CHANGE_HSVS; // NEED??
 425:quantum/rgblight.c ****     if (write_to_eeprom) {
 426:quantum/rgblight.c ****         eeconfig_update_rgblight(rgblight_config.raw);  // EECONFIG needs to be increased to suppor
 427:quantum/rgblight.c ****     }
 428:quantum/rgblight.c **** }
 429:quantum/rgblight.c **** void rgblight_decrease_speed(void) { rgblight_decrease_speed_helper(true); }
 430:quantum/rgblight.c **** void rgblight_decrease_speed_noeeprom(void) { rgblight_decrease_speed_helper(false); }
 431:quantum/rgblight.c **** 
 432:quantum/rgblight.c **** void rgblight_sethsv_noeeprom_old(uint8_t hue, uint8_t sat, uint8_t val) {
 433:quantum/rgblight.c ****     if (rgblight_config.enable) {
 434:quantum/rgblight.c ****         LED_TYPE tmp_led;
 435:quantum/rgblight.c ****         sethsv(hue, sat, val, &tmp_led);
 436:quantum/rgblight.c ****         rgblight_setrgb(tmp_led.r, tmp_led.g, tmp_led.b);
 437:quantum/rgblight.c ****     }
 438:quantum/rgblight.c **** }
 439:quantum/rgblight.c **** 
 440:quantum/rgblight.c **** void rgblight_sethsv_eeprom_helper(uint8_t hue, uint8_t sat, uint8_t val, bool write_to_eeprom) {
 441:quantum/rgblight.c ****     if (rgblight_config.enable) {
 442:quantum/rgblight.c ****         rgblight_status.base_mode = mode_base_table[rgblight_config.mode];
 443:quantum/rgblight.c ****         if (rgblight_config.mode == RGBLIGHT_MODE_STATIC_LIGHT) {
 444:quantum/rgblight.c ****             // same static color
 445:quantum/rgblight.c ****             LED_TYPE tmp_led;
 446:quantum/rgblight.c ****             sethsv(hue, sat, val, &tmp_led);
 447:quantum/rgblight.c ****             rgblight_setrgb(tmp_led.r, tmp_led.g, tmp_led.b);
 448:quantum/rgblight.c ****         } else {
 449:quantum/rgblight.c ****             // all LEDs in same color
 450:quantum/rgblight.c ****             if (1 == 0) {  // dummy
 451:quantum/rgblight.c ****             }
 452:quantum/rgblight.c **** #ifdef RGBLIGHT_EFFECT_BREATHING
 453:quantum/rgblight.c ****             else if (rgblight_status.base_mode == RGBLIGHT_MODE_BREATHING) {
 454:quantum/rgblight.c ****                 // breathing mode, ignore the change of val, use in memory value instead
 455:quantum/rgblight.c ****                 val = rgblight_config.val;
 456:quantum/rgblight.c ****             }
 457:quantum/rgblight.c **** #endif
 458:quantum/rgblight.c **** #ifdef RGBLIGHT_EFFECT_RAINBOW_MOOD
 459:quantum/rgblight.c ****             else if (rgblight_status.base_mode == RGBLIGHT_MODE_RAINBOW_MOOD) {
 460:quantum/rgblight.c ****                 // rainbow mood, ignore the change of hue
 461:quantum/rgblight.c ****                 hue = rgblight_config.hue;
 462:quantum/rgblight.c ****             }
 463:quantum/rgblight.c **** #endif
 464:quantum/rgblight.c **** #ifdef RGBLIGHT_EFFECT_RAINBOW_SWIRL
 465:quantum/rgblight.c ****             else if (rgblight_status.base_mode == RGBLIGHT_MODE_RAINBOW_SWIRL) {
 466:quantum/rgblight.c ****                 // rainbow swirl, ignore the change of hue
 467:quantum/rgblight.c ****                 hue = rgblight_config.hue;
 468:quantum/rgblight.c ****             }
 469:quantum/rgblight.c **** #endif
 470:quantum/rgblight.c **** #ifdef RGBLIGHT_EFFECT_STATIC_GRADIENT
 471:quantum/rgblight.c ****             else if (rgblight_status.base_mode == RGBLIGHT_MODE_STATIC_GRADIENT) {
 472:quantum/rgblight.c ****                 // static gradient
 473:quantum/rgblight.c ****                 uint8_t delta     = rgblight_config.mode - rgblight_status.base_mode;
 474:quantum/rgblight.c ****                 bool    direction = (delta % 2) == 0;
 475:quantum/rgblight.c **** #    ifdef __AVR__
 476:quantum/rgblight.c ****                 // probably due to how pgm_read_word is defined for ARM, but the ARM compiler reall
 477:quantum/rgblight.c ****                 uint8_t range = pgm_read_word(&RGBLED_GRADIENT_RANGES[delta / 2]);
 478:quantum/rgblight.c **** #    else
 479:quantum/rgblight.c ****                 uint8_t range = RGBLED_GRADIENT_RANGES[delta / 2];
 480:quantum/rgblight.c **** #    endif
 481:quantum/rgblight.c ****                 for (uint8_t i = 0; i < rgblight_ranges.effect_num_leds; i++) {
 482:quantum/rgblight.c ****                     uint8_t _hue = ((uint16_t)i * (uint16_t)range) / rgblight_ranges.effect_num_led
 483:quantum/rgblight.c ****                     if (direction) {
 484:quantum/rgblight.c ****                         _hue = hue + _hue;
 485:quantum/rgblight.c ****                     } else {
 486:quantum/rgblight.c ****                         _hue = hue - _hue;
 487:quantum/rgblight.c ****                     }
 488:quantum/rgblight.c ****                     dprintf("rgblight rainbow set hsv: %d,%d,%d,%u\n", i, _hue, direction, range);
 489:quantum/rgblight.c ****                     sethsv(_hue, sat, val, (LED_TYPE *)&led[i + rgblight_ranges.effect_start_pos]);
 490:quantum/rgblight.c ****                 }
 491:quantum/rgblight.c ****                 rgblight_set();
 492:quantum/rgblight.c ****             }
 493:quantum/rgblight.c **** #endif
 494:quantum/rgblight.c ****         }
 495:quantum/rgblight.c **** #ifdef RGBLIGHT_SPLIT
 496:quantum/rgblight.c ****         if (rgblight_config.hue != hue || rgblight_config.sat != sat || rgblight_config.val != val)
 497:quantum/rgblight.c ****             RGBLIGHT_SPLIT_SET_CHANGE_HSVS;
 498:quantum/rgblight.c ****         }
 499:quantum/rgblight.c **** #endif
 500:quantum/rgblight.c ****         rgblight_config.hue = hue;
 501:quantum/rgblight.c ****         rgblight_config.sat = sat;
 502:quantum/rgblight.c ****         rgblight_config.val = val;
 503:quantum/rgblight.c ****         if (write_to_eeprom) {
 504:quantum/rgblight.c ****             eeconfig_update_rgblight(rgblight_config.raw);
 505:quantum/rgblight.c ****             dprintf("rgblight set hsv [EEPROM]: %u,%u,%u\n", rgblight_config.hue, rgblight_config.s
 506:quantum/rgblight.c ****         } else {
 507:quantum/rgblight.c ****             dprintf("rgblight set hsv [NOEEPROM]: %u,%u,%u\n", rgblight_config.hue, rgblight_config
 508:quantum/rgblight.c ****         }
 509:quantum/rgblight.c ****     }
 510:quantum/rgblight.c **** }
 511:quantum/rgblight.c **** 
 512:quantum/rgblight.c **** void rgblight_sethsv(uint8_t hue, uint8_t sat, uint8_t val) { rgblight_sethsv_eeprom_helper(hue, sa
 513:quantum/rgblight.c **** 
 514:quantum/rgblight.c **** void rgblight_sethsv_noeeprom(uint8_t hue, uint8_t sat, uint8_t val) { rgblight_sethsv_eeprom_helpe
 515:quantum/rgblight.c **** 
 516:quantum/rgblight.c **** uint8_t rgblight_get_speed(void) { return rgblight_config.speed; }
 517:quantum/rgblight.c **** 
 518:quantum/rgblight.c **** void rgblight_set_speed_eeprom_helper(uint8_t speed, bool write_to_eeprom) {
 519:quantum/rgblight.c ****     rgblight_config.speed = speed;
 520:quantum/rgblight.c ****     if (write_to_eeprom) {
 521:quantum/rgblight.c ****         eeconfig_update_rgblight(rgblight_config.raw);  // EECONFIG needs to be increased to suppor
 522:quantum/rgblight.c ****         dprintf("rgblight set speed [EEPROM]: %u\n", rgblight_config.speed);
 523:quantum/rgblight.c ****     } else {
 524:quantum/rgblight.c ****         dprintf("rgblight set speed [NOEEPROM]: %u\n", rgblight_config.speed);
 525:quantum/rgblight.c ****     }
 526:quantum/rgblight.c **** }
 527:quantum/rgblight.c **** 
 528:quantum/rgblight.c **** void rgblight_set_speed(uint8_t speed) { rgblight_set_speed_eeprom_helper(speed, true); }
 529:quantum/rgblight.c **** 
 530:quantum/rgblight.c **** void rgblight_set_speed_noeeprom(uint8_t speed) { rgblight_set_speed_eeprom_helper(speed, false); }
 531:quantum/rgblight.c **** 
 532:quantum/rgblight.c **** uint8_t rgblight_get_hue(void) { return rgblight_config.hue; }
 533:quantum/rgblight.c **** 
 534:quantum/rgblight.c **** uint8_t rgblight_get_sat(void) { return rgblight_config.sat; }
 535:quantum/rgblight.c **** 
 536:quantum/rgblight.c **** uint8_t rgblight_get_val(void) { return rgblight_config.val; }
 537:quantum/rgblight.c **** 
 538:quantum/rgblight.c **** HSV rgblight_get_hsv(void) { return (HSV){rgblight_config.hue, rgblight_config.sat, rgblight_config
 539:quantum/rgblight.c **** 
 540:quantum/rgblight.c **** void rgblight_setrgb(uint8_t r, uint8_t g, uint8_t b) {
 541:quantum/rgblight.c ****     if (!rgblight_config.enable) {
 542:quantum/rgblight.c ****         return;
 543:quantum/rgblight.c ****     }
 544:quantum/rgblight.c **** 
 545:quantum/rgblight.c ****     for (uint8_t i = rgblight_ranges.effect_start_pos; i < rgblight_ranges.effect_end_pos; i++) {
 546:quantum/rgblight.c ****         led[i].r = r;
 547:quantum/rgblight.c ****         led[i].g = g;
 548:quantum/rgblight.c ****         led[i].b = b;
 549:quantum/rgblight.c **** #ifdef RGBW
 550:quantum/rgblight.c ****         led[i].w = 0;
 551:quantum/rgblight.c **** #endif
 552:quantum/rgblight.c ****     }
 553:quantum/rgblight.c ****     rgblight_set();
 554:quantum/rgblight.c **** }
 555:quantum/rgblight.c **** 
 556:quantum/rgblight.c **** void rgblight_setrgb_at(uint8_t r, uint8_t g, uint8_t b, uint8_t index) {
 557:quantum/rgblight.c ****     if (!rgblight_config.enable || index >= RGBLED_NUM) {
 558:quantum/rgblight.c ****         return;
 559:quantum/rgblight.c ****     }
 560:quantum/rgblight.c **** 
 561:quantum/rgblight.c ****     led[index].r = r;
 562:quantum/rgblight.c ****     led[index].g = g;
 563:quantum/rgblight.c ****     led[index].b = b;
 564:quantum/rgblight.c **** #ifdef RGBW
 565:quantum/rgblight.c ****     led[index].w = 0;
 566:quantum/rgblight.c **** #endif
 567:quantum/rgblight.c ****     rgblight_set();
 568:quantum/rgblight.c **** }
 569:quantum/rgblight.c **** 
 570:quantum/rgblight.c **** void rgblight_sethsv_at(uint8_t hue, uint8_t sat, uint8_t val, uint8_t index) {
 571:quantum/rgblight.c ****     if (!rgblight_config.enable) {
 572:quantum/rgblight.c ****         return;
 573:quantum/rgblight.c ****     }
 574:quantum/rgblight.c **** 
 575:quantum/rgblight.c ****     LED_TYPE tmp_led;
 576:quantum/rgblight.c ****     sethsv(hue, sat, val, &tmp_led);
 577:quantum/rgblight.c ****     rgblight_setrgb_at(tmp_led.r, tmp_led.g, tmp_led.b, index);
 578:quantum/rgblight.c **** }
 579:quantum/rgblight.c **** 
 580:quantum/rgblight.c **** #if defined(RGBLIGHT_EFFECT_BREATHING) || defined(RGBLIGHT_EFFECT_RAINBOW_MOOD) || defined(RGBLIGHT
 581:quantum/rgblight.c **** 
 582:quantum/rgblight.c **** static uint8_t get_interval_time(const uint8_t *default_interval_address, uint8_t velocikey_min, ui
 583:quantum/rgblight.c ****     return
 584:quantum/rgblight.c **** #    ifdef VELOCIKEY_ENABLE
 585:quantum/rgblight.c ****         velocikey_enabled() ? velocikey_match_speed(velocikey_min, velocikey_max) :
 586:quantum/rgblight.c **** #    endif
 587:quantum/rgblight.c ****                             pgm_read_byte(default_interval_address);
 588:quantum/rgblight.c **** }
 589:quantum/rgblight.c **** 
 590:quantum/rgblight.c **** #endif
 591:quantum/rgblight.c **** 
 592:quantum/rgblight.c **** void rgblight_setrgb_range(uint8_t r, uint8_t g, uint8_t b, uint8_t start, uint8_t end) {
 593:quantum/rgblight.c ****     if (!rgblight_config.enable || start < 0 || start >= end || end > RGBLED_NUM) {
 594:quantum/rgblight.c ****         return;
 595:quantum/rgblight.c ****     }
 596:quantum/rgblight.c **** 
 597:quantum/rgblight.c ****     for (uint8_t i = start; i < end; i++) {
 598:quantum/rgblight.c ****         led[i].r = r;
 599:quantum/rgblight.c ****         led[i].g = g;
 600:quantum/rgblight.c ****         led[i].b = b;
 601:quantum/rgblight.c **** #ifdef RGBW
 602:quantum/rgblight.c ****         led[i].w = 0;
 603:quantum/rgblight.c **** #endif
 604:quantum/rgblight.c ****     }
 605:quantum/rgblight.c ****     rgblight_set();
 606:quantum/rgblight.c ****     wait_ms(1);
 607:quantum/rgblight.c **** }
 608:quantum/rgblight.c **** 
 609:quantum/rgblight.c **** void rgblight_sethsv_range(uint8_t hue, uint8_t sat, uint8_t val, uint8_t start, uint8_t end) {
 610:quantum/rgblight.c ****     if (!rgblight_config.enable) {
 611:quantum/rgblight.c ****         return;
 612:quantum/rgblight.c ****     }
 613:quantum/rgblight.c **** 
 614:quantum/rgblight.c ****     LED_TYPE tmp_led;
 615:quantum/rgblight.c ****     sethsv(hue, sat, val, &tmp_led);
 616:quantum/rgblight.c ****     rgblight_setrgb_range(tmp_led.r, tmp_led.g, tmp_led.b, start, end);
 617:quantum/rgblight.c **** }
 618:quantum/rgblight.c **** 
 619:quantum/rgblight.c **** #ifndef RGBLIGHT_SPLIT
 620:quantum/rgblight.c **** void rgblight_setrgb_master(uint8_t r, uint8_t g, uint8_t b) { rgblight_setrgb_range(r, g, b, 0, (u
 621:quantum/rgblight.c **** 
 622:quantum/rgblight.c **** void rgblight_setrgb_slave(uint8_t r, uint8_t g, uint8_t b) { rgblight_setrgb_range(r, g, b, (uint8
 623:quantum/rgblight.c **** 
 624:quantum/rgblight.c **** void rgblight_sethsv_master(uint8_t hue, uint8_t sat, uint8_t val) { rgblight_sethsv_range(hue, sat
 625:quantum/rgblight.c **** 
 626:quantum/rgblight.c **** void rgblight_sethsv_slave(uint8_t hue, uint8_t sat, uint8_t val) { rgblight_sethsv_range(hue, sat,
 627:quantum/rgblight.c **** #endif  // ifndef RGBLIGHT_SPLIT
 628:quantum/rgblight.c **** 
 629:quantum/rgblight.c **** #ifdef RGBLIGHT_LAYERS
 630:quantum/rgblight.c **** void rgblight_set_layer_state(uint8_t layer, bool enabled) {
 631:quantum/rgblight.c ****     rgblight_layer_mask_t mask = 1 << layer;
 632:quantum/rgblight.c ****     if (enabled) {
 633:quantum/rgblight.c ****         rgblight_status.enabled_layer_mask |= mask;
 634:quantum/rgblight.c ****     } else {
 635:quantum/rgblight.c ****         rgblight_status.enabled_layer_mask &= ~mask;
 636:quantum/rgblight.c ****     }
 637:quantum/rgblight.c ****     RGBLIGHT_SPLIT_SET_CHANGE_LAYERS;
 638:quantum/rgblight.c ****     // Static modes don't have a ticker running to update the LEDs
 639:quantum/rgblight.c ****     if (rgblight_status.timer_enabled == false) {
 640:quantum/rgblight.c ****         rgblight_mode_noeeprom(rgblight_config.mode);
 641:quantum/rgblight.c ****     }
 642:quantum/rgblight.c **** 
 643:quantum/rgblight.c **** #    ifdef RGBLIGHT_LAYERS_OVERRIDE_RGB_OFF
 644:quantum/rgblight.c ****     // If not enabled, then nothing else will actually set the LEDs...
 645:quantum/rgblight.c ****     if (!rgblight_config.enable) {
 646:quantum/rgblight.c ****         rgblight_set();
 647:quantum/rgblight.c ****     }
 648:quantum/rgblight.c **** #    endif
 649:quantum/rgblight.c **** }
 650:quantum/rgblight.c **** 
 651:quantum/rgblight.c **** bool rgblight_get_layer_state(uint8_t layer) {
 652:quantum/rgblight.c ****     rgblight_layer_mask_t mask = 1 << layer;
 653:quantum/rgblight.c ****     return (rgblight_status.enabled_layer_mask & mask) != 0;
 654:quantum/rgblight.c **** }
 655:quantum/rgblight.c **** 
 656:quantum/rgblight.c **** // Write any enabled LED layers into the buffer
 657:quantum/rgblight.c **** static void rgblight_layers_write(void) {
 658:quantum/rgblight.c ****     uint8_t i = 0;
 659:quantum/rgblight.c ****     // For each layer
 660:quantum/rgblight.c ****     for (const rgblight_segment_t *const *layer_ptr = rgblight_layers; i < RGBLIGHT_MAX_LAYERS; lay
 661:quantum/rgblight.c ****         if (!rgblight_get_layer_state(i)) {
 662:quantum/rgblight.c ****             continue;  // Layer is disabled
 663:quantum/rgblight.c ****         }
 664:quantum/rgblight.c ****         const rgblight_segment_t *segment_ptr = pgm_read_ptr(layer_ptr);
 665:quantum/rgblight.c ****         if (segment_ptr == NULL) {
 666:quantum/rgblight.c ****             break;  // No more layers
 667:quantum/rgblight.c ****         }
 668:quantum/rgblight.c ****         // For each segment
 669:quantum/rgblight.c ****         while (1) {
 670:quantum/rgblight.c ****             rgblight_segment_t segment;
 671:quantum/rgblight.c ****             memcpy_P(&segment, segment_ptr, sizeof(rgblight_segment_t));
 672:quantum/rgblight.c ****             if (segment.index == RGBLIGHT_END_SEGMENT_INDEX) {
 673:quantum/rgblight.c ****                 break;  // No more segments
 674:quantum/rgblight.c ****             }
 675:quantum/rgblight.c ****             // Write segment.count LEDs
 676:quantum/rgblight.c ****             LED_TYPE *const limit = &led[MIN(segment.index + segment.count, RGBLED_NUM)];
 677:quantum/rgblight.c ****             for (LED_TYPE *led_ptr = &led[segment.index]; led_ptr < limit; led_ptr++) {
 678:quantum/rgblight.c ****                 sethsv(segment.hue, segment.sat, segment.val, led_ptr);
 679:quantum/rgblight.c ****             }
 680:quantum/rgblight.c ****             segment_ptr++;
 681:quantum/rgblight.c ****         }
 682:quantum/rgblight.c ****     }
 683:quantum/rgblight.c **** }
 684:quantum/rgblight.c **** 
 685:quantum/rgblight.c **** #    ifdef RGBLIGHT_LAYER_BLINK
 686:quantum/rgblight.c **** rgblight_layer_mask_t _blinked_layer_mask = 0;
 687:quantum/rgblight.c **** uint16_t              _blink_duration     = 0;
 688:quantum/rgblight.c **** static uint16_t       _blink_timer;
 689:quantum/rgblight.c **** 
 690:quantum/rgblight.c **** void rgblight_blink_layer(uint8_t layer, uint16_t duration_ms) {
 691:quantum/rgblight.c ****     rgblight_set_layer_state(layer, true);
 692:quantum/rgblight.c ****     _blinked_layer_mask |= 1 << layer;
 693:quantum/rgblight.c ****     _blink_timer    = timer_read();
 694:quantum/rgblight.c ****     _blink_duration = duration_ms;
 695:quantum/rgblight.c **** }
 696:quantum/rgblight.c **** 
 697:quantum/rgblight.c **** void rgblight_unblink_layers(void) {
 698:quantum/rgblight.c ****     if (_blinked_layer_mask != 0 && timer_elapsed(_blink_timer) > _blink_duration) {
 699:quantum/rgblight.c ****         for (uint8_t layer = 0; layer < RGBLIGHT_MAX_LAYERS; layer++) {
 700:quantum/rgblight.c ****             if ((_blinked_layer_mask & 1 << layer) != 0) {
 701:quantum/rgblight.c ****                 rgblight_set_layer_state(layer, false);
 702:quantum/rgblight.c ****             }
 703:quantum/rgblight.c ****         }
 704:quantum/rgblight.c ****         _blinked_layer_mask = 0;
 705:quantum/rgblight.c ****     }
 706:quantum/rgblight.c **** }
 707:quantum/rgblight.c **** #    endif
 708:quantum/rgblight.c **** 
 709:quantum/rgblight.c **** #endif
 710:quantum/rgblight.c **** 
 711:quantum/rgblight.c **** __attribute__((weak)) void rgblight_call_driver(LED_TYPE *start_led, uint8_t num_leds) { ws2812_set
 712:quantum/rgblight.c **** 
 713:quantum/rgblight.c **** #ifndef RGBLIGHT_CUSTOM_DRIVER
 714:quantum/rgblight.c **** 
 715:quantum/rgblight.c **** void rgblight_set(void) {
 716:quantum/rgblight.c ****     LED_TYPE *start_led;
 717:quantum/rgblight.c ****     uint8_t   num_leds = rgblight_ranges.clipping_num_leds;
 718:quantum/rgblight.c **** 
 719:quantum/rgblight.c ****     if (!rgblight_config.enable) {
 720:quantum/rgblight.c ****         for (uint8_t i = rgblight_ranges.effect_start_pos; i < rgblight_ranges.effect_end_pos; i++)
 721:quantum/rgblight.c ****             led[i].r = 0;
 722:quantum/rgblight.c ****             led[i].g = 0;
 723:quantum/rgblight.c ****             led[i].b = 0;
 724:quantum/rgblight.c **** #    ifdef RGBW
 725:quantum/rgblight.c ****             led[i].w = 0;
 726:quantum/rgblight.c **** #    endif
 727:quantum/rgblight.c ****         }
 728:quantum/rgblight.c ****     }
 729:quantum/rgblight.c **** 
 730:quantum/rgblight.c **** #    ifdef RGBLIGHT_LAYERS
 731:quantum/rgblight.c ****     if (rgblight_layers != NULL
 732:quantum/rgblight.c **** #        ifndef RGBLIGHT_LAYERS_OVERRIDE_RGB_OFF
 733:quantum/rgblight.c ****         && rgblight_config.enable
 734:quantum/rgblight.c **** #        endif
 735:quantum/rgblight.c ****     ) {
 736:quantum/rgblight.c ****         rgblight_layers_write();
 737:quantum/rgblight.c ****     }
 738:quantum/rgblight.c **** #    endif
 739:quantum/rgblight.c **** 
 740:quantum/rgblight.c **** #    ifdef RGBLIGHT_LED_MAP
 741:quantum/rgblight.c ****     LED_TYPE led0[RGBLED_NUM];
 742:quantum/rgblight.c ****     for (uint8_t i = 0; i < RGBLED_NUM; i++) {
 743:quantum/rgblight.c ****         led0[i] = led[pgm_read_byte(&led_map[i])];
 744:quantum/rgblight.c ****     }
 745:quantum/rgblight.c ****     start_led = led0 + rgblight_ranges.clipping_start_pos;
 746:quantum/rgblight.c **** #    else
 747:quantum/rgblight.c ****     start_led = led + rgblight_ranges.clipping_start_pos;
 748:quantum/rgblight.c **** #    endif
 749:quantum/rgblight.c **** 
 750:quantum/rgblight.c **** #    ifdef RGBW
 751:quantum/rgblight.c ****     for (uint8_t i = 0; i < num_leds; i++) {
 752:quantum/rgblight.c ****         convert_rgb_to_rgbw(&start_led[i]);
 753:quantum/rgblight.c ****     }
 754:quantum/rgblight.c **** #    endif
 755:quantum/rgblight.c ****     rgblight_call_driver(start_led, num_leds);
 756:quantum/rgblight.c **** }
 757:quantum/rgblight.c **** #endif
 758:quantum/rgblight.c **** 
 759:quantum/rgblight.c **** #ifdef RGBLIGHT_SPLIT
 760:quantum/rgblight.c **** /* for split keyboard master side */
 761:quantum/rgblight.c **** uint8_t rgblight_get_change_flags(void) { return rgblight_status.change_flags; }
 762:quantum/rgblight.c **** 
 763:quantum/rgblight.c **** void rgblight_clear_change_flags(void) { rgblight_status.change_flags = 0; }
 764:quantum/rgblight.c **** 
 765:quantum/rgblight.c **** void rgblight_get_syncinfo(rgblight_syncinfo_t *syncinfo) {
 766:quantum/rgblight.c ****     syncinfo->config = rgblight_config;
 767:quantum/rgblight.c ****     syncinfo->status = rgblight_status;
 768:quantum/rgblight.c **** }
 769:quantum/rgblight.c **** 
 770:quantum/rgblight.c **** /* for split keyboard slave side */
 771:quantum/rgblight.c **** void rgblight_update_sync(rgblight_syncinfo_t *syncinfo, bool write_to_eeprom) {
 772:quantum/rgblight.c **** #    ifdef RGBLIGHT_LAYERS
 773:quantum/rgblight.c ****     if (syncinfo->status.change_flags & RGBLIGHT_STATUS_CHANGE_LAYERS) {
 774:quantum/rgblight.c ****         rgblight_status.enabled_layer_mask = syncinfo->status.enabled_layer_mask;
 775:quantum/rgblight.c ****     }
 776:quantum/rgblight.c **** #    endif
 777:quantum/rgblight.c ****     if (syncinfo->status.change_flags & RGBLIGHT_STATUS_CHANGE_MODE) {
 778:quantum/rgblight.c ****         if (syncinfo->config.enable) {
 779:quantum/rgblight.c ****             rgblight_config.enable = 1;  // == rgblight_enable_noeeprom();
 780:quantum/rgblight.c ****             rgblight_mode_eeprom_helper(syncinfo->config.mode, write_to_eeprom);
 781:quantum/rgblight.c ****         } else {
 782:quantum/rgblight.c ****             rgblight_disable_noeeprom();
 783:quantum/rgblight.c ****         }
 784:quantum/rgblight.c ****     }
 785:quantum/rgblight.c ****     if (syncinfo->status.change_flags & RGBLIGHT_STATUS_CHANGE_HSVS) {
 786:quantum/rgblight.c ****         rgblight_sethsv_eeprom_helper(syncinfo->config.hue, syncinfo->config.sat, syncinfo->config.
 787:quantum/rgblight.c ****         // rgblight_config.speed = config->speed; // NEED???
 788:quantum/rgblight.c ****     }
 789:quantum/rgblight.c **** #    ifdef RGBLIGHT_USE_TIMER
 790:quantum/rgblight.c ****     if (syncinfo->status.change_flags & RGBLIGHT_STATUS_CHANGE_TIMER) {
 791:quantum/rgblight.c ****         if (syncinfo->status.timer_enabled) {
 792:quantum/rgblight.c ****             rgblight_timer_enable();
 793:quantum/rgblight.c ****         } else {
 794:quantum/rgblight.c ****             rgblight_timer_disable();
 795:quantum/rgblight.c ****         }
 796:quantum/rgblight.c ****     }
 797:quantum/rgblight.c **** #        ifndef RGBLIGHT_SPLIT_NO_ANIMATION_SYNC
 798:quantum/rgblight.c ****     if (syncinfo->status.change_flags & RGBLIGHT_STATUS_ANIMATION_TICK) {
 799:quantum/rgblight.c ****         animation_status.restart = true;
 800:quantum/rgblight.c ****     }
 801:quantum/rgblight.c **** #        endif /* RGBLIGHT_SPLIT_NO_ANIMATION_SYNC */
 802:quantum/rgblight.c **** #    endif     /* RGBLIGHT_USE_TIMER */
 803:quantum/rgblight.c **** }
 804:quantum/rgblight.c **** #endif /* RGBLIGHT_SPLIT */
 805:quantum/rgblight.c **** 
 806:quantum/rgblight.c **** #ifdef RGBLIGHT_USE_TIMER
 807:quantum/rgblight.c **** 
 808:quantum/rgblight.c **** typedef void (*effect_func_t)(animation_status_t *anim);
 809:quantum/rgblight.c **** 
 810:quantum/rgblight.c **** // Animation timer -- use system timer (AVR Timer0)
 811:quantum/rgblight.c **** void rgblight_timer_init(void) {
 812:quantum/rgblight.c ****     // OLD!!!! Animation timer -- AVR Timer3
 813:quantum/rgblight.c ****     // static uint8_t rgblight_timer_is_init = 0;
 814:quantum/rgblight.c ****     // if (rgblight_timer_is_init) {
 815:quantum/rgblight.c ****     //   return;
 816:quantum/rgblight.c ****     // }
 817:quantum/rgblight.c ****     // rgblight_timer_is_init = 1;
 818:quantum/rgblight.c ****     // /* Timer 3 setup */
 819:quantum/rgblight.c ****     // TCCR3B = _BV(WGM32) // CTC mode OCR3A as TOP
 820:quantum/rgblight.c ****     //       | _BV(CS30); // Clock selelct: clk/1
 821:quantum/rgblight.c ****     // /* Set TOP value */
 822:quantum/rgblight.c ****     // uint8_t sreg = SREG;
 823:quantum/rgblight.c ****     // cli();
 824:quantum/rgblight.c ****     // OCR3AH = (RGBLED_TIMER_TOP >> 8) & 0xff;
 825:quantum/rgblight.c ****     // OCR3AL = RGBLED_TIMER_TOP & 0xff;
 826:quantum/rgblight.c ****     // SREG = sreg;
 827:quantum/rgblight.c **** 
 828:quantum/rgblight.c ****     rgblight_status.timer_enabled = false;
 829:quantum/rgblight.c ****     RGBLIGHT_SPLIT_SET_CHANGE_TIMER_ENABLE;
 830:quantum/rgblight.c **** }
 831:quantum/rgblight.c **** void rgblight_timer_enable(void) {
 832:quantum/rgblight.c ****     if (!is_static_effect(rgblight_config.mode)) {
 833:quantum/rgblight.c ****         rgblight_status.timer_enabled = true;
 834:quantum/rgblight.c ****     }
 835:quantum/rgblight.c ****     animation_status.last_timer = timer_read();
 836:quantum/rgblight.c ****     RGBLIGHT_SPLIT_SET_CHANGE_TIMER_ENABLE;
 837:quantum/rgblight.c ****     dprintf("rgblight timer enabled.\n");
 838:quantum/rgblight.c **** }
 839:quantum/rgblight.c **** void rgblight_timer_disable(void) {
 840:quantum/rgblight.c ****     rgblight_status.timer_enabled = false;
 841:quantum/rgblight.c ****     RGBLIGHT_SPLIT_SET_CHANGE_TIMER_ENABLE;
 842:quantum/rgblight.c ****     dprintf("rgblight timer disable.\n");
 843:quantum/rgblight.c **** }
 844:quantum/rgblight.c **** void rgblight_timer_toggle(void) {
 845:quantum/rgblight.c ****     dprintf("rgblight timer toggle.\n");
 846:quantum/rgblight.c ****     if (rgblight_status.timer_enabled) {
 847:quantum/rgblight.c ****         rgblight_timer_disable();
 848:quantum/rgblight.c ****     } else {
 849:quantum/rgblight.c ****         rgblight_timer_enable();
 850:quantum/rgblight.c ****     }
 851:quantum/rgblight.c **** }
 852:quantum/rgblight.c **** 
 853:quantum/rgblight.c **** void rgblight_show_solid_color(uint8_t r, uint8_t g, uint8_t b) {
 854:quantum/rgblight.c ****     rgblight_enable();
 855:quantum/rgblight.c ****     rgblight_mode(RGBLIGHT_MODE_STATIC_LIGHT);
 856:quantum/rgblight.c ****     rgblight_setrgb(r, g, b);
 857:quantum/rgblight.c **** }
 858:quantum/rgblight.c **** 
 859:quantum/rgblight.c **** static void rgblight_effect_dummy(animation_status_t *anim) {
  16               		.loc 1 859 61 view -0
  17               		.cfi_startproc
  18               	/* prologue: function */
  19               	/* frame size = 0 */
  20               	/* stack size = 0 */
  21               	.L__stack_usage = 0
 860:quantum/rgblight.c ****     // do nothing
 861:quantum/rgblight.c ****     /********
 862:quantum/rgblight.c ****     dprintf("rgblight_task() what happened?\n");
 863:quantum/rgblight.c ****     dprintf("is_static_effect %d\n", is_static_effect(rgblight_config.mode));
 864:quantum/rgblight.c ****     dprintf("mode = %d, base_mode = %d, timer_enabled %d, ",
 865:quantum/rgblight.c ****             rgblight_config.mode, rgblight_status.base_mode,
 866:quantum/rgblight.c ****             rgblight_status.timer_enabled);
 867:quantum/rgblight.c ****     dprintf("last_timer = %d\n",anim->last_timer);
 868:quantum/rgblight.c ****     **/
 869:quantum/rgblight.c **** }
  22               		.loc 1 869 1 view .LVU1
  23               	/* epilogue start */
  24 0000 0895      		ret
  25               		.cfi_endproc
  26               	.LFE171:
  28               		.section	.text.rgblight_set_clipping_range,"ax",@progbits
  29               	.global	rgblight_set_clipping_range
  31               	rgblight_set_clipping_range:
  32               	.LVL1:
  33               	.LFB84:
 113:quantum/rgblight.c ****     rgblight_ranges.clipping_start_pos = start_pos;
  34               		.loc 1 113 71 view -0
  35               		.cfi_startproc
  36               	/* prologue: function */
  37               	/* frame size = 0 */
  38               	/* stack size = 0 */
  39               	.L__stack_usage = 0
 114:quantum/rgblight.c ****     rgblight_ranges.clipping_num_leds  = num_leds;
  40               		.loc 1 114 5 view .LVU3
 114:quantum/rgblight.c ****     rgblight_ranges.clipping_num_leds  = num_leds;
  41               		.loc 1 114 40 is_stmt 0 view .LVU4
  42 0000 E0E0      		ldi r30,lo8(rgblight_ranges)
  43 0002 F0E0      		ldi r31,hi8(rgblight_ranges)
  44 0004 8083      		st Z,r24
 115:quantum/rgblight.c **** }
  45               		.loc 1 115 5 is_stmt 1 view .LVU5
 115:quantum/rgblight.c **** }
  46               		.loc 1 115 40 is_stmt 0 view .LVU6
  47 0006 6183      		std Z+1,r22
  48               	/* epilogue start */
 116:quantum/rgblight.c **** 
  49               		.loc 1 116 1 view .LVU7
  50 0008 0895      		ret
  51               		.cfi_endproc
  52               	.LFE84:
  54               		.section	.text.rgblight_set_effect_range,"ax",@progbits
  55               	.global	rgblight_set_effect_range
  57               	rgblight_set_effect_range:
  58               	.LVL2:
  59               	.LFB85:
 118:quantum/rgblight.c ****     if (start_pos >= RGBLED_NUM) return;
  60               		.loc 1 118 69 is_stmt 1 view -0
  61               		.cfi_startproc
  62               	/* prologue: function */
  63               	/* frame size = 0 */
  64               	/* stack size = 0 */
  65               	.L__stack_usage = 0
 119:quantum/rgblight.c ****     if (start_pos + num_leds > RGBLED_NUM) return;
  66               		.loc 1 119 5 view .LVU9
 119:quantum/rgblight.c ****     if (start_pos + num_leds > RGBLED_NUM) return;
  67               		.loc 1 119 8 is_stmt 0 view .LVU10
  68 0000 8B31      		cpi r24,lo8(27)
  69 0002 00F4      		brsh .L3
 120:quantum/rgblight.c ****     rgblight_ranges.effect_start_pos = start_pos;
  70               		.loc 1 120 5 is_stmt 1 view .LVU11
 120:quantum/rgblight.c ****     rgblight_ranges.effect_start_pos = start_pos;
  71               		.loc 1 120 19 is_stmt 0 view .LVU12
  72 0004 482F      		mov r20,r24
  73 0006 460F      		add r20,r22
  74 0008 5527      		clr r21
  75 000a 551F      		rol r21
 120:quantum/rgblight.c ****     rgblight_ranges.effect_start_pos = start_pos;
  76               		.loc 1 120 8 view .LVU13
  77 000c 4C31      		cpi r20,28
  78 000e 5105      		cpc r21,__zero_reg__
  79 0010 04F4      		brge .L3
 121:quantum/rgblight.c ****     rgblight_ranges.effect_end_pos   = start_pos + num_leds;
  80               		.loc 1 121 5 is_stmt 1 view .LVU14
 121:quantum/rgblight.c ****     rgblight_ranges.effect_end_pos   = start_pos + num_leds;
  81               		.loc 1 121 38 is_stmt 0 view .LVU15
  82 0012 8093 0000 		sts rgblight_ranges+2,r24
 122:quantum/rgblight.c ****     rgblight_ranges.effect_num_leds  = num_leds;
  83               		.loc 1 122 5 is_stmt 1 view .LVU16
 122:quantum/rgblight.c ****     rgblight_ranges.effect_num_leds  = num_leds;
  84               		.loc 1 122 50 is_stmt 0 view .LVU17
  85 0016 860F      		add r24,r22
  86               	.LVL3:
 122:quantum/rgblight.c ****     rgblight_ranges.effect_num_leds  = num_leds;
  87               		.loc 1 122 38 view .LVU18
  88 0018 8093 0000 		sts rgblight_ranges+3,r24
 123:quantum/rgblight.c **** }
  89               		.loc 1 123 5 is_stmt 1 view .LVU19
 123:quantum/rgblight.c **** }
  90               		.loc 1 123 38 is_stmt 0 view .LVU20
  91 001c 6093 0000 		sts rgblight_ranges+4,r22
  92               	.LVL4:
  93               	.L3:
  94               	/* epilogue start */
 124:quantum/rgblight.c **** 
  95               		.loc 1 124 1 view .LVU21
  96 0020 0895      		ret
  97               		.cfi_endproc
  98               	.LFE85:
 100               		.section	.text.rgblight_hsv_to_rgb,"ax",@progbits
 101               		.weak	rgblight_hsv_to_rgb
 103               	rgblight_hsv_to_rgb:
 104               	.LVL5:
 105               	.LFB86:
 126:quantum/rgblight.c **** 
 106               		.loc 1 126 56 is_stmt 1 view -0
 107               		.cfi_startproc
 108               	/* prologue: function */
 109               	/* frame size = 0 */
 110               	/* stack size = 0 */
 111               	.L__stack_usage = 0
 126:quantum/rgblight.c **** 
 112               		.loc 1 126 58 view .LVU23
 126:quantum/rgblight.c **** 
 113               		.loc 1 126 65 is_stmt 0 view .LVU24
 114 0000 0C94 0000 		jmp hsv_to_rgb
 115               	.LVL6:
 126:quantum/rgblight.c **** 
 116               		.loc 1 126 65 view .LVU25
 117               		.cfi_endproc
 118               	.LFE86:
 120               		.section	.text.sethsv_raw,"ax",@progbits
 121               	.global	sethsv_raw
 123               	sethsv_raw:
 124               	.LVL7:
 125               	.LFB87:
 128:quantum/rgblight.c ****     HSV hsv = {hue, sat, val};
 126               		.loc 1 128 72 is_stmt 1 view -0
 127               		.cfi_startproc
 128:quantum/rgblight.c ****     HSV hsv = {hue, sat, val};
 128               		.loc 1 128 72 is_stmt 0 view .LVU27
 129 0000 CF93      		push r28
 130               	.LCFI0:
 131               		.cfi_def_cfa_offset 3
 132               		.cfi_offset 28, -2
 133 0002 DF93      		push r29
 134               	.LCFI1:
 135               		.cfi_def_cfa_offset 4
 136               		.cfi_offset 29, -3
 137               	/* prologue: function */
 138               	/* frame size = 0 */
 139               	/* stack size = 2 */
 140               	.L__stack_usage = 2
 141 0004 762F      		mov r23,r22
 142 0006 E901      		movw r28,r18
 129:quantum/rgblight.c ****     RGB rgb = rgblight_hsv_to_rgb(hsv);
 143               		.loc 1 129 5 is_stmt 1 view .LVU28
 130:quantum/rgblight.c ****     setrgb(rgb.r, rgb.g, rgb.b, led1);
 144               		.loc 1 130 5 view .LVU29
 130:quantum/rgblight.c ****     setrgb(rgb.r, rgb.g, rgb.b, led1);
 145               		.loc 1 130 15 is_stmt 0 view .LVU30
 146 0008 682F      		mov r22,r24
 147               	.LVL8:
 130:quantum/rgblight.c ****     setrgb(rgb.r, rgb.g, rgb.b, led1);
 148               		.loc 1 130 15 view .LVU31
 149 000a 842F      		mov r24,r20
 150               	.LVL9:
 130:quantum/rgblight.c ****     setrgb(rgb.r, rgb.g, rgb.b, led1);
 151               		.loc 1 130 15 view .LVU32
 152 000c 0E94 0000 		call rgblight_hsv_to_rgb
 153               	.LVL10:
 131:quantum/rgblight.c **** }
 154               		.loc 1 131 5 is_stmt 1 view .LVU33
 155               	.LBB20:
 156               	.LBI20:
 136:quantum/rgblight.c ****     led1->r = r;
 157               		.loc 1 136 6 view .LVU34
 158               	.LBB21:
 137:quantum/rgblight.c ****     led1->g = g;
 159               		.loc 1 137 5 view .LVU35
 137:quantum/rgblight.c ****     led1->g = g;
 160               		.loc 1 137 13 is_stmt 0 view .LVU36
 161 0010 7983      		std Y+1,r23
 138:quantum/rgblight.c ****     led1->b = b;
 162               		.loc 1 138 5 is_stmt 1 view .LVU37
 138:quantum/rgblight.c ****     led1->b = b;
 163               		.loc 1 138 13 is_stmt 0 view .LVU38
 164 0012 6883      		st Y,r22
 139:quantum/rgblight.c **** #ifdef RGBW
 165               		.loc 1 139 5 is_stmt 1 view .LVU39
 139:quantum/rgblight.c **** #ifdef RGBW
 166               		.loc 1 139 13 is_stmt 0 view .LVU40
 167 0014 8A83      		std Y+2,r24
 168               	.LVL11:
 169               	/* epilogue start */
 139:quantum/rgblight.c **** #ifdef RGBW
 170               		.loc 1 139 13 view .LVU41
 171               	.LBE21:
 172               	.LBE20:
 132:quantum/rgblight.c **** 
 173               		.loc 1 132 1 view .LVU42
 174 0016 DF91      		pop r29
 175 0018 CF91      		pop r28
 176               	.LVL12:
 132:quantum/rgblight.c **** 
 177               		.loc 1 132 1 view .LVU43
 178 001a 0895      		ret
 179               		.cfi_endproc
 180               	.LFE87:
 182               		.section	.text.sethsv,"ax",@progbits
 183               	.global	sethsv
 185               	sethsv:
 186               	.LVL13:
 187               	.LFB88:
 134:quantum/rgblight.c **** 
 188               		.loc 1 134 68 is_stmt 1 view -0
 189               		.cfi_startproc
 190               	/* prologue: function */
 191               	/* frame size = 0 */
 192               	/* stack size = 0 */
 193               	.L__stack_usage = 0
 134:quantum/rgblight.c **** 
 194               		.loc 1 134 70 view .LVU45
 195 0000 4937      		cpi r20,lo8(121)
 196 0002 00F0      		brlo .L8
 197 0004 48E7      		ldi r20,lo8(120)
 198               	.LVL14:
 199               	.L8:
 134:quantum/rgblight.c **** 
 200               		.loc 1 134 70 is_stmt 0 view .LVU46
 201 0006 0C94 0000 		jmp sethsv_raw
 202               	.LVL15:
 134:quantum/rgblight.c **** 
 203               		.loc 1 134 70 view .LVU47
 204               		.cfi_endproc
 205               	.LFE88:
 207               		.section	.text.setrgb,"ax",@progbits
 208               	.global	setrgb
 210               	setrgb:
 211               	.LVL16:
 212               	.LFB89:
 136:quantum/rgblight.c ****     led1->r = r;
 213               		.loc 1 136 62 is_stmt 1 view -0
 214               		.cfi_startproc
 215               	/* prologue: function */
 216               	/* frame size = 0 */
 217               	/* stack size = 0 */
 218               	.L__stack_usage = 0
 136:quantum/rgblight.c ****     led1->r = r;
 219               		.loc 1 136 62 is_stmt 0 view .LVU49
 220 0000 F901      		movw r30,r18
 137:quantum/rgblight.c ****     led1->g = g;
 221               		.loc 1 137 5 is_stmt 1 view .LVU50
 137:quantum/rgblight.c ****     led1->g = g;
 222               		.loc 1 137 13 is_stmt 0 view .LVU51
 223 0002 8183      		std Z+1,r24
 138:quantum/rgblight.c ****     led1->b = b;
 224               		.loc 1 138 5 is_stmt 1 view .LVU52
 138:quantum/rgblight.c ****     led1->b = b;
 225               		.loc 1 138 13 is_stmt 0 view .LVU53
 226 0004 6083      		st Z,r22
 139:quantum/rgblight.c **** #ifdef RGBW
 227               		.loc 1 139 5 is_stmt 1 view .LVU54
 139:quantum/rgblight.c **** #ifdef RGBW
 228               		.loc 1 139 13 is_stmt 0 view .LVU55
 229 0006 4283      		std Z+2,r20
 230               	/* epilogue start */
 143:quantum/rgblight.c **** 
 231               		.loc 1 143 1 view .LVU56
 232 0008 0895      		ret
 233               		.cfi_endproc
 234               	.LFE89:
 236               		.section	.text.rgblight_check_config,"ax",@progbits
 237               	.global	rgblight_check_config
 239               	rgblight_check_config:
 240               	.LFB90:
 145:quantum/rgblight.c ****     /* Add some out of bound checks for RGB light config */
 241               		.loc 1 145 34 is_stmt 1 view -0
 242               		.cfi_startproc
 243               	/* prologue: function */
 244               	/* frame size = 0 */
 245               	/* stack size = 0 */
 246               	.L__stack_usage = 0
 148:quantum/rgblight.c ****         rgblight_config.mode = RGBLIGHT_MODE_STATIC_LIGHT;
 247               		.loc 1 148 5 view .LVU58
 148:quantum/rgblight.c ****         rgblight_config.mode = RGBLIGHT_MODE_STATIC_LIGHT;
 248               		.loc 1 148 30 is_stmt 0 view .LVU59
 249 0000 8091 0000 		lds r24,rgblight_config
 250 0004 982F      		mov r25,r24
 251 0006 9E7F      		andi r25,lo8(-2)
 148:quantum/rgblight.c ****         rgblight_config.mode = RGBLIGHT_MODE_STATIC_LIGHT;
 252               		.loc 1 148 8 view .LVU60
 253 0008 01F4      		brne .L11
 149:quantum/rgblight.c ****     } else if (rgblight_config.mode > RGBLIGHT_MODES) {
 254               		.loc 1 149 9 is_stmt 1 view .LVU61
 149:quantum/rgblight.c ****     } else if (rgblight_config.mode > RGBLIGHT_MODES) {
 255               		.loc 1 149 30 is_stmt 0 view .LVU62
 256 000a 8170      		andi r24,lo8(1)
 257 000c 8260      		ori r24,lo8(2)
 258               	.L14:
 151:quantum/rgblight.c ****     }
 259               		.loc 1 151 30 view .LVU63
 260 000e 8093 0000 		sts rgblight_config,r24
 261               	.L12:
 154:quantum/rgblight.c ****         rgblight_config.val = RGBLIGHT_LIMIT_VAL;
 262               		.loc 1 154 5 is_stmt 1 view .LVU64
 154:quantum/rgblight.c ****         rgblight_config.val = RGBLIGHT_LIMIT_VAL;
 263               		.loc 1 154 8 is_stmt 0 view .LVU65
 264 0012 8091 0000 		lds r24,rgblight_config+3
 265 0016 8937      		cpi r24,lo8(121)
 266 0018 00F0      		brlo .L10
 155:quantum/rgblight.c ****     }
 267               		.loc 1 155 9 is_stmt 1 view .LVU66
 155:quantum/rgblight.c ****     }
 268               		.loc 1 155 29 is_stmt 0 view .LVU67
 269 001a 88E7      		ldi r24,lo8(120)
 270 001c 8093 0000 		sts rgblight_config+3,r24
 271               	.L10:
 272               	/* epilogue start */
 157:quantum/rgblight.c **** 
 273               		.loc 1 157 1 view .LVU68
 274 0020 0895      		ret
 275               	.L11:
 150:quantum/rgblight.c ****         rgblight_config.mode = RGBLIGHT_MODES;
 276               		.loc 1 150 12 is_stmt 1 view .LVU69
 150:quantum/rgblight.c ****         rgblight_config.mode = RGBLIGHT_MODES;
 277               		.loc 1 150 15 is_stmt 0 view .LVU70
 278 0022 8635      		cpi r24,lo8(86)
 279 0024 00F0      		brlo .L12
 151:quantum/rgblight.c ****     }
 280               		.loc 1 151 9 is_stmt 1 view .LVU71
 151:quantum/rgblight.c ****     }
 281               		.loc 1 151 30 is_stmt 0 view .LVU72
 282 0026 8170      		andi r24,lo8(1)
 283 0028 8465      		ori r24,lo8(84)
 284 002a 00C0      		rjmp .L14
 285               		.cfi_endproc
 286               	.LFE90:
 288               		.section	.text.eeconfig_read_rgblight,"ax",@progbits
 289               	.global	eeconfig_read_rgblight
 291               	eeconfig_read_rgblight:
 292               	.LFB91:
 159:quantum/rgblight.c **** #ifdef EEPROM_ENABLE
 293               		.loc 1 159 39 is_stmt 1 view -0
 294               		.cfi_startproc
 295               	/* prologue: function */
 296               	/* frame size = 0 */
 297               	/* stack size = 0 */
 298               	.L__stack_usage = 0
 161:quantum/rgblight.c **** #else
 299               		.loc 1 161 5 view .LVU74
 161:quantum/rgblight.c **** #else
 300               		.loc 1 161 12 is_stmt 0 view .LVU75
 301 0000 88E0      		ldi r24,lo8(8)
 302 0002 90E0      		ldi r25,0
 303 0004 0C94 0000 		jmp eeprom_read_dword
 304               	.LVL17:
 305               		.cfi_endproc
 306               	.LFE91:
 308               		.section	.text.eeconfig_update_rgblight,"ax",@progbits
 309               	.global	eeconfig_update_rgblight
 311               	eeconfig_update_rgblight:
 312               	.LVL18:
 313               	.LFB92:
 167:quantum/rgblight.c **** #ifdef EEPROM_ENABLE
 314               		.loc 1 167 45 is_stmt 1 view -0
 315               		.cfi_startproc
 167:quantum/rgblight.c **** #ifdef EEPROM_ENABLE
 316               		.loc 1 167 45 is_stmt 0 view .LVU77
 317 0000 CF92      		push r12
 318               	.LCFI2:
 319               		.cfi_def_cfa_offset 3
 320               		.cfi_offset 12, -2
 321 0002 DF92      		push r13
 322               	.LCFI3:
 323               		.cfi_def_cfa_offset 4
 324               		.cfi_offset 13, -3
 325 0004 EF92      		push r14
 326               	.LCFI4:
 327               		.cfi_def_cfa_offset 5
 328               		.cfi_offset 14, -4
 329 0006 FF92      		push r15
 330               	.LCFI5:
 331               		.cfi_def_cfa_offset 6
 332               		.cfi_offset 15, -5
 333               	/* prologue: function */
 334               	/* frame size = 0 */
 335               	/* stack size = 4 */
 336               	.L__stack_usage = 4
 337 0008 6B01      		movw r12,r22
 338 000a 7C01      		movw r14,r24
 169:quantum/rgblight.c ****     eeprom_update_dword(EECONFIG_RGBLIGHT, val);
 339               		.loc 1 169 5 is_stmt 1 view .LVU78
 340 000c 0E94 0000 		call rgblight_check_config
 341               	.LVL19:
 170:quantum/rgblight.c **** #endif
 342               		.loc 1 170 5 view .LVU79
 343 0010 B701      		movw r22,r14
 344 0012 A601      		movw r20,r12
 345 0014 88E0      		ldi r24,lo8(8)
 346 0016 90E0      		ldi r25,0
 347               	/* epilogue start */
 172:quantum/rgblight.c **** 
 348               		.loc 1 172 1 is_stmt 0 view .LVU80
 349 0018 FF90      		pop r15
 350 001a EF90      		pop r14
 351 001c DF90      		pop r13
 352 001e CF90      		pop r12
 170:quantum/rgblight.c **** #endif
 353               		.loc 1 170 5 view .LVU81
 354 0020 0C94 0000 		jmp eeprom_update_dword
 355               	.LVL20:
 356               		.cfi_endproc
 357               	.LFE92:
 359               		.section	.text.eeconfig_update_rgblight_current,"ax",@progbits
 360               	.global	eeconfig_update_rgblight_current
 362               	eeconfig_update_rgblight_current:
 363               	.LFB93:
 174:quantum/rgblight.c **** 
 364               		.loc 1 174 45 is_stmt 1 view -0
 365               		.cfi_startproc
 366               	/* prologue: function */
 367               	/* frame size = 0 */
 368               	/* stack size = 0 */
 369               	.L__stack_usage = 0
 174:quantum/rgblight.c **** 
 370               		.loc 1 174 47 view .LVU83
 371 0000 6091 0000 		lds r22,rgblight_config
 372 0004 7091 0000 		lds r23,rgblight_config+1
 373 0008 8091 0000 		lds r24,rgblight_config+2
 374 000c 9091 0000 		lds r25,rgblight_config+3
 375 0010 0C94 0000 		jmp eeconfig_update_rgblight
 376               	.LVL21:
 377               		.cfi_endproc
 378               	.LFE93:
 380               		.section	.text.eeconfig_update_rgblight_default,"ax",@progbits
 381               	.global	eeconfig_update_rgblight_default
 383               	eeconfig_update_rgblight_default:
 384               	.LFB94:
 176:quantum/rgblight.c ****     rgblight_config.enable = 1;
 385               		.loc 1 176 45 view -0
 386               		.cfi_startproc
 387               	/* prologue: function */
 388               	/* frame size = 0 */
 389               	/* stack size = 0 */
 390               	.L__stack_usage = 0
 177:quantum/rgblight.c ****     rgblight_config.mode   = RGBLIGHT_MODE_STATIC_LIGHT;
 391               		.loc 1 177 5 view .LVU85
 178:quantum/rgblight.c ****     rgblight_config.hue    = 0;
 392               		.loc 1 178 5 view .LVU86
 179:quantum/rgblight.c ****     rgblight_config.sat    = UINT8_MAX;
 393               		.loc 1 179 5 view .LVU87
 180:quantum/rgblight.c ****     rgblight_config.val    = RGBLIGHT_LIMIT_VAL;
 394               		.loc 1 180 5 view .LVU88
 181:quantum/rgblight.c ****     rgblight_config.speed  = 0;
 395               		.loc 1 181 5 view .LVU89
 182:quantum/rgblight.c ****     RGBLIGHT_SPLIT_SET_CHANGE_MODEHSVS;
 396               		.loc 1 182 5 view .LVU90
 177:quantum/rgblight.c ****     rgblight_config.mode   = RGBLIGHT_MODE_STATIC_LIGHT;
 397               		.loc 1 177 28 is_stmt 0 view .LVU91
 398 0000 E0E0      		ldi r30,lo8(rgblight_config)
 399 0002 F0E0      		ldi r31,hi8(rgblight_config)
 400 0004 83E0      		ldi r24,lo8(3)
 401 0006 8083      		st Z,r24
 179:quantum/rgblight.c ****     rgblight_config.sat    = UINT8_MAX;
 402               		.loc 1 179 28 view .LVU92
 403 0008 1182      		std Z+1,__zero_reg__
 180:quantum/rgblight.c ****     rgblight_config.val    = RGBLIGHT_LIMIT_VAL;
 404               		.loc 1 180 28 view .LVU93
 405 000a 8FEF      		ldi r24,lo8(-1)
 406 000c 8283      		std Z+2,r24
 181:quantum/rgblight.c ****     rgblight_config.speed  = 0;
 407               		.loc 1 181 28 view .LVU94
 408 000e 88E7      		ldi r24,lo8(120)
 409 0010 8383      		std Z+3,r24
 182:quantum/rgblight.c ****     RGBLIGHT_SPLIT_SET_CHANGE_MODEHSVS;
 410               		.loc 1 182 28 view .LVU95
 411 0012 1482      		std Z+4,__zero_reg__
 183:quantum/rgblight.c ****     eeconfig_update_rgblight(rgblight_config.raw);
 412               		.loc 1 183 5 is_stmt 1 view .LVU96
 413 0014 A0E0      		ldi r26,lo8(rgblight_status)
 414 0016 B0E0      		ldi r27,hi8(rgblight_status)
 415 0018 1296      		adiw r26,2
 416 001a 8C91      		ld r24,X
 417 001c 1297      		sbiw r26,2
 418 001e 8360      		ori r24,lo8(3)
 419 0020 1296      		adiw r26,2
 420 0022 8C93      		st X,r24
 184:quantum/rgblight.c **** }
 421               		.loc 1 184 5 view .LVU97
 422 0024 6081      		ld r22,Z
 423 0026 7181      		ldd r23,Z+1
 424 0028 8281      		ldd r24,Z+2
 425 002a 9381      		ldd r25,Z+3
 426 002c 0C94 0000 		jmp eeconfig_update_rgblight
 427               	.LVL22:
 428               		.cfi_endproc
 429               	.LFE94:
 431               		.section	.text.eeconfig_debug_rgblight,"ax",@progbits
 432               	.global	eeconfig_debug_rgblight
 434               	eeconfig_debug_rgblight:
 435               	.LFB95:
 187:quantum/rgblight.c ****     dprintf("rgblight_config EEPROM:\n");
 436               		.loc 1 187 36 view -0
 437               		.cfi_startproc
 438               	/* prologue: function */
 439               	/* frame size = 0 */
 440               	/* stack size = 0 */
 441               	.L__stack_usage = 0
 188:quantum/rgblight.c ****     dprintf("rgblight_config.enable = %d\n", rgblight_config.enable);
 442               		.loc 1 188 41 view .LVU99
 189:quantum/rgblight.c ****     dprintf("rghlight_config.mode = %d\n", rgblight_config.mode);
 443               		.loc 1 189 69 view .LVU100
 190:quantum/rgblight.c ****     dprintf("rgblight_config.hue = %d\n", rgblight_config.hue);
 444               		.loc 1 190 65 view .LVU101
 191:quantum/rgblight.c ****     dprintf("rgblight_config.sat = %d\n", rgblight_config.sat);
 445               		.loc 1 191 63 view .LVU102
 192:quantum/rgblight.c ****     dprintf("rgblight_config.val = %d\n", rgblight_config.val);
 446               		.loc 1 192 63 view .LVU103
 193:quantum/rgblight.c ****     dprintf("rgblight_config.speed = %d\n", rgblight_config.speed);
 447               		.loc 1 193 63 view .LVU104
 194:quantum/rgblight.c **** }
 448               		.loc 1 194 67 view .LVU105
 449               	/* epilogue start */
 195:quantum/rgblight.c **** 
 450               		.loc 1 195 1 is_stmt 0 view .LVU106
 451 0000 0895      		ret
 452               		.cfi_endproc
 453               	.LFE95:
 455               		.section	.text.rgblight_read_dword,"ax",@progbits
 456               	.global	rgblight_read_dword
 458               	rgblight_read_dword:
 459               	.LFB97:
 232:quantum/rgblight.c **** 
 460               		.loc 1 232 36 is_stmt 1 view -0
 461               		.cfi_startproc
 462               	/* prologue: function */
 463               	/* frame size = 0 */
 464               	/* stack size = 0 */
 465               	.L__stack_usage = 0
 232:quantum/rgblight.c **** 
 466               		.loc 1 232 38 view .LVU108
 232:quantum/rgblight.c **** 
 467               		.loc 1 232 60 is_stmt 0 view .LVU109
 468 0000 6091 0000 		lds r22,rgblight_config
 469 0004 7091 0000 		lds r23,rgblight_config+1
 470 0008 8091 0000 		lds r24,rgblight_config+2
 471 000c 9091 0000 		lds r25,rgblight_config+3
 472               	/* epilogue start */
 232:quantum/rgblight.c **** 
 473               		.loc 1 232 1 view .LVU110
 474 0010 0895      		ret
 475               		.cfi_endproc
 476               	.LFE97:
 478               		.section	.text.rgblight_get_mode,"ax",@progbits
 479               	.global	rgblight_get_mode
 481               	rgblight_get_mode:
 482               	.LFB107:
 281:quantum/rgblight.c ****     if (!rgblight_config.enable) {
 483               		.loc 1 281 33 is_stmt 1 view -0
 484               		.cfi_startproc
 485               	/* prologue: function */
 486               	/* frame size = 0 */
 487               	/* stack size = 0 */
 488               	.L__stack_usage = 0
 282:quantum/rgblight.c ****         return false;
 489               		.loc 1 282 5 view .LVU112
 282:quantum/rgblight.c ****         return false;
 490               		.loc 1 282 25 is_stmt 0 view .LVU113
 491 0000 8091 0000 		lds r24,rgblight_config
 282:quantum/rgblight.c ****         return false;
 492               		.loc 1 282 8 view .LVU114
 493 0004 80FF      		sbrs r24,0
 494 0006 00C0      		rjmp .L23
 286:quantum/rgblight.c **** }
 495               		.loc 1 286 5 is_stmt 1 view .LVU115
 286:quantum/rgblight.c **** }
 496               		.loc 1 286 27 is_stmt 0 view .LVU116
 497 0008 8695      		lsr r24
 498 000a 0895      		ret
 499               	.L23:
 283:quantum/rgblight.c ****     }
 500               		.loc 1 283 16 view .LVU117
 501 000c 80E0      		ldi r24,0
 502               	/* epilogue start */
 287:quantum/rgblight.c **** 
 503               		.loc 1 287 1 view .LVU118
 504 000e 0895      		ret
 505               		.cfi_endproc
 506               	.LFE107:
 508               		.section	.text.rgblight_is_enabled,"ax",@progbits
 509               	.global	rgblight_is_enabled
 511               	rgblight_is_enabled:
 512               	.LFB117:
 373:quantum/rgblight.c **** 
 513               		.loc 1 373 32 is_stmt 1 view -0
 514               		.cfi_startproc
 515               	/* prologue: function */
 516               	/* frame size = 0 */
 517               	/* stack size = 0 */
 518               	.L__stack_usage = 0
 373:quantum/rgblight.c **** 
 519               		.loc 1 373 34 view .LVU120
 373:quantum/rgblight.c **** 
 520               		.loc 1 373 56 is_stmt 0 view .LVU121
 521 0000 8091 0000 		lds r24,rgblight_config
 373:quantum/rgblight.c **** 
 522               		.loc 1 373 1 view .LVU122
 523 0004 8170      		andi r24,lo8(1)
 524               	/* epilogue start */
 525 0006 0895      		ret
 526               		.cfi_endproc
 527               	.LFE117:
 529               		.section	.text.rgblight_increase_speed_helper,"ax",@progbits
 530               	.global	rgblight_increase_speed_helper
 532               	rgblight_increase_speed_helper:
 533               	.LVL23:
 534               	.LFB136:
 412:quantum/rgblight.c ****     if (rgblight_config.speed < 3) rgblight_config.speed++;
 535               		.loc 1 412 59 is_stmt 1 view -0
 536               		.cfi_startproc
 537               	/* prologue: function */
 538               	/* frame size = 0 */
 539               	/* stack size = 0 */
 540               	.L__stack_usage = 0
 413:quantum/rgblight.c ****     // RGBLIGHT_SPLIT_SET_CHANGE_HSVS; // NEED?
 541               		.loc 1 413 5 view .LVU124
 413:quantum/rgblight.c ****     // RGBLIGHT_SPLIT_SET_CHANGE_HSVS; // NEED?
 542               		.loc 1 413 24 is_stmt 0 view .LVU125
 543 0000 9091 0000 		lds r25,rgblight_config+4
 413:quantum/rgblight.c ****     // RGBLIGHT_SPLIT_SET_CHANGE_HSVS; // NEED?
 544               		.loc 1 413 8 view .LVU126
 545 0004 9330      		cpi r25,lo8(3)
 546 0006 00F4      		brsh .L26
 413:quantum/rgblight.c ****     // RGBLIGHT_SPLIT_SET_CHANGE_HSVS; // NEED?
 547               		.loc 1 413 36 is_stmt 1 discriminator 1 view .LVU127
 413:quantum/rgblight.c ****     // RGBLIGHT_SPLIT_SET_CHANGE_HSVS; // NEED?
 548               		.loc 1 413 57 is_stmt 0 discriminator 1 view .LVU128
 549 0008 9F5F      		subi r25,lo8(-(1))
 550 000a 9093 0000 		sts rgblight_config+4,r25
 551               	.L26:
 415:quantum/rgblight.c ****         eeconfig_update_rgblight(rgblight_config.raw);  // EECONFIG needs to be increased to suppor
 552               		.loc 1 415 5 is_stmt 1 view .LVU129
 415:quantum/rgblight.c ****         eeconfig_update_rgblight(rgblight_config.raw);  // EECONFIG needs to be increased to suppor
 553               		.loc 1 415 8 is_stmt 0 view .LVU130
 554 000e 8823      		tst r24
 555 0010 01F0      		breq .L25
 416:quantum/rgblight.c ****     }
 556               		.loc 1 416 9 is_stmt 1 view .LVU131
 557 0012 6091 0000 		lds r22,rgblight_config
 558 0016 7091 0000 		lds r23,rgblight_config+1
 559 001a 8091 0000 		lds r24,rgblight_config+2
 560 001e 9091 0000 		lds r25,rgblight_config+3
 561 0022 0C94 0000 		jmp eeconfig_update_rgblight
 562               	.LVL24:
 563               	.L25:
 564               	/* epilogue start */
 418:quantum/rgblight.c **** void rgblight_increase_speed(void) { rgblight_increase_speed_helper(true); }
 565               		.loc 1 418 1 is_stmt 0 view .LVU132
 566 0026 0895      		ret
 567               		.cfi_endproc
 568               	.LFE136:
 570               		.section	.text.rgblight_increase_speed,"ax",@progbits
 571               	.global	rgblight_increase_speed
 573               	rgblight_increase_speed:
 574               	.LFB137:
 419:quantum/rgblight.c **** void rgblight_increase_speed_noeeprom(void) { rgblight_increase_speed_helper(false); }
 575               		.loc 1 419 36 is_stmt 1 view -0
 576               		.cfi_startproc
 577               	/* prologue: function */
 578               	/* frame size = 0 */
 579               	/* stack size = 0 */
 580               	.L__stack_usage = 0
 419:quantum/rgblight.c **** void rgblight_increase_speed_noeeprom(void) { rgblight_increase_speed_helper(false); }
 581               		.loc 1 419 38 view .LVU134
 582 0000 81E0      		ldi r24,lo8(1)
 583 0002 0C94 0000 		jmp rgblight_increase_speed_helper
 584               	.LVL25:
 585               		.cfi_endproc
 586               	.LFE137:
 588               		.section	.text.rgblight_increase_speed_noeeprom,"ax",@progbits
 589               	.global	rgblight_increase_speed_noeeprom
 591               	rgblight_increase_speed_noeeprom:
 592               	.LFB138:
 420:quantum/rgblight.c **** 
 593               		.loc 1 420 45 view -0
 594               		.cfi_startproc
 595               	/* prologue: function */
 596               	/* frame size = 0 */
 597               	/* stack size = 0 */
 598               	.L__stack_usage = 0
 420:quantum/rgblight.c **** 
 599               		.loc 1 420 47 view .LVU136
 600 0000 80E0      		ldi r24,0
 601 0002 0C94 0000 		jmp rgblight_increase_speed_helper
 602               	.LVL26:
 603               		.cfi_endproc
 604               	.LFE138:
 606               		.section	.text.rgblight_decrease_speed_helper,"ax",@progbits
 607               	.global	rgblight_decrease_speed_helper
 609               	rgblight_decrease_speed_helper:
 610               	.LVL27:
 611               	.LFB139:
 422:quantum/rgblight.c ****     if (rgblight_config.speed > 0) rgblight_config.speed--;
 612               		.loc 1 422 59 view -0
 613               		.cfi_startproc
 614               	/* prologue: function */
 615               	/* frame size = 0 */
 616               	/* stack size = 0 */
 617               	.L__stack_usage = 0
 423:quantum/rgblight.c ****     // RGBLIGHT_SPLIT_SET_CHANGE_HSVS; // NEED??
 618               		.loc 1 423 5 view .LVU138
 423:quantum/rgblight.c ****     // RGBLIGHT_SPLIT_SET_CHANGE_HSVS; // NEED??
 619               		.loc 1 423 24 is_stmt 0 view .LVU139
 620 0000 9091 0000 		lds r25,rgblight_config+4
 423:quantum/rgblight.c ****     // RGBLIGHT_SPLIT_SET_CHANGE_HSVS; // NEED??
 621               		.loc 1 423 8 view .LVU140
 622 0004 9923      		tst r25
 623 0006 01F0      		breq .L31
 423:quantum/rgblight.c ****     // RGBLIGHT_SPLIT_SET_CHANGE_HSVS; // NEED??
 624               		.loc 1 423 36 is_stmt 1 discriminator 1 view .LVU141
 423:quantum/rgblight.c ****     // RGBLIGHT_SPLIT_SET_CHANGE_HSVS; // NEED??
 625               		.loc 1 423 57 is_stmt 0 discriminator 1 view .LVU142
 626 0008 9150      		subi r25,lo8(-(-1))
 627 000a 9093 0000 		sts rgblight_config+4,r25
 628               	.L31:
 425:quantum/rgblight.c ****         eeconfig_update_rgblight(rgblight_config.raw);  // EECONFIG needs to be increased to suppor
 629               		.loc 1 425 5 is_stmt 1 view .LVU143
 425:quantum/rgblight.c ****         eeconfig_update_rgblight(rgblight_config.raw);  // EECONFIG needs to be increased to suppor
 630               		.loc 1 425 8 is_stmt 0 view .LVU144
 631 000e 8823      		tst r24
 632 0010 01F0      		breq .L30
 426:quantum/rgblight.c ****     }
 633               		.loc 1 426 9 is_stmt 1 view .LVU145
 634 0012 6091 0000 		lds r22,rgblight_config
 635 0016 7091 0000 		lds r23,rgblight_config+1
 636 001a 8091 0000 		lds r24,rgblight_config+2
 637 001e 9091 0000 		lds r25,rgblight_config+3
 638 0022 0C94 0000 		jmp eeconfig_update_rgblight
 639               	.LVL28:
 640               	.L30:
 641               	/* epilogue start */
 428:quantum/rgblight.c **** void rgblight_decrease_speed(void) { rgblight_decrease_speed_helper(true); }
 642               		.loc 1 428 1 is_stmt 0 view .LVU146
 643 0026 0895      		ret
 644               		.cfi_endproc
 645               	.LFE139:
 647               		.section	.text.rgblight_decrease_speed,"ax",@progbits
 648               	.global	rgblight_decrease_speed
 650               	rgblight_decrease_speed:
 651               	.LFB140:
 429:quantum/rgblight.c **** void rgblight_decrease_speed_noeeprom(void) { rgblight_decrease_speed_helper(false); }
 652               		.loc 1 429 36 is_stmt 1 view -0
 653               		.cfi_startproc
 654               	/* prologue: function */
 655               	/* frame size = 0 */
 656               	/* stack size = 0 */
 657               	.L__stack_usage = 0
 429:quantum/rgblight.c **** void rgblight_decrease_speed_noeeprom(void) { rgblight_decrease_speed_helper(false); }
 658               		.loc 1 429 38 view .LVU148
 659 0000 81E0      		ldi r24,lo8(1)
 660 0002 0C94 0000 		jmp rgblight_decrease_speed_helper
 661               	.LVL29:
 662               		.cfi_endproc
 663               	.LFE140:
 665               		.section	.text.rgblight_decrease_speed_noeeprom,"ax",@progbits
 666               	.global	rgblight_decrease_speed_noeeprom
 668               	rgblight_decrease_speed_noeeprom:
 669               	.LFB141:
 430:quantum/rgblight.c **** 
 670               		.loc 1 430 45 view -0
 671               		.cfi_startproc
 672               	/* prologue: function */
 673               	/* frame size = 0 */
 674               	/* stack size = 0 */
 675               	.L__stack_usage = 0
 430:quantum/rgblight.c **** 
 676               		.loc 1 430 47 view .LVU150
 677 0000 80E0      		ldi r24,0
 678 0002 0C94 0000 		jmp rgblight_decrease_speed_helper
 679               	.LVL30:
 680               		.cfi_endproc
 681               	.LFE141:
 683               		.section	.text.rgblight_get_speed,"ax",@progbits
 684               	.global	rgblight_get_speed
 686               	rgblight_get_speed:
 687               	.LFB146:
 516:quantum/rgblight.c **** 
 688               		.loc 1 516 34 view -0
 689               		.cfi_startproc
 690               	/* prologue: function */
 691               	/* frame size = 0 */
 692               	/* stack size = 0 */
 693               	.L__stack_usage = 0
 516:quantum/rgblight.c **** 
 694               		.loc 1 516 36 view .LVU152
 516:quantum/rgblight.c **** 
 695               		.loc 1 516 1 is_stmt 0 view .LVU153
 696 0000 8091 0000 		lds r24,rgblight_config+4
 697               	/* epilogue start */
 698 0004 0895      		ret
 699               		.cfi_endproc
 700               	.LFE146:
 702               		.section	.text.rgblight_set_speed_eeprom_helper,"ax",@progbits
 703               	.global	rgblight_set_speed_eeprom_helper
 705               	rgblight_set_speed_eeprom_helper:
 706               	.LVL31:
 707               	.LFB147:
 518:quantum/rgblight.c ****     rgblight_config.speed = speed;
 708               		.loc 1 518 76 is_stmt 1 view -0
 709               		.cfi_startproc
 710               	/* prologue: function */
 711               	/* frame size = 0 */
 712               	/* stack size = 0 */
 713               	.L__stack_usage = 0
 519:quantum/rgblight.c ****     if (write_to_eeprom) {
 714               		.loc 1 519 5 view .LVU155
 519:quantum/rgblight.c ****     if (write_to_eeprom) {
 715               		.loc 1 519 27 is_stmt 0 view .LVU156
 716 0000 8093 0000 		sts rgblight_config+4,r24
 520:quantum/rgblight.c ****         eeconfig_update_rgblight(rgblight_config.raw);  // EECONFIG needs to be increased to suppor
 717               		.loc 1 520 5 is_stmt 1 view .LVU157
 520:quantum/rgblight.c ****         eeconfig_update_rgblight(rgblight_config.raw);  // EECONFIG needs to be increased to suppor
 718               		.loc 1 520 8 is_stmt 0 view .LVU158
 719 0004 6623      		tst r22
 720 0006 01F0      		breq .L39
 521:quantum/rgblight.c ****         dprintf("rgblight set speed [EEPROM]: %u\n", rgblight_config.speed);
 721               		.loc 1 521 9 is_stmt 1 view .LVU159
 722 0008 6091 0000 		lds r22,rgblight_config
 723 000c 7091 0000 		lds r23,rgblight_config+1
 724 0010 8091 0000 		lds r24,rgblight_config+2
 725 0014 9091 0000 		lds r25,rgblight_config+3
 726               	.LVL32:
 521:quantum/rgblight.c ****         dprintf("rgblight set speed [EEPROM]: %u\n", rgblight_config.speed);
 727               		.loc 1 521 9 is_stmt 0 view .LVU160
 728 0018 0C94 0000 		jmp eeconfig_update_rgblight
 729               	.LVL33:
 730               	.L39:
 731               	/* epilogue start */
 526:quantum/rgblight.c **** 
 732               		.loc 1 526 1 view .LVU161
 733 001c 0895      		ret
 734               		.cfi_endproc
 735               	.LFE147:
 737               		.section	.text.rgblight_set_speed,"ax",@progbits
 738               	.global	rgblight_set_speed
 740               	rgblight_set_speed:
 741               	.LVL34:
 742               	.LFB148:
 528:quantum/rgblight.c **** 
 743               		.loc 1 528 40 is_stmt 1 view -0
 744               		.cfi_startproc
 745               	/* prologue: function */
 746               	/* frame size = 0 */
 747               	/* stack size = 0 */
 748               	.L__stack_usage = 0
 528:quantum/rgblight.c **** 
 749               		.loc 1 528 42 view .LVU163
 750 0000 61E0      		ldi r22,lo8(1)
 751 0002 0C94 0000 		jmp rgblight_set_speed_eeprom_helper
 752               	.LVL35:
 528:quantum/rgblight.c **** 
 753               		.loc 1 528 42 is_stmt 0 view .LVU164
 754               		.cfi_endproc
 755               	.LFE148:
 757               		.section	.text.rgblight_set_speed_noeeprom,"ax",@progbits
 758               	.global	rgblight_set_speed_noeeprom
 760               	rgblight_set_speed_noeeprom:
 761               	.LVL36:
 762               	.LFB149:
 530:quantum/rgblight.c **** 
 763               		.loc 1 530 49 is_stmt 1 view -0
 764               		.cfi_startproc
 765               	/* prologue: function */
 766               	/* frame size = 0 */
 767               	/* stack size = 0 */
 768               	.L__stack_usage = 0
 530:quantum/rgblight.c **** 
 769               		.loc 1 530 51 view .LVU166
 770 0000 60E0      		ldi r22,0
 771 0002 0C94 0000 		jmp rgblight_set_speed_eeprom_helper
 772               	.LVL37:
 530:quantum/rgblight.c **** 
 773               		.loc 1 530 51 is_stmt 0 view .LVU167
 774               		.cfi_endproc
 775               	.LFE149:
 777               		.section	.text.rgblight_get_hue,"ax",@progbits
 778               	.global	rgblight_get_hue
 780               	rgblight_get_hue:
 781               	.LFB150:
 532:quantum/rgblight.c **** 
 782               		.loc 1 532 32 is_stmt 1 view -0
 783               		.cfi_startproc
 784               	/* prologue: function */
 785               	/* frame size = 0 */
 786               	/* stack size = 0 */
 787               	.L__stack_usage = 0
 532:quantum/rgblight.c **** 
 788               		.loc 1 532 34 view .LVU169
 532:quantum/rgblight.c **** 
 789               		.loc 1 532 1 is_stmt 0 view .LVU170
 790 0000 8091 0000 		lds r24,rgblight_config+1
 791               	/* epilogue start */
 792 0004 0895      		ret
 793               		.cfi_endproc
 794               	.LFE150:
 796               		.section	.text.rgblight_get_sat,"ax",@progbits
 797               	.global	rgblight_get_sat
 799               	rgblight_get_sat:
 800               	.LFB151:
 534:quantum/rgblight.c **** 
 801               		.loc 1 534 32 is_stmt 1 view -0
 802               		.cfi_startproc
 803               	/* prologue: function */
 804               	/* frame size = 0 */
 805               	/* stack size = 0 */
 806               	.L__stack_usage = 0
 534:quantum/rgblight.c **** 
 807               		.loc 1 534 34 view .LVU172
 534:quantum/rgblight.c **** 
 808               		.loc 1 534 1 is_stmt 0 view .LVU173
 809 0000 8091 0000 		lds r24,rgblight_config+2
 810               	/* epilogue start */
 811 0004 0895      		ret
 812               		.cfi_endproc
 813               	.LFE151:
 815               		.section	.text.rgblight_get_val,"ax",@progbits
 816               	.global	rgblight_get_val
 818               	rgblight_get_val:
 819               	.LFB152:
 536:quantum/rgblight.c **** 
 820               		.loc 1 536 32 is_stmt 1 view -0
 821               		.cfi_startproc
 822               	/* prologue: function */
 823               	/* frame size = 0 */
 824               	/* stack size = 0 */
 825               	.L__stack_usage = 0
 536:quantum/rgblight.c **** 
 826               		.loc 1 536 34 view .LVU175
 536:quantum/rgblight.c **** 
 827               		.loc 1 536 1 is_stmt 0 view .LVU176
 828 0000 8091 0000 		lds r24,rgblight_config+3
 829               	/* epilogue start */
 830 0004 0895      		ret
 831               		.cfi_endproc
 832               	.LFE152:
 834               		.section	.text.rgblight_get_hsv,"ax",@progbits
 835               	.global	rgblight_get_hsv
 837               	rgblight_get_hsv:
 838               	.LFB153:
 538:quantum/rgblight.c **** 
 839               		.loc 1 538 28 is_stmt 1 view -0
 840               		.cfi_startproc
 841               	/* prologue: function */
 842               	/* frame size = 0 */
 843               	/* stack size = 0 */
 844               	.L__stack_usage = 0
 538:quantum/rgblight.c **** 
 845               		.loc 1 538 30 view .LVU178
 538:quantum/rgblight.c **** 
 846               		.loc 1 538 79 is_stmt 0 view .LVU179
 847 0000 E0E0      		ldi r30,lo8(rgblight_config)
 848 0002 F0E0      		ldi r31,hi8(rgblight_config)
 849 0004 7281      		ldd r23,Z+2
 538:quantum/rgblight.c **** 
 850               		.loc 1 538 37 view .LVU180
 851 0006 6181      		ldd r22,Z+1
 538:quantum/rgblight.c **** 
 852               		.loc 1 538 1 view .LVU181
 853 0008 8381      		ldd r24,Z+3
 854               	/* epilogue start */
 855 000a 0895      		ret
 856               		.cfi_endproc
 857               	.LFE153:
 859               		.section	.text.rgblight_call_driver,"ax",@progbits
 860               		.weak	rgblight_call_driver
 862               	rgblight_call_driver:
 863               	.LVL38:
 864               	.LFB160:
 711:quantum/rgblight.c **** 
 865               		.loc 1 711 88 is_stmt 1 view -0
 866               		.cfi_startproc
 867               	/* prologue: function */
 868               	/* frame size = 0 */
 869               	/* stack size = 0 */
 870               	.L__stack_usage = 0
 711:quantum/rgblight.c **** 
 871               		.loc 1 711 90 view .LVU183
 872 0000 70E0      		ldi r23,0
 873 0002 0C94 0000 		jmp ws2812_setleds
 874               	.LVL39:
 711:quantum/rgblight.c **** 
 875               		.loc 1 711 90 is_stmt 0 view .LVU184
 876               		.cfi_endproc
 877               	.LFE160:
 879               		.section	.text.rgblight_set,"ax",@progbits
 880               	.global	rgblight_set
 882               	rgblight_set:
 883               	.LFB161:
 715:quantum/rgblight.c ****     LED_TYPE *start_led;
 884               		.loc 1 715 25 is_stmt 1 view -0
 885               		.cfi_startproc
 886               	/* prologue: function */
 887               	/* frame size = 0 */
 888               	/* stack size = 0 */
 889               	.L__stack_usage = 0
 716:quantum/rgblight.c ****     uint8_t   num_leds = rgblight_ranges.clipping_num_leds;
 890               		.loc 1 716 5 view .LVU186
 717:quantum/rgblight.c **** 
 891               		.loc 1 717 5 view .LVU187
 717:quantum/rgblight.c **** 
 892               		.loc 1 717 15 is_stmt 0 view .LVU188
 893 0000 6091 0000 		lds r22,rgblight_ranges+1
 894               	.LVL40:
 719:quantum/rgblight.c ****         for (uint8_t i = rgblight_ranges.effect_start_pos; i < rgblight_ranges.effect_end_pos; i++)
 895               		.loc 1 719 5 is_stmt 1 view .LVU189
 719:quantum/rgblight.c ****         for (uint8_t i = rgblight_ranges.effect_start_pos; i < rgblight_ranges.effect_end_pos; i++)
 896               		.loc 1 719 25 is_stmt 0 view .LVU190
 897 0004 8091 0000 		lds r24,rgblight_config
 719:quantum/rgblight.c ****         for (uint8_t i = rgblight_ranges.effect_start_pos; i < rgblight_ranges.effect_end_pos; i++)
 898               		.loc 1 719 8 view .LVU191
 899 0008 80FF      		sbrs r24,0
 900 000a 00C0      		rjmp .L49
 901               	.L52:
 747:quantum/rgblight.c **** #    endif
 902               		.loc 1 747 5 is_stmt 1 view .LVU192
 903               	.LVL41:
 755:quantum/rgblight.c **** }
 904               		.loc 1 755 5 view .LVU193
 747:quantum/rgblight.c **** #    endif
 905               		.loc 1 747 21 is_stmt 0 view .LVU194
 906 000c 8091 0000 		lds r24,rgblight_ranges
 907 0010 23E0      		ldi r18,lo8(3)
 908 0012 829F      		mul r24,r18
 909 0014 C001      		movw r24,r0
 910 0016 1124      		clr __zero_reg__
 755:quantum/rgblight.c **** }
 911               		.loc 1 755 5 view .LVU195
 912 0018 8050      		subi r24,lo8(-(led))
 913 001a 9040      		sbci r25,hi8(-(led))
 914 001c 0C94 0000 		jmp rgblight_call_driver
 915               	.LVL42:
 916               	.L49:
 720:quantum/rgblight.c ****             led[i].r = 0;
 917               		.loc 1 720 9 is_stmt 1 view .LVU196
 918               	.LBB22:
 720:quantum/rgblight.c ****             led[i].r = 0;
 919               		.loc 1 720 14 view .LVU197
 720:quantum/rgblight.c ****             led[i].r = 0;
 920               		.loc 1 720 22 is_stmt 0 view .LVU198
 921 0020 8091 0000 		lds r24,rgblight_ranges+2
 922               	.LVL43:
 720:quantum/rgblight.c ****             led[i].r = 0;
 923               		.loc 1 720 79 view .LVU199
 924 0024 9091 0000 		lds r25,rgblight_ranges+3
 925 0028 23E0      		ldi r18,lo8(3)
 926 002a 829F      		mul r24,r18
 927 002c F001      		movw r30,r0
 928 002e 1124      		clr __zero_reg__
 929 0030 E050      		subi r30,lo8(-(led))
 930 0032 F040      		sbci r31,hi8(-(led))
 931               	.L50:
 720:quantum/rgblight.c ****             led[i].r = 0;
 932               		.loc 1 720 60 is_stmt 1 discriminator 1 view .LVU200
 720:quantum/rgblight.c ****             led[i].r = 0;
 933               		.loc 1 720 9 is_stmt 0 discriminator 1 view .LVU201
 934 0034 8917      		cp r24,r25
 935 0036 00F4      		brsh .L52
 721:quantum/rgblight.c ****             led[i].g = 0;
 936               		.loc 1 721 13 is_stmt 1 discriminator 3 view .LVU202
 721:quantum/rgblight.c ****             led[i].g = 0;
 937               		.loc 1 721 22 is_stmt 0 discriminator 3 view .LVU203
 938 0038 1182      		std Z+1,__zero_reg__
 722:quantum/rgblight.c ****             led[i].b = 0;
 939               		.loc 1 722 13 is_stmt 1 discriminator 3 view .LVU204
 722:quantum/rgblight.c ****             led[i].b = 0;
 940               		.loc 1 722 22 is_stmt 0 discriminator 3 view .LVU205
 941 003a 1082      		st Z,__zero_reg__
 723:quantum/rgblight.c **** #    ifdef RGBW
 942               		.loc 1 723 13 is_stmt 1 discriminator 3 view .LVU206
 723:quantum/rgblight.c **** #    ifdef RGBW
 943               		.loc 1 723 22 is_stmt 0 discriminator 3 view .LVU207
 944 003c 1282      		std Z+2,__zero_reg__
 720:quantum/rgblight.c ****             led[i].r = 0;
 945               		.loc 1 720 96 is_stmt 1 discriminator 3 view .LVU208
 720:quantum/rgblight.c ****             led[i].r = 0;
 946               		.loc 1 720 97 is_stmt 0 discriminator 3 view .LVU209
 947 003e 8F5F      		subi r24,lo8(-(1))
 948               	.LVL44:
 720:quantum/rgblight.c ****             led[i].r = 0;
 949               		.loc 1 720 97 discriminator 3 view .LVU210
 950 0040 3396      		adiw r30,3
 951 0042 00C0      		rjmp .L50
 952               	.LBE22:
 953               		.cfi_endproc
 954               	.LFE161:
 956               		.section	.text.rgblight_setrgb,"ax",@progbits
 957               	.global	rgblight_setrgb
 959               	rgblight_setrgb:
 960               	.LVL45:
 961               	.LFB154:
 540:quantum/rgblight.c ****     if (!rgblight_config.enable) {
 962               		.loc 1 540 55 is_stmt 1 view -0
 963               		.cfi_startproc
 964               	/* prologue: function */
 965               	/* frame size = 0 */
 966               	/* stack size = 0 */
 967               	.L__stack_usage = 0
 541:quantum/rgblight.c ****         return;
 968               		.loc 1 541 5 view .LVU212
 541:quantum/rgblight.c ****         return;
 969               		.loc 1 541 25 is_stmt 0 view .LVU213
 970 0000 9091 0000 		lds r25,rgblight_config
 541:quantum/rgblight.c ****         return;
 971               		.loc 1 541 8 view .LVU214
 972 0004 90FF      		sbrs r25,0
 973 0006 00C0      		rjmp .L53
 545:quantum/rgblight.c ****         led[i].r = r;
 974               		.loc 1 545 5 is_stmt 1 view .LVU215
 975               	.LBB23:
 545:quantum/rgblight.c ****         led[i].r = r;
 976               		.loc 1 545 10 view .LVU216
 545:quantum/rgblight.c ****         led[i].r = r;
 977               		.loc 1 545 18 is_stmt 0 view .LVU217
 978 0008 9091 0000 		lds r25,rgblight_ranges+2
 979               	.LVL46:
 545:quantum/rgblight.c ****         led[i].r = r;
 980               		.loc 1 545 75 view .LVU218
 981 000c 2091 0000 		lds r18,rgblight_ranges+3
 982 0010 33E0      		ldi r19,lo8(3)
 983 0012 939F      		mul r25,r19
 984 0014 F001      		movw r30,r0
 985 0016 1124      		clr __zero_reg__
 986 0018 E050      		subi r30,lo8(-(led))
 987 001a F040      		sbci r31,hi8(-(led))
 988               	.L55:
 545:quantum/rgblight.c ****         led[i].r = r;
 989               		.loc 1 545 56 is_stmt 1 discriminator 1 view .LVU219
 545:quantum/rgblight.c ****         led[i].r = r;
 990               		.loc 1 545 5 is_stmt 0 discriminator 1 view .LVU220
 991 001c 9217      		cp r25,r18
 992 001e 00F0      		brlo .L56
 545:quantum/rgblight.c ****         led[i].r = r;
 993               		.loc 1 545 5 discriminator 1 view .LVU221
 994               	.LBE23:
 553:quantum/rgblight.c **** }
 995               		.loc 1 553 5 is_stmt 1 view .LVU222
 996 0020 0C94 0000 		jmp rgblight_set
 997               	.LVL47:
 998               	.L56:
 999               	.LBB24:
 546:quantum/rgblight.c ****         led[i].g = g;
 1000               		.loc 1 546 9 discriminator 3 view .LVU223
 546:quantum/rgblight.c ****         led[i].g = g;
 1001               		.loc 1 546 18 is_stmt 0 discriminator 3 view .LVU224
 1002 0024 8183      		std Z+1,r24
 547:quantum/rgblight.c ****         led[i].b = b;
 1003               		.loc 1 547 9 is_stmt 1 discriminator 3 view .LVU225
 547:quantum/rgblight.c ****         led[i].b = b;
 1004               		.loc 1 547 18 is_stmt 0 discriminator 3 view .LVU226
 1005 0026 6083      		st Z,r22
 548:quantum/rgblight.c **** #ifdef RGBW
 1006               		.loc 1 548 9 is_stmt 1 discriminator 3 view .LVU227
 548:quantum/rgblight.c **** #ifdef RGBW
 1007               		.loc 1 548 18 is_stmt 0 discriminator 3 view .LVU228
 1008 0028 4283      		std Z+2,r20
 545:quantum/rgblight.c ****         led[i].r = r;
 1009               		.loc 1 545 92 is_stmt 1 discriminator 3 view .LVU229
 545:quantum/rgblight.c ****         led[i].r = r;
 1010               		.loc 1 545 93 is_stmt 0 discriminator 3 view .LVU230
 1011 002a 9F5F      		subi r25,lo8(-(1))
 1012               	.LVL48:
 545:quantum/rgblight.c ****         led[i].r = r;
 1013               		.loc 1 545 93 discriminator 3 view .LVU231
 1014 002c 3396      		adiw r30,3
 1015 002e 00C0      		rjmp .L55
 1016               	.LVL49:
 1017               	.L53:
 1018               	/* epilogue start */
 545:quantum/rgblight.c ****         led[i].r = r;
 1019               		.loc 1 545 93 discriminator 3 view .LVU232
 1020               	.LBE24:
 554:quantum/rgblight.c **** 
 1021               		.loc 1 554 1 view .LVU233
 1022 0030 0895      		ret
 1023               		.cfi_endproc
 1024               	.LFE154:
 1026               		.section	.text.rgblight_sethsv_noeeprom_old,"ax",@progbits
 1027               	.global	rgblight_sethsv_noeeprom_old
 1029               	rgblight_sethsv_noeeprom_old:
 1030               	.LVL50:
 1031               	.LFB142:
 432:quantum/rgblight.c ****     if (rgblight_config.enable) {
 1032               		.loc 1 432 74 is_stmt 1 view -0
 1033               		.cfi_startproc
 432:quantum/rgblight.c ****     if (rgblight_config.enable) {
 1034               		.loc 1 432 74 is_stmt 0 view .LVU235
 1035 0000 CF93      		push r28
 1036               	.LCFI6:
 1037               		.cfi_def_cfa_offset 3
 1038               		.cfi_offset 28, -2
 1039 0002 DF93      		push r29
 1040               	.LCFI7:
 1041               		.cfi_def_cfa_offset 4
 1042               		.cfi_offset 29, -3
 1043 0004 00D0      		rcall .
 1044 0006 0F92      		push __tmp_reg__
 1045               	.LCFI8:
 1046               		.cfi_def_cfa_offset 7
 1047 0008 CDB7      		in r28,__SP_L__
 1048 000a DEB7      		in r29,__SP_H__
 1049               	.LCFI9:
 1050               		.cfi_def_cfa_register 28
 1051               	/* prologue: function */
 1052               	/* frame size = 3 */
 1053               	/* stack size = 5 */
 1054               	.L__stack_usage = 5
 433:quantum/rgblight.c ****         LED_TYPE tmp_led;
 1055               		.loc 1 433 5 is_stmt 1 view .LVU236
 433:quantum/rgblight.c ****         LED_TYPE tmp_led;
 1056               		.loc 1 433 9 is_stmt 0 view .LVU237
 1057 000c 9091 0000 		lds r25,rgblight_config
 433:quantum/rgblight.c ****         LED_TYPE tmp_led;
 1058               		.loc 1 433 8 view .LVU238
 1059 0010 90FF      		sbrs r25,0
 1060 0012 00C0      		rjmp .L57
 1061               	.LBB25:
 434:quantum/rgblight.c ****         sethsv(hue, sat, val, &tmp_led);
 1062               		.loc 1 434 9 is_stmt 1 view .LVU239
 435:quantum/rgblight.c ****         rgblight_setrgb(tmp_led.r, tmp_led.g, tmp_led.b);
 1063               		.loc 1 435 9 view .LVU240
 1064 0014 9E01      		movw r18,r28
 1065 0016 2F5F      		subi r18,-1
 1066 0018 3F4F      		sbci r19,-1
 1067 001a 0E94 0000 		call sethsv
 1068               	.LVL51:
 436:quantum/rgblight.c ****     }
 1069               		.loc 1 436 9 view .LVU241
 1070 001e 4B81      		ldd r20,Y+3
 1071 0020 6981      		ldd r22,Y+1
 1072 0022 8A81      		ldd r24,Y+2
 1073 0024 0E94 0000 		call rgblight_setrgb
 1074               	.LVL52:
 1075               	.L57:
 1076               	/* epilogue start */
 1077               	.LBE25:
 438:quantum/rgblight.c **** 
 1078               		.loc 1 438 1 is_stmt 0 view .LVU242
 1079 0028 0F90      		pop __tmp_reg__
 1080 002a 0F90      		pop __tmp_reg__
 1081 002c 0F90      		pop __tmp_reg__
 1082 002e DF91      		pop r29
 1083 0030 CF91      		pop r28
 1084 0032 0895      		ret
 1085               		.cfi_endproc
 1086               	.LFE142:
 1088               		.section	.text.rgblight_effect_breathing,"ax",@progbits
 1089               	.global	rgblight_effect_breathing
 1091               	rgblight_effect_breathing:
 1092               	.LVL53:
 1093               	.LFB173:
 870:quantum/rgblight.c **** 
 871:quantum/rgblight.c **** void rgblight_task(void) {
 872:quantum/rgblight.c ****     if (rgblight_status.timer_enabled) {
 873:quantum/rgblight.c ****         effect_func_t effect_func   = rgblight_effect_dummy;
 874:quantum/rgblight.c ****         uint16_t      interval_time = 2000;  // dummy interval
 875:quantum/rgblight.c ****         uint8_t       delta         = rgblight_config.mode - rgblight_status.base_mode;
 876:quantum/rgblight.c ****         animation_status.delta      = delta;
 877:quantum/rgblight.c **** 
 878:quantum/rgblight.c ****         // static light mode, do nothing here
 879:quantum/rgblight.c ****         if (1 == 0) {  // dummy
 880:quantum/rgblight.c ****         }
 881:quantum/rgblight.c **** #    ifdef RGBLIGHT_EFFECT_BREATHING
 882:quantum/rgblight.c ****         else if (rgblight_status.base_mode == RGBLIGHT_MODE_BREATHING) {
 883:quantum/rgblight.c ****             // breathing mode
 884:quantum/rgblight.c ****             interval_time = get_interval_time(&RGBLED_BREATHING_INTERVALS[delta], 1, 100);
 885:quantum/rgblight.c ****             effect_func   = rgblight_effect_breathing;
 886:quantum/rgblight.c ****         }
 887:quantum/rgblight.c **** #    endif
 888:quantum/rgblight.c **** #    ifdef RGBLIGHT_EFFECT_RAINBOW_MOOD
 889:quantum/rgblight.c ****         else if (rgblight_status.base_mode == RGBLIGHT_MODE_RAINBOW_MOOD) {
 890:quantum/rgblight.c ****             // rainbow mood mode
 891:quantum/rgblight.c ****             interval_time = get_interval_time(&RGBLED_RAINBOW_MOOD_INTERVALS[delta], 5, 100);
 892:quantum/rgblight.c ****             effect_func   = rgblight_effect_rainbow_mood;
 893:quantum/rgblight.c ****         }
 894:quantum/rgblight.c **** #    endif
 895:quantum/rgblight.c **** #    ifdef RGBLIGHT_EFFECT_RAINBOW_SWIRL
 896:quantum/rgblight.c ****         else if (rgblight_status.base_mode == RGBLIGHT_MODE_RAINBOW_SWIRL) {
 897:quantum/rgblight.c ****             // rainbow swirl mode
 898:quantum/rgblight.c ****             interval_time = get_interval_time(&RGBLED_RAINBOW_SWIRL_INTERVALS[delta / 2], 1, 100);
 899:quantum/rgblight.c ****             effect_func   = rgblight_effect_rainbow_swirl;
 900:quantum/rgblight.c ****         }
 901:quantum/rgblight.c **** #    endif
 902:quantum/rgblight.c **** #    ifdef RGBLIGHT_EFFECT_SNAKE
 903:quantum/rgblight.c ****         else if (rgblight_status.base_mode == RGBLIGHT_MODE_SNAKE) {
 904:quantum/rgblight.c ****             // snake mode
 905:quantum/rgblight.c ****             interval_time = get_interval_time(&RGBLED_SNAKE_INTERVALS[delta / 2], 1, 200);
 906:quantum/rgblight.c ****             effect_func   = rgblight_effect_snake;
 907:quantum/rgblight.c ****         }
 908:quantum/rgblight.c **** #    endif
 909:quantum/rgblight.c **** #    ifdef RGBLIGHT_EFFECT_KNIGHT
 910:quantum/rgblight.c ****         else if (rgblight_status.base_mode == RGBLIGHT_MODE_KNIGHT) {
 911:quantum/rgblight.c ****             // knight mode
 912:quantum/rgblight.c ****             interval_time = get_interval_time(&RGBLED_KNIGHT_INTERVALS[delta], 5, 100);
 913:quantum/rgblight.c ****             effect_func   = rgblight_effect_knight;
 914:quantum/rgblight.c ****         }
 915:quantum/rgblight.c **** #    endif
 916:quantum/rgblight.c **** #    ifdef RGBLIGHT_EFFECT_CHRISTMAS
 917:quantum/rgblight.c ****         else if (rgblight_status.base_mode == RGBLIGHT_MODE_CHRISTMAS) {
 918:quantum/rgblight.c ****             // christmas mode
 919:quantum/rgblight.c ****             interval_time = RGBLIGHT_EFFECT_CHRISTMAS_INTERVAL;
 920:quantum/rgblight.c ****             effect_func   = (effect_func_t)rgblight_effect_christmas;
 921:quantum/rgblight.c ****         }
 922:quantum/rgblight.c **** #    endif
 923:quantum/rgblight.c **** #    ifdef RGBLIGHT_EFFECT_RGB_TEST
 924:quantum/rgblight.c ****         else if (rgblight_status.base_mode == RGBLIGHT_MODE_RGB_TEST) {
 925:quantum/rgblight.c ****             // RGB test mode
 926:quantum/rgblight.c ****             interval_time = pgm_read_word(&RGBLED_RGBTEST_INTERVALS[0]);
 927:quantum/rgblight.c ****             effect_func   = (effect_func_t)rgblight_effect_rgbtest;
 928:quantum/rgblight.c ****         }
 929:quantum/rgblight.c **** #    endif
 930:quantum/rgblight.c **** #    ifdef RGBLIGHT_EFFECT_ALTERNATING
 931:quantum/rgblight.c ****         else if (rgblight_status.base_mode == RGBLIGHT_MODE_ALTERNATING) {
 932:quantum/rgblight.c ****             interval_time = 500;
 933:quantum/rgblight.c ****             effect_func   = (effect_func_t)rgblight_effect_alternating;
 934:quantum/rgblight.c ****         }
 935:quantum/rgblight.c **** #    endif
 936:quantum/rgblight.c **** #    ifdef RGBLIGHT_EFFECT_TWINKLE
 937:quantum/rgblight.c ****         else if (rgblight_status.base_mode == RGBLIGHT_MODE_TWINKLE) {
 938:quantum/rgblight.c ****             interval_time = get_interval_time(&RGBLED_TWINKLE_INTERVALS[delta % 3], 5, 50);
 939:quantum/rgblight.c ****             effect_func   = (effect_func_t)rgblight_effect_twinkle;
 940:quantum/rgblight.c ****         }
 941:quantum/rgblight.c **** #    endif
 942:quantum/rgblight.c ****         if (animation_status.restart) {
 943:quantum/rgblight.c ****             animation_status.restart    = false;
 944:quantum/rgblight.c ****             animation_status.last_timer = timer_read() - interval_time - 1;
 945:quantum/rgblight.c ****             animation_status.pos16      = 0;  // restart signal to local each effect
 946:quantum/rgblight.c ****         }
 947:quantum/rgblight.c ****         if (timer_elapsed(animation_status.last_timer) >= interval_time) {
 948:quantum/rgblight.c **** #    if defined(RGBLIGHT_SPLIT) && !defined(RGBLIGHT_SPLIT_NO_ANIMATION_SYNC)
 949:quantum/rgblight.c ****             static uint16_t report_last_timer = 0;
 950:quantum/rgblight.c ****             static bool     tick_flag         = false;
 951:quantum/rgblight.c ****             uint16_t        oldpos16;
 952:quantum/rgblight.c ****             if (tick_flag) {
 953:quantum/rgblight.c ****                 tick_flag = false;
 954:quantum/rgblight.c ****                 if (timer_elapsed(report_last_timer) >= 30000) {
 955:quantum/rgblight.c ****                     report_last_timer = timer_read();
 956:quantum/rgblight.c ****                     dprintf("rgblight animation tick report to slave\n");
 957:quantum/rgblight.c ****                     RGBLIGHT_SPLIT_ANIMATION_TICK;
 958:quantum/rgblight.c ****                 }
 959:quantum/rgblight.c ****             }
 960:quantum/rgblight.c ****             oldpos16 = animation_status.pos16;
 961:quantum/rgblight.c **** #    endif
 962:quantum/rgblight.c ****             animation_status.last_timer += interval_time;
 963:quantum/rgblight.c ****             effect_func(&animation_status);
 964:quantum/rgblight.c **** #    if defined(RGBLIGHT_SPLIT) && !defined(RGBLIGHT_SPLIT_NO_ANIMATION_SYNC)
 965:quantum/rgblight.c ****             if (animation_status.pos16 == 0 && oldpos16 != 0) {
 966:quantum/rgblight.c ****                 tick_flag = true;
 967:quantum/rgblight.c ****             }
 968:quantum/rgblight.c **** #    endif
 969:quantum/rgblight.c ****         }
 970:quantum/rgblight.c ****     }
 971:quantum/rgblight.c **** 
 972:quantum/rgblight.c **** #    ifdef RGBLIGHT_LAYER_BLINK
 973:quantum/rgblight.c ****     rgblight_unblink_layers();
 974:quantum/rgblight.c **** #    endif
 975:quantum/rgblight.c **** }
 976:quantum/rgblight.c **** 
 977:quantum/rgblight.c **** #endif /* RGBLIGHT_USE_TIMER */
 978:quantum/rgblight.c **** 
 979:quantum/rgblight.c **** // Effects
 980:quantum/rgblight.c **** #ifdef RGBLIGHT_EFFECT_BREATHING
 981:quantum/rgblight.c **** 
 982:quantum/rgblight.c **** #    ifndef RGBLIGHT_EFFECT_BREATHE_CENTER
 983:quantum/rgblight.c **** #        ifndef RGBLIGHT_BREATHE_TABLE_SIZE
 984:quantum/rgblight.c **** #            define RGBLIGHT_BREATHE_TABLE_SIZE 256  // 256 or 128 or 64
 985:quantum/rgblight.c **** #        endif
 986:quantum/rgblight.c **** #        include <rgblight_breathe_table.h>
 987:quantum/rgblight.c **** #    endif
 988:quantum/rgblight.c **** 
 989:quantum/rgblight.c **** __attribute__((weak)) const uint8_t RGBLED_BREATHING_INTERVALS[] PROGMEM = {30, 20, 10, 5};
 990:quantum/rgblight.c **** 
 991:quantum/rgblight.c **** void rgblight_effect_breathing(animation_status_t *anim) {
 1094               		.loc 1 991 58 is_stmt 1 view -0
 1095               		.cfi_startproc
 1096               		.loc 1 991 58 is_stmt 0 view .LVU244
 1097 0000 CF93      		push r28
 1098               	.LCFI10:
 1099               		.cfi_def_cfa_offset 3
 1100               		.cfi_offset 28, -2
 1101 0002 DF93      		push r29
 1102               	.LCFI11:
 1103               		.cfi_def_cfa_offset 4
 1104               		.cfi_offset 29, -3
 1105               	/* prologue: function */
 1106               	/* frame size = 0 */
 1107               	/* stack size = 2 */
 1108               	.L__stack_usage = 2
 1109 0004 EC01      		movw r28,r24
 992:quantum/rgblight.c ****     float val;
 1110               		.loc 1 992 5 is_stmt 1 view .LVU245
 993:quantum/rgblight.c **** 
 994:quantum/rgblight.c ****     // http://sean.voisen.org/blog/2011/10/breathing-led-with-arduino/
 995:quantum/rgblight.c **** #    ifdef RGBLIGHT_EFFECT_BREATHE_TABLE
 996:quantum/rgblight.c ****     val = pgm_read_byte(&rgblight_effect_breathe_table[anim->pos / table_scale]);
 1111               		.loc 1 996 5 view .LVU246
 1112               	.LBB26:
 1113               		.loc 1 996 11 view .LVU247
 1114               	.LVL54:
 1115               		.loc 1 996 11 view .LVU248
 1116               		.loc 1 996 11 view .LVU249
 1117 0006 EC81      		ldd r30,Y+4
 1118 0008 F0E0      		ldi r31,0
 1119 000a E050      		subi r30,lo8(-(rgblight_effect_breathe_table))
 1120 000c F040      		sbci r31,hi8(-(rgblight_effect_breathe_table))
 1121               	/* #APP */
 1122               	 ;  996 "quantum/rgblight.c" 1
 1123 000e 4491      		lpm r20, Z
 1124               		
 1125               	 ;  0 "" 2
 1126               	.LVL55:
 1127               		.loc 1 996 11 view .LVU250
 1128               		.loc 1 996 11 is_stmt 0 view .LVU251
 1129               	/* #NOAPP */
 1130               	.LBE26:
 997:quantum/rgblight.c **** #    else
 998:quantum/rgblight.c ****     val = (exp(sin((anim->pos / 255.0) * M_PI)) - RGBLIGHT_EFFECT_BREATHE_CENTER / M_E) * (RGBLIGHT
 999:quantum/rgblight.c **** #    endif
1000:quantum/rgblight.c ****     rgblight_sethsv_noeeprom_old(rgblight_config.hue, rgblight_config.sat, val);
 1131               		.loc 1 1000 5 is_stmt 1 view .LVU252
 1132 0010 E0E0      		ldi r30,lo8(rgblight_config)
 1133 0012 F0E0      		ldi r31,hi8(rgblight_config)
 1134 0014 6281      		ldd r22,Z+2
 1135 0016 8181      		ldd r24,Z+1
 1136               	.LVL56:
 1137               		.loc 1 1000 5 is_stmt 0 view .LVU253
 1138 0018 0E94 0000 		call rgblight_sethsv_noeeprom_old
 1139               	.LVL57:
1001:quantum/rgblight.c ****     anim->pos = (anim->pos + 1);
 1140               		.loc 1 1001 5 is_stmt 1 view .LVU254
 1141               		.loc 1 1001 28 is_stmt 0 view .LVU255
 1142 001c 8C81      		ldd r24,Y+4
 1143 001e 8F5F      		subi r24,lo8(-(1))
 1144               		.loc 1 1001 15 view .LVU256
 1145 0020 8C83      		std Y+4,r24
 1146               	/* epilogue start */
1002:quantum/rgblight.c **** }
 1147               		.loc 1 1002 1 view .LVU257
 1148 0022 DF91      		pop r29
 1149 0024 CF91      		pop r28
 1150               	.LVL58:
 1151               		.loc 1 1002 1 view .LVU258
 1152 0026 0895      		ret
 1153               		.cfi_endproc
 1154               	.LFE173:
 1156               		.section	.text.rgblight_effect_rainbow_mood,"ax",@progbits
 1157               	.global	rgblight_effect_rainbow_mood
 1159               	rgblight_effect_rainbow_mood:
 1160               	.LVL59:
 1161               	.LFB174:
1003:quantum/rgblight.c **** #endif
1004:quantum/rgblight.c **** 
1005:quantum/rgblight.c **** #ifdef RGBLIGHT_EFFECT_RAINBOW_MOOD
1006:quantum/rgblight.c **** __attribute__((weak)) const uint8_t RGBLED_RAINBOW_MOOD_INTERVALS[] PROGMEM = {120, 60, 30};
1007:quantum/rgblight.c **** 
1008:quantum/rgblight.c **** void rgblight_effect_rainbow_mood(animation_status_t *anim) {
 1162               		.loc 1 1008 61 is_stmt 1 view -0
 1163               		.cfi_startproc
 1164               		.loc 1 1008 61 is_stmt 0 view .LVU260
 1165 0000 CF93      		push r28
 1166               	.LCFI12:
 1167               		.cfi_def_cfa_offset 3
 1168               		.cfi_offset 28, -2
 1169 0002 DF93      		push r29
 1170               	.LCFI13:
 1171               		.cfi_def_cfa_offset 4
 1172               		.cfi_offset 29, -3
 1173               	/* prologue: function */
 1174               	/* frame size = 0 */
 1175               	/* stack size = 2 */
 1176               	.L__stack_usage = 2
 1177 0004 EC01      		movw r28,r24
1009:quantum/rgblight.c ****     rgblight_sethsv_noeeprom_old(anim->current_hue, rgblight_config.sat, rgblight_config.val);
 1178               		.loc 1 1009 5 is_stmt 1 view .LVU261
 1179 0006 E0E0      		ldi r30,lo8(rgblight_config)
 1180 0008 F0E0      		ldi r31,hi8(rgblight_config)
 1181 000a 4381      		ldd r20,Z+3
 1182 000c 6281      		ldd r22,Z+2
 1183 000e 8C81      		ldd r24,Y+4
 1184               	.LVL60:
 1185               		.loc 1 1009 5 is_stmt 0 view .LVU262
 1186 0010 0E94 0000 		call rgblight_sethsv_noeeprom_old
 1187               	.LVL61:
1010:quantum/rgblight.c ****     anim->current_hue++;
 1188               		.loc 1 1010 5 is_stmt 1 view .LVU263
 1189               		.loc 1 1010 22 is_stmt 0 view .LVU264
 1190 0014 8C81      		ldd r24,Y+4
 1191 0016 8F5F      		subi r24,lo8(-(1))
 1192 0018 8C83      		std Y+4,r24
 1193               	/* epilogue start */
1011:quantum/rgblight.c **** }
 1194               		.loc 1 1011 1 view .LVU265
 1195 001a DF91      		pop r29
 1196 001c CF91      		pop r28
 1197               	.LVL62:
 1198               		.loc 1 1011 1 view .LVU266
 1199 001e 0895      		ret
 1200               		.cfi_endproc
 1201               	.LFE174:
 1203               		.section	.text.rgblight_effect_rgbtest,"ax",@progbits
 1204               	.global	rgblight_effect_rgbtest
 1206               	rgblight_effect_rgbtest:
 1207               	.LVL63:
 1208               	.LFB179:
1012:quantum/rgblight.c **** #endif
1013:quantum/rgblight.c **** 
1014:quantum/rgblight.c **** #ifdef RGBLIGHT_EFFECT_RAINBOW_SWIRL
1015:quantum/rgblight.c **** #    ifndef RGBLIGHT_RAINBOW_SWIRL_RANGE
1016:quantum/rgblight.c **** #        define RGBLIGHT_RAINBOW_SWIRL_RANGE 255
1017:quantum/rgblight.c **** #    endif
1018:quantum/rgblight.c **** 
1019:quantum/rgblight.c **** __attribute__((weak)) const uint8_t RGBLED_RAINBOW_SWIRL_INTERVALS[] PROGMEM = {100, 50, 20};
1020:quantum/rgblight.c **** 
1021:quantum/rgblight.c **** void rgblight_effect_rainbow_swirl(animation_status_t *anim) {
1022:quantum/rgblight.c ****     uint8_t hue;
1023:quantum/rgblight.c ****     uint8_t i;
1024:quantum/rgblight.c **** 
1025:quantum/rgblight.c ****     for (i = 0; i < rgblight_ranges.effect_num_leds; i++) {
1026:quantum/rgblight.c ****         hue = (RGBLIGHT_RAINBOW_SWIRL_RANGE / rgblight_ranges.effect_num_leds * i + anim->current_h
1027:quantum/rgblight.c ****         sethsv(hue, rgblight_config.sat, rgblight_config.val, (LED_TYPE *)&led[i + rgblight_ranges.
1028:quantum/rgblight.c ****     }
1029:quantum/rgblight.c ****     rgblight_set();
1030:quantum/rgblight.c **** 
1031:quantum/rgblight.c ****     if (anim->delta % 2) {
1032:quantum/rgblight.c ****         anim->current_hue++;
1033:quantum/rgblight.c ****     } else {
1034:quantum/rgblight.c ****         anim->current_hue--;
1035:quantum/rgblight.c ****     }
1036:quantum/rgblight.c **** }
1037:quantum/rgblight.c **** #endif
1038:quantum/rgblight.c **** 
1039:quantum/rgblight.c **** #ifdef RGBLIGHT_EFFECT_SNAKE
1040:quantum/rgblight.c **** __attribute__((weak)) const uint8_t RGBLED_SNAKE_INTERVALS[] PROGMEM = {100, 50, 20};
1041:quantum/rgblight.c **** 
1042:quantum/rgblight.c **** void rgblight_effect_snake(animation_status_t *anim) {
1043:quantum/rgblight.c ****     static uint8_t pos = 0;
1044:quantum/rgblight.c ****     uint8_t        i, j;
1045:quantum/rgblight.c ****     int8_t         k;
1046:quantum/rgblight.c ****     int8_t         increment = 1;
1047:quantum/rgblight.c **** 
1048:quantum/rgblight.c ****     if (anim->delta % 2) {
1049:quantum/rgblight.c ****         increment = -1;
1050:quantum/rgblight.c ****     }
1051:quantum/rgblight.c **** 
1052:quantum/rgblight.c **** #    if defined(RGBLIGHT_SPLIT) && !defined(RGBLIGHT_SPLIT_NO_ANIMATION_SYNC)
1053:quantum/rgblight.c ****     if (anim->pos == 0) {  // restart signal
1054:quantum/rgblight.c ****         if (increment == 1) {
1055:quantum/rgblight.c ****             pos = rgblight_ranges.effect_num_leds - 1;
1056:quantum/rgblight.c ****         } else {
1057:quantum/rgblight.c ****             pos = 0;
1058:quantum/rgblight.c ****         }
1059:quantum/rgblight.c ****         anim->pos = 1;
1060:quantum/rgblight.c ****     }
1061:quantum/rgblight.c **** #    endif
1062:quantum/rgblight.c **** 
1063:quantum/rgblight.c ****     for (i = 0; i < rgblight_ranges.effect_num_leds; i++) {
1064:quantum/rgblight.c ****         LED_TYPE *ledp = led + i + rgblight_ranges.effect_start_pos;
1065:quantum/rgblight.c ****         ledp->r        = 0;
1066:quantum/rgblight.c ****         ledp->g        = 0;
1067:quantum/rgblight.c ****         ledp->b        = 0;
1068:quantum/rgblight.c **** #    ifdef RGBW
1069:quantum/rgblight.c ****         ledp->w = 0;
1070:quantum/rgblight.c **** #    endif
1071:quantum/rgblight.c ****         for (j = 0; j < RGBLIGHT_EFFECT_SNAKE_LENGTH; j++) {
1072:quantum/rgblight.c ****             k = pos + j * increment;
1073:quantum/rgblight.c ****             if (k > RGBLED_NUM) {
1074:quantum/rgblight.c ****                 k = k % RGBLED_NUM;
1075:quantum/rgblight.c ****             }
1076:quantum/rgblight.c ****             if (k < 0) {
1077:quantum/rgblight.c ****                 k = k + rgblight_ranges.effect_num_leds;
1078:quantum/rgblight.c ****             }
1079:quantum/rgblight.c ****             if (i == k) {
1080:quantum/rgblight.c ****                 sethsv(rgblight_config.hue, rgblight_config.sat, (uint8_t)(rgblight_config.val * (R
1081:quantum/rgblight.c ****             }
1082:quantum/rgblight.c ****         }
1083:quantum/rgblight.c ****     }
1084:quantum/rgblight.c ****     rgblight_set();
1085:quantum/rgblight.c ****     if (increment == 1) {
1086:quantum/rgblight.c ****         if (pos - 1 < 0) {
1087:quantum/rgblight.c ****             pos = rgblight_ranges.effect_num_leds - 1;
1088:quantum/rgblight.c **** #    if defined(RGBLIGHT_SPLIT) && !defined(RGBLIGHT_SPLIT_NO_ANIMATION_SYNC)
1089:quantum/rgblight.c ****             anim->pos = 0;
1090:quantum/rgblight.c **** #    endif
1091:quantum/rgblight.c ****         } else {
1092:quantum/rgblight.c ****             pos -= 1;
1093:quantum/rgblight.c **** #    if defined(RGBLIGHT_SPLIT) && !defined(RGBLIGHT_SPLIT_NO_ANIMATION_SYNC)
1094:quantum/rgblight.c ****             anim->pos = 1;
1095:quantum/rgblight.c **** #    endif
1096:quantum/rgblight.c ****         }
1097:quantum/rgblight.c ****     } else {
1098:quantum/rgblight.c ****         pos = (pos + 1) % rgblight_ranges.effect_num_leds;
1099:quantum/rgblight.c **** #    if defined(RGBLIGHT_SPLIT) && !defined(RGBLIGHT_SPLIT_NO_ANIMATION_SYNC)
1100:quantum/rgblight.c ****         anim->pos = pos;
1101:quantum/rgblight.c **** #    endif
1102:quantum/rgblight.c ****     }
1103:quantum/rgblight.c **** }
1104:quantum/rgblight.c **** #endif
1105:quantum/rgblight.c **** 
1106:quantum/rgblight.c **** #ifdef RGBLIGHT_EFFECT_KNIGHT
1107:quantum/rgblight.c **** __attribute__((weak)) const uint8_t RGBLED_KNIGHT_INTERVALS[] PROGMEM = {127, 63, 31};
1108:quantum/rgblight.c **** 
1109:quantum/rgblight.c **** void rgblight_effect_knight(animation_status_t *anim) {
1110:quantum/rgblight.c ****     static int8_t low_bound  = 0;
1111:quantum/rgblight.c ****     static int8_t high_bound = RGBLIGHT_EFFECT_KNIGHT_LENGTH - 1;
1112:quantum/rgblight.c ****     static int8_t increment  = 1;
1113:quantum/rgblight.c ****     uint8_t       i, cur;
1114:quantum/rgblight.c **** 
1115:quantum/rgblight.c **** #    if defined(RGBLIGHT_SPLIT) && !defined(RGBLIGHT_SPLIT_NO_ANIMATION_SYNC)
1116:quantum/rgblight.c ****     if (anim->pos == 0) {  // restart signal
1117:quantum/rgblight.c ****         anim->pos  = 1;
1118:quantum/rgblight.c ****         low_bound  = 0;
1119:quantum/rgblight.c ****         high_bound = RGBLIGHT_EFFECT_KNIGHT_LENGTH - 1;
1120:quantum/rgblight.c ****         increment  = 1;
1121:quantum/rgblight.c ****     }
1122:quantum/rgblight.c **** #    endif
1123:quantum/rgblight.c ****     // Set all the LEDs to 0
1124:quantum/rgblight.c ****     for (i = rgblight_ranges.effect_start_pos; i < rgblight_ranges.effect_end_pos; i++) {
1125:quantum/rgblight.c ****         led[i].r = 0;
1126:quantum/rgblight.c ****         led[i].g = 0;
1127:quantum/rgblight.c ****         led[i].b = 0;
1128:quantum/rgblight.c **** #    ifdef RGBW
1129:quantum/rgblight.c ****         led[i].w = 0;
1130:quantum/rgblight.c **** #    endif
1131:quantum/rgblight.c ****     }
1132:quantum/rgblight.c ****     // Determine which LEDs should be lit up
1133:quantum/rgblight.c ****     for (i = 0; i < RGBLIGHT_EFFECT_KNIGHT_LED_NUM; i++) {
1134:quantum/rgblight.c ****         cur = (i + RGBLIGHT_EFFECT_KNIGHT_OFFSET) % rgblight_ranges.effect_num_leds + rgblight_rang
1135:quantum/rgblight.c **** 
1136:quantum/rgblight.c ****         if (i >= low_bound && i <= high_bound) {
1137:quantum/rgblight.c ****             sethsv(rgblight_config.hue, rgblight_config.sat, rgblight_config.val, (LED_TYPE *)&led[
1138:quantum/rgblight.c ****         } else {
1139:quantum/rgblight.c ****             led[cur].r = 0;
1140:quantum/rgblight.c ****             led[cur].g = 0;
1141:quantum/rgblight.c ****             led[cur].b = 0;
1142:quantum/rgblight.c **** #    ifdef RGBW
1143:quantum/rgblight.c ****             led[cur].w = 0;
1144:quantum/rgblight.c **** #    endif
1145:quantum/rgblight.c ****         }
1146:quantum/rgblight.c ****     }
1147:quantum/rgblight.c ****     rgblight_set();
1148:quantum/rgblight.c **** 
1149:quantum/rgblight.c ****     // Move from low_bound to high_bound changing the direction we increment each
1150:quantum/rgblight.c ****     // time a boundary is hit.
1151:quantum/rgblight.c ****     low_bound += increment;
1152:quantum/rgblight.c ****     high_bound += increment;
1153:quantum/rgblight.c **** 
1154:quantum/rgblight.c ****     if (high_bound <= 0 || low_bound >= RGBLIGHT_EFFECT_KNIGHT_LED_NUM - 1) {
1155:quantum/rgblight.c ****         increment = -increment;
1156:quantum/rgblight.c **** #    if defined(RGBLIGHT_SPLIT) && !defined(RGBLIGHT_SPLIT_NO_ANIMATION_SYNC)
1157:quantum/rgblight.c ****         if (increment == 1) {
1158:quantum/rgblight.c ****             anim->pos = 0;
1159:quantum/rgblight.c ****         }
1160:quantum/rgblight.c **** #    endif
1161:quantum/rgblight.c ****     }
1162:quantum/rgblight.c **** }
1163:quantum/rgblight.c **** #endif
1164:quantum/rgblight.c **** 
1165:quantum/rgblight.c **** #ifdef RGBLIGHT_EFFECT_CHRISTMAS
1166:quantum/rgblight.c **** #    define CUBED(x) ((x) * (x) * (x))
1167:quantum/rgblight.c **** 
1168:quantum/rgblight.c **** /**
1169:quantum/rgblight.c ****  * Christmas lights effect, with a smooth animation between red & green.
1170:quantum/rgblight.c ****  */
1171:quantum/rgblight.c **** void rgblight_effect_christmas(animation_status_t *anim) {
1172:quantum/rgblight.c ****     static int8_t increment = 1;
1173:quantum/rgblight.c ****     const uint8_t max_pos   = 32;
1174:quantum/rgblight.c ****     const uint8_t hue_green = 85;
1175:quantum/rgblight.c **** 
1176:quantum/rgblight.c ****     uint32_t xa;
1177:quantum/rgblight.c ****     uint8_t  hue, val;
1178:quantum/rgblight.c ****     uint8_t  i;
1179:quantum/rgblight.c **** 
1180:quantum/rgblight.c ****     // The effect works by animating anim->pos from 0 to 32 and back to 0.
1181:quantum/rgblight.c ****     // The pos is used in a cubic bezier formula to ease-in-out between red and green, leaving the 
1182:quantum/rgblight.c ****     xa  = CUBED((uint32_t)anim->pos);
1183:quantum/rgblight.c ****     hue = ((uint32_t)hue_green) * xa / (xa + CUBED((uint32_t)(max_pos - anim->pos)));
1184:quantum/rgblight.c ****     // Additionally, these interpolated colors get shown with a slightly darker value, to make them
1185:quantum/rgblight.c ****     val = 255 - (3 * (hue < hue_green / 2 ? hue : hue_green - hue) / 2);
1186:quantum/rgblight.c **** 
1187:quantum/rgblight.c ****     for (i = 0; i < rgblight_ranges.effect_num_leds; i++) {
1188:quantum/rgblight.c ****         uint8_t local_hue = (i / RGBLIGHT_EFFECT_CHRISTMAS_STEP) % 2 ? hue : hue_green - hue;
1189:quantum/rgblight.c ****         sethsv(local_hue, rgblight_config.sat, val, (LED_TYPE *)&led[i + rgblight_ranges.effect_sta
1190:quantum/rgblight.c ****     }
1191:quantum/rgblight.c ****     rgblight_set();
1192:quantum/rgblight.c **** 
1193:quantum/rgblight.c ****     if (anim->pos == 0) {
1194:quantum/rgblight.c ****         increment = 1;
1195:quantum/rgblight.c ****     } else if (anim->pos == max_pos) {
1196:quantum/rgblight.c ****         increment = -1;
1197:quantum/rgblight.c ****     }
1198:quantum/rgblight.c ****     anim->pos += increment;
1199:quantum/rgblight.c **** }
1200:quantum/rgblight.c **** #endif
1201:quantum/rgblight.c **** 
1202:quantum/rgblight.c **** #ifdef RGBLIGHT_EFFECT_RGB_TEST
1203:quantum/rgblight.c **** __attribute__((weak)) const uint16_t RGBLED_RGBTEST_INTERVALS[] PROGMEM = {1024};
1204:quantum/rgblight.c **** 
1205:quantum/rgblight.c **** void rgblight_effect_rgbtest(animation_status_t *anim) {
 1209               		.loc 1 1205 56 is_stmt 1 view -0
 1210               		.cfi_startproc
 1211               		.loc 1 1205 56 is_stmt 0 view .LVU268
 1212 0000 0F93      		push r16
 1213               	.LCFI14:
 1214               		.cfi_def_cfa_offset 3
 1215               		.cfi_offset 16, -2
 1216 0002 1F93      		push r17
 1217               	.LCFI15:
 1218               		.cfi_def_cfa_offset 4
 1219               		.cfi_offset 17, -3
 1220 0004 CF93      		push r28
 1221               	.LCFI16:
 1222               		.cfi_def_cfa_offset 5
 1223               		.cfi_offset 28, -4
 1224 0006 DF93      		push r29
 1225               	.LCFI17:
 1226               		.cfi_def_cfa_offset 6
 1227               		.cfi_offset 29, -5
 1228 0008 00D0      		rcall .
 1229 000a 0F92      		push __tmp_reg__
 1230               	.LCFI18:
 1231               		.cfi_def_cfa_offset 9
 1232 000c CDB7      		in r28,__SP_L__
 1233 000e DEB7      		in r29,__SP_H__
 1234               	.LCFI19:
 1235               		.cfi_def_cfa_register 28
 1236               	/* prologue: function */
 1237               	/* frame size = 3 */
 1238               	/* stack size = 7 */
 1239               	.L__stack_usage = 7
 1240 0010 8C01      		movw r16,r24
1206:quantum/rgblight.c ****     static uint8_t maxval = 0;
 1241               		.loc 1 1206 5 is_stmt 1 view .LVU269
1207:quantum/rgblight.c ****     uint8_t        g;
 1242               		.loc 1 1207 5 view .LVU270
1208:quantum/rgblight.c ****     uint8_t        r;
 1243               		.loc 1 1208 5 view .LVU271
1209:quantum/rgblight.c ****     uint8_t        b;
 1244               		.loc 1 1209 5 view .LVU272
1210:quantum/rgblight.c **** 
1211:quantum/rgblight.c ****     if (maxval == 0) {
 1245               		.loc 1 1211 5 view .LVU273
 1246               		.loc 1 1211 8 is_stmt 0 view .LVU274
 1247 0012 8091 0000 		lds r24,maxval.3444
 1248               	.LVL64:
 1249               		.loc 1 1211 8 view .LVU275
 1250 0016 8111      		cpse r24,__zero_reg__
 1251 0018 00C0      		rjmp .L65
 1252               	.LBB27:
1212:quantum/rgblight.c ****         LED_TYPE tmp_led;
 1253               		.loc 1 1212 9 is_stmt 1 view .LVU276
1213:quantum/rgblight.c ****         sethsv(0, 255, RGBLIGHT_LIMIT_VAL, &tmp_led);
 1254               		.loc 1 1213 9 view .LVU277
 1255 001a 9E01      		movw r18,r28
 1256 001c 2F5F      		subi r18,-1
 1257 001e 3F4F      		sbci r19,-1
 1258 0020 48E7      		ldi r20,lo8(120)
 1259 0022 6FEF      		ldi r22,lo8(-1)
 1260 0024 0E94 0000 		call sethsv
 1261               	.LVL65:
1214:quantum/rgblight.c ****         maxval = tmp_led.r;
 1262               		.loc 1 1214 9 view .LVU278
 1263               		.loc 1 1214 16 is_stmt 0 view .LVU279
 1264 0028 8A81      		ldd r24,Y+2
 1265 002a 8093 0000 		sts maxval.3444,r24
 1266               	.L65:
 1267               	.LBE27:
1215:quantum/rgblight.c ****     }
1216:quantum/rgblight.c ****     g = r = b = 0;
 1268               		.loc 1 1216 5 is_stmt 1 view .LVU280
 1269               	.LVL66:
1217:quantum/rgblight.c ****     switch (anim->pos) {
 1270               		.loc 1 1217 5 view .LVU281
 1271               		.loc 1 1217 17 is_stmt 0 view .LVU282
 1272 002e F801      		movw r30,r16
 1273 0030 6481      		ldd r22,Z+4
 1274               		.loc 1 1217 5 view .LVU283
 1275 0032 6130      		cpi r22,lo8(1)
 1276 0034 01F0      		breq .L66
1218:quantum/rgblight.c ****         case 0:
1219:quantum/rgblight.c ****             r = maxval;
 1277               		.loc 1 1219 15 view .LVU284
 1278 0036 8091 0000 		lds r24,maxval.3444
 1279               	.LVL67:
1220:quantum/rgblight.c ****             break;
 1280               		.loc 1 1220 13 is_stmt 1 view .LVU285
1216:quantum/rgblight.c ****     switch (anim->pos) {
 1281               		.loc 1 1216 15 is_stmt 0 view .LVU286
 1282 003a 40E0      		ldi r20,0
1217:quantum/rgblight.c ****         case 0:
 1283               		.loc 1 1217 5 view .LVU287
 1284 003c 6623      		tst r22
 1285 003e 01F0      		breq .L69
1216:quantum/rgblight.c ****     switch (anim->pos) {
 1286               		.loc 1 1216 15 view .LVU288
 1287 0040 40E0      		ldi r20,0
1217:quantum/rgblight.c ****         case 0:
 1288               		.loc 1 1217 5 view .LVU289
 1289 0042 6230      		cpi r22,lo8(2)
 1290 0044 01F4      		brne .L70
1221:quantum/rgblight.c ****         case 1:
1222:quantum/rgblight.c ****             g = maxval;
1223:quantum/rgblight.c ****             break;
1224:quantum/rgblight.c ****         case 2:
1225:quantum/rgblight.c ****             b = maxval;
 1291               		.loc 1 1225 13 is_stmt 1 view .LVU290
 1292               		.loc 1 1225 15 is_stmt 0 view .LVU291
 1293 0046 4091 0000 		lds r20,maxval.3444
 1294               	.L70:
 1295               	.LVL68:
1226:quantum/rgblight.c ****             break;
 1296               		.loc 1 1226 13 is_stmt 1 view .LVU292
1216:quantum/rgblight.c ****     switch (anim->pos) {
 1297               		.loc 1 1216 11 is_stmt 0 view .LVU293
 1298 004a 80E0      		ldi r24,0
 1299               	.LVL69:
1216:quantum/rgblight.c ****     switch (anim->pos) {
 1300               		.loc 1 1216 7 view .LVU294
 1301 004c 60E0      		ldi r22,0
 1302               		.loc 1 1226 13 view .LVU295
 1303 004e 00C0      		rjmp .L69
 1304               	.LVL70:
 1305               	.L66:
1222:quantum/rgblight.c ****             break;
 1306               		.loc 1 1222 13 is_stmt 1 view .LVU296
1222:quantum/rgblight.c ****             break;
 1307               		.loc 1 1222 15 is_stmt 0 view .LVU297
 1308 0050 6091 0000 		lds r22,maxval.3444
 1309               	.LVL71:
1223:quantum/rgblight.c ****         case 2:
 1310               		.loc 1 1223 13 is_stmt 1 view .LVU298
1216:quantum/rgblight.c ****     switch (anim->pos) {
 1311               		.loc 1 1216 15 is_stmt 0 view .LVU299
 1312 0054 40E0      		ldi r20,0
1216:quantum/rgblight.c ****     switch (anim->pos) {
 1313               		.loc 1 1216 11 view .LVU300
 1314 0056 80E0      		ldi r24,0
 1315               	.LVL72:
 1316               	.L69:
1227:quantum/rgblight.c ****     }
1228:quantum/rgblight.c ****     rgblight_setrgb(r, g, b);
 1317               		.loc 1 1228 5 is_stmt 1 view .LVU301
 1318 0058 0E94 0000 		call rgblight_setrgb
 1319               	.LVL73:
1229:quantum/rgblight.c ****     anim->pos = (anim->pos + 1) % 3;
 1320               		.loc 1 1229 5 view .LVU302
 1321               		.loc 1 1229 22 is_stmt 0 view .LVU303
 1322 005c F801      		movw r30,r16
 1323 005e 8481      		ldd r24,Z+4
 1324 0060 90E0      		ldi r25,0
 1325               		.loc 1 1229 28 view .LVU304
 1326 0062 0196      		adiw r24,1
 1327               		.loc 1 1229 33 view .LVU305
 1328 0064 63E0      		ldi r22,lo8(3)
 1329 0066 70E0      		ldi r23,0
 1330 0068 0E94 0000 		call __divmodhi4
 1331               		.loc 1 1229 15 view .LVU306
 1332 006c 8483      		std Z+4,r24
 1333               	/* epilogue start */
1230:quantum/rgblight.c **** }
 1334               		.loc 1 1230 1 view .LVU307
 1335 006e 0F90      		pop __tmp_reg__
 1336 0070 0F90      		pop __tmp_reg__
 1337 0072 0F90      		pop __tmp_reg__
 1338 0074 DF91      		pop r29
 1339 0076 CF91      		pop r28
 1340 0078 1F91      		pop r17
 1341 007a 0F91      		pop r16
 1342               	.LVL74:
 1343               		.loc 1 1230 1 view .LVU308
 1344 007c 0895      		ret
 1345               		.cfi_endproc
 1346               	.LFE179:
 1348               		.section	.text.rgblight_sethsv_eeprom_helper,"ax",@progbits
 1349               	.global	rgblight_sethsv_eeprom_helper
 1351               	rgblight_sethsv_eeprom_helper:
 1352               	.LVL75:
 1353               	.LFB143:
 440:quantum/rgblight.c ****     if (rgblight_config.enable) {
 1354               		.loc 1 440 97 is_stmt 1 view -0
 1355               		.cfi_startproc
 440:quantum/rgblight.c ****     if (rgblight_config.enable) {
 1356               		.loc 1 440 97 is_stmt 0 view .LVU310
 1357 0000 AF92      		push r10
 1358               	.LCFI20:
 1359               		.cfi_def_cfa_offset 3
 1360               		.cfi_offset 10, -2
 1361 0002 BF92      		push r11
 1362               	.LCFI21:
 1363               		.cfi_def_cfa_offset 4
 1364               		.cfi_offset 11, -3
 1365 0004 CF92      		push r12
 1366               	.LCFI22:
 1367               		.cfi_def_cfa_offset 5
 1368               		.cfi_offset 12, -4
 1369 0006 DF92      		push r13
 1370               	.LCFI23:
 1371               		.cfi_def_cfa_offset 6
 1372               		.cfi_offset 13, -5
 1373 0008 EF92      		push r14
 1374               	.LCFI24:
 1375               		.cfi_def_cfa_offset 7
 1376               		.cfi_offset 14, -6
 1377 000a FF92      		push r15
 1378               	.LCFI25:
 1379               		.cfi_def_cfa_offset 8
 1380               		.cfi_offset 15, -7
 1381 000c 0F93      		push r16
 1382               	.LCFI26:
 1383               		.cfi_def_cfa_offset 9
 1384               		.cfi_offset 16, -8
 1385 000e 1F93      		push r17
 1386               	.LCFI27:
 1387               		.cfi_def_cfa_offset 10
 1388               		.cfi_offset 17, -9
 1389 0010 CF93      		push r28
 1390               	.LCFI28:
 1391               		.cfi_def_cfa_offset 11
 1392               		.cfi_offset 28, -10
 1393 0012 DF93      		push r29
 1394               	.LCFI29:
 1395               		.cfi_def_cfa_offset 12
 1396               		.cfi_offset 29, -11
 1397 0014 00D0      		rcall .
 1398 0016 0F92      		push __tmp_reg__
 1399               	.LCFI30:
 1400               		.cfi_def_cfa_offset 15
 1401 0018 CDB7      		in r28,__SP_L__
 1402 001a DEB7      		in r29,__SP_H__
 1403               	.LCFI31:
 1404               		.cfi_def_cfa_register 28
 1405               	/* prologue: function */
 1406               	/* frame size = 3 */
 1407               	/* stack size = 13 */
 1408               	.L__stack_usage = 13
 1409 001c 182F      		mov r17,r24
 1410 001e F62E      		mov r15,r22
 1411 0020 042F      		mov r16,r20
 1412 0022 E22E      		mov r14,r18
 441:quantum/rgblight.c ****         rgblight_status.base_mode = mode_base_table[rgblight_config.mode];
 1413               		.loc 1 441 5 is_stmt 1 view .LVU311
 441:quantum/rgblight.c ****         rgblight_status.base_mode = mode_base_table[rgblight_config.mode];
 1414               		.loc 1 441 9 is_stmt 0 view .LVU312
 1415 0024 9091 0000 		lds r25,rgblight_config
 441:quantum/rgblight.c ****         rgblight_status.base_mode = mode_base_table[rgblight_config.mode];
 1416               		.loc 1 441 8 view .LVU313
 1417 0028 90FF      		sbrs r25,0
 1418 002a 00C0      		rjmp .L71
 442:quantum/rgblight.c ****         if (rgblight_config.mode == RGBLIGHT_MODE_STATIC_LIGHT) {
 1419               		.loc 1 442 9 is_stmt 1 view .LVU314
 442:quantum/rgblight.c ****         if (rgblight_config.mode == RGBLIGHT_MODE_STATIC_LIGHT) {
 1420               		.loc 1 442 68 is_stmt 0 view .LVU315
 1421 002c E92F      		mov r30,r25
 1422 002e E695      		lsr r30
 1423 0030 AE2F      		mov r26,r30
 1424 0032 B0E0      		ldi r27,0
 442:quantum/rgblight.c ****         if (rgblight_config.mode == RGBLIGHT_MODE_STATIC_LIGHT) {
 1425               		.loc 1 442 52 view .LVU316
 1426 0034 A050      		subi r26,lo8(-(mode_base_table))
 1427 0036 B040      		sbci r27,hi8(-(mode_base_table))
 1428 0038 8C91      		ld r24,X
 1429               	.LVL76:
 442:quantum/rgblight.c ****         if (rgblight_config.mode == RGBLIGHT_MODE_STATIC_LIGHT) {
 1430               		.loc 1 442 35 view .LVU317
 1431 003a 8093 0000 		sts rgblight_status,r24
 443:quantum/rgblight.c ****             // same static color
 1432               		.loc 1 443 9 is_stmt 1 view .LVU318
 443:quantum/rgblight.c ****             // same static color
 1433               		.loc 1 443 34 is_stmt 0 view .LVU319
 1434 003e 9E7F      		andi r25,lo8(-2)
 443:quantum/rgblight.c ****             // same static color
 1435               		.loc 1 443 12 view .LVU320
 1436 0040 9230      		cpi r25,lo8(2)
 1437 0042 01F4      		brne .L74
 1438               	.LBB28:
 445:quantum/rgblight.c ****             sethsv(hue, sat, val, &tmp_led);
 1439               		.loc 1 445 13 is_stmt 1 view .LVU321
 446:quantum/rgblight.c ****             rgblight_setrgb(tmp_led.r, tmp_led.g, tmp_led.b);
 1440               		.loc 1 446 13 view .LVU322
 1441 0044 9E01      		movw r18,r28
 1442               	.LVL77:
 446:quantum/rgblight.c ****             rgblight_setrgb(tmp_led.r, tmp_led.g, tmp_led.b);
 1443               		.loc 1 446 13 is_stmt 0 view .LVU323
 1444 0046 2F5F      		subi r18,-1
 1445 0048 3F4F      		sbci r19,-1
 1446 004a 812F      		mov r24,r17
 1447 004c 0E94 0000 		call sethsv
 1448               	.LVL78:
 447:quantum/rgblight.c ****         } else {
 1449               		.loc 1 447 13 is_stmt 1 view .LVU324
 1450 0050 4B81      		ldd r20,Y+3
 1451 0052 6981      		ldd r22,Y+1
 1452 0054 8A81      		ldd r24,Y+2
 1453 0056 0E94 0000 		call rgblight_setrgb
 1454               	.LVL79:
 1455               	.L75:
 447:quantum/rgblight.c ****         } else {
 1456               		.loc 1 447 13 is_stmt 0 view .LVU325
 1457               	.LBE28:
 496:quantum/rgblight.c ****             RGBLIGHT_SPLIT_SET_CHANGE_HSVS;
 1458               		.loc 1 496 9 is_stmt 1 view .LVU326
 496:quantum/rgblight.c ****             RGBLIGHT_SPLIT_SET_CHANGE_HSVS;
 1459               		.loc 1 496 12 is_stmt 0 view .LVU327
 1460 005a 8091 0000 		lds r24,rgblight_config+1
 1461 005e 8113      		cpse r24,r17
 1462 0060 00C0      		rjmp .L83
 496:quantum/rgblight.c ****             RGBLIGHT_SPLIT_SET_CHANGE_HSVS;
 1463               		.loc 1 496 40 discriminator 1 view .LVU328
 1464 0062 8091 0000 		lds r24,rgblight_config+2
 1465 0066 8F11      		cpse r24,r15
 1466 0068 00C0      		rjmp .L83
 496:quantum/rgblight.c ****             RGBLIGHT_SPLIT_SET_CHANGE_HSVS;
 1467               		.loc 1 496 70 discriminator 2 view .LVU329
 1468 006a 8091 0000 		lds r24,rgblight_config+3
 1469 006e 8017      		cp r24,r16
 1470 0070 01F0      		breq .L84
 1471               	.L83:
 497:quantum/rgblight.c ****         }
 1472               		.loc 1 497 13 is_stmt 1 view .LVU330
 1473 0072 8091 0000 		lds r24,rgblight_status+2
 1474 0076 8260      		ori r24,lo8(2)
 1475 0078 8093 0000 		sts rgblight_status+2,r24
 1476               	.L84:
 500:quantum/rgblight.c ****         rgblight_config.sat = sat;
 1477               		.loc 1 500 9 view .LVU331
 500:quantum/rgblight.c ****         rgblight_config.sat = sat;
 1478               		.loc 1 500 29 is_stmt 0 view .LVU332
 1479 007c 1093 0000 		sts rgblight_config+1,r17
 501:quantum/rgblight.c ****         rgblight_config.val = val;
 1480               		.loc 1 501 9 is_stmt 1 view .LVU333
 501:quantum/rgblight.c ****         rgblight_config.val = val;
 1481               		.loc 1 501 29 is_stmt 0 view .LVU334
 1482 0080 F092 0000 		sts rgblight_config+2,r15
 502:quantum/rgblight.c ****         if (write_to_eeprom) {
 1483               		.loc 1 502 9 is_stmt 1 view .LVU335
 502:quantum/rgblight.c ****         if (write_to_eeprom) {
 1484               		.loc 1 502 29 is_stmt 0 view .LVU336
 1485 0084 0093 0000 		sts rgblight_config+3,r16
 503:quantum/rgblight.c ****             eeconfig_update_rgblight(rgblight_config.raw);
 1486               		.loc 1 503 9 is_stmt 1 view .LVU337
 503:quantum/rgblight.c ****             eeconfig_update_rgblight(rgblight_config.raw);
 1487               		.loc 1 503 12 is_stmt 0 view .LVU338
 1488 0088 EE20      		tst r14
 1489 008a 01F0      		breq .L71
 504:quantum/rgblight.c ****             dprintf("rgblight set hsv [EEPROM]: %u,%u,%u\n", rgblight_config.hue, rgblight_config.s
 1490               		.loc 1 504 13 is_stmt 1 view .LVU339
 1491 008c 6091 0000 		lds r22,rgblight_config
 1492 0090 7091 0000 		lds r23,rgblight_config+1
 1493 0094 8091 0000 		lds r24,rgblight_config+2
 1494 0098 9091 0000 		lds r25,rgblight_config+3
 1495 009c 0E94 0000 		call eeconfig_update_rgblight
 1496               	.LVL80:
 505:quantum/rgblight.c ****         } else {
 1497               		.loc 1 505 124 view .LVU340
 507:quantum/rgblight.c ****         }
 1498               		.loc 1 507 126 view .LVU341
 1499               	.L71:
 1500               	/* epilogue start */
 510:quantum/rgblight.c **** 
 1501               		.loc 1 510 1 is_stmt 0 view .LVU342
 1502 00a0 0F90      		pop __tmp_reg__
 1503 00a2 0F90      		pop __tmp_reg__
 1504 00a4 0F90      		pop __tmp_reg__
 1505 00a6 DF91      		pop r29
 1506 00a8 CF91      		pop r28
 1507 00aa 1F91      		pop r17
 1508               	.LVL81:
 510:quantum/rgblight.c **** 
 1509               		.loc 1 510 1 view .LVU343
 1510 00ac 0F91      		pop r16
 1511               	.LVL82:
 510:quantum/rgblight.c **** 
 1512               		.loc 1 510 1 view .LVU344
 1513 00ae FF90      		pop r15
 1514               	.LVL83:
 510:quantum/rgblight.c **** 
 1515               		.loc 1 510 1 view .LVU345
 1516 00b0 EF90      		pop r14
 1517               	.LVL84:
 510:quantum/rgblight.c **** 
 1518               		.loc 1 510 1 view .LVU346
 1519 00b2 DF90      		pop r13
 1520 00b4 CF90      		pop r12
 1521 00b6 BF90      		pop r11
 1522 00b8 AF90      		pop r10
 1523 00ba 0895      		ret
 1524               	.LVL85:
 1525               	.L74:
 450:quantum/rgblight.c ****             }
 1526               		.loc 1 450 13 is_stmt 1 view .LVU347
 453:quantum/rgblight.c ****                 // breathing mode, ignore the change of val, use in memory value instead
 1527               		.loc 1 453 18 view .LVU348
 453:quantum/rgblight.c ****                 // breathing mode, ignore the change of val, use in memory value instead
 1528               		.loc 1 453 21 is_stmt 0 view .LVU349
 1529 00bc 8230      		cpi r24,lo8(2)
 1530 00be 01F4      		brne .L76
 455:quantum/rgblight.c ****             }
 1531               		.loc 1 455 17 is_stmt 1 view .LVU350
 455:quantum/rgblight.c ****             }
 1532               		.loc 1 455 21 is_stmt 0 view .LVU351
 1533 00c0 0091 0000 		lds r16,rgblight_config+3
 1534               	.LVL86:
 455:quantum/rgblight.c ****             }
 1535               		.loc 1 455 21 view .LVU352
 1536 00c4 00C0      		rjmp .L75
 1537               	.L76:
 459:quantum/rgblight.c ****                 // rainbow mood, ignore the change of hue
 1538               		.loc 1 459 18 is_stmt 1 view .LVU353
 459:quantum/rgblight.c ****                 // rainbow mood, ignore the change of hue
 1539               		.loc 1 459 21 is_stmt 0 view .LVU354
 1540 00c6 8630      		cpi r24,lo8(6)
 1541 00c8 01F4      		brne .L77
 1542               	.L78:
 461:quantum/rgblight.c ****             }
 1543               		.loc 1 461 17 is_stmt 1 view .LVU355
 461:quantum/rgblight.c ****             }
 1544               		.loc 1 461 21 is_stmt 0 view .LVU356
 1545 00ca 1091 0000 		lds r17,rgblight_config+1
 1546               	.LVL87:
 461:quantum/rgblight.c ****             }
 1547               		.loc 1 461 21 view .LVU357
 1548 00ce 00C0      		rjmp .L75
 1549               	.L77:
 465:quantum/rgblight.c ****                 // rainbow swirl, ignore the change of hue
 1550               		.loc 1 465 18 is_stmt 1 view .LVU358
 465:quantum/rgblight.c ****                 // rainbow swirl, ignore the change of hue
 1551               		.loc 1 465 21 is_stmt 0 view .LVU359
 1552 00d0 8930      		cpi r24,lo8(9)
 1553 00d2 01F0      		breq .L78
 471:quantum/rgblight.c ****                 // static gradient
 1554               		.loc 1 471 18 is_stmt 1 view .LVU360
 471:quantum/rgblight.c ****                 // static gradient
 1555               		.loc 1 471 21 is_stmt 0 view .LVU361
 1556 00d4 8931      		cpi r24,lo8(25)
 1557 00d6 01F4      		brne .L75
 1558               	.LBB29:
 473:quantum/rgblight.c ****                 bool    direction = (delta % 2) == 0;
 1559               		.loc 1 473 17 is_stmt 1 view .LVU362
 473:quantum/rgblight.c ****                 bool    direction = (delta % 2) == 0;
 1560               		.loc 1 473 25 is_stmt 0 view .LVU363
 1561 00d8 E951      		subi r30,lo8(-(-25))
 1562               	.LVL88:
 474:quantum/rgblight.c **** #    ifdef __AVR__
 1563               		.loc 1 474 17 is_stmt 1 view .LVU364
 474:quantum/rgblight.c **** #    ifdef __AVR__
 1564               		.loc 1 474 49 is_stmt 0 view .LVU365
 1565 00da 8E2F      		mov r24,r30
 1566 00dc 8170      		andi r24,lo8(1)
 1567 00de D82E      		mov r13,r24
 1568               	.LVL89:
 477:quantum/rgblight.c **** #    else
 1569               		.loc 1 477 17 is_stmt 1 view .LVU366
 1570               	.LBB30:
 477:quantum/rgblight.c **** #    else
 1571               		.loc 1 477 33 view .LVU367
 1572 00e0 E695      		lsr r30
 1573               	.LVL90:
 477:quantum/rgblight.c **** #    else
 1574               		.loc 1 477 33 is_stmt 0 view .LVU368
 1575 00e2 F0E0      		ldi r31,0
 1576 00e4 E050      		subi r30,lo8(-(RGBLED_GRADIENT_RANGES))
 1577 00e6 F040      		sbci r31,hi8(-(RGBLED_GRADIENT_RANGES))
 1578               	.LVL91:
 477:quantum/rgblight.c **** #    else
 1579               		.loc 1 477 33 is_stmt 1 view .LVU369
 477:quantum/rgblight.c **** #    else
 1580               		.loc 1 477 33 view .LVU370
 1581               	/* #APP */
 1582               	 ;  477 "quantum/rgblight.c" 1
 1583 00e8 A590      		lpm r10, Z+
 1584 00ea B490      		lpm r11, Z
 1585               		
 1586               	 ;  0 "" 2
 1587               	.LVL92:
 477:quantum/rgblight.c **** #    else
 1588               		.loc 1 477 33 view .LVU371
 477:quantum/rgblight.c **** #    else
 1589               		.loc 1 477 33 is_stmt 0 view .LVU372
 1590               	/* #NOAPP */
 1591               	.LBE30:
 481:quantum/rgblight.c ****                     uint8_t _hue = ((uint16_t)i * (uint16_t)range) / rgblight_ranges.effect_num_led
 1592               		.loc 1 481 17 is_stmt 1 view .LVU373
 1593               	.LBB31:
 481:quantum/rgblight.c ****                     uint8_t _hue = ((uint16_t)i * (uint16_t)range) / rgblight_ranges.effect_num_led
 1594               		.loc 1 481 22 view .LVU374
 481:quantum/rgblight.c ****                     uint8_t _hue = ((uint16_t)i * (uint16_t)range) / rgblight_ranges.effect_num_led
 1595               		.loc 1 481 30 is_stmt 0 view .LVU375
 1596 00ec C12C      		mov r12,__zero_reg__
 1597               	.LBB32:
 482:quantum/rgblight.c ****                     if (direction) {
 1598               		.loc 1 482 49 view .LVU376
 1599 00ee BB24      		clr r11
 1600               	.LVL93:
 1601               	.L79:
 482:quantum/rgblight.c ****                     if (direction) {
 1602               		.loc 1 482 49 view .LVU377
 1603               	.LBE32:
 481:quantum/rgblight.c ****                     uint8_t _hue = ((uint16_t)i * (uint16_t)range) / rgblight_ranges.effect_num_led
 1604               		.loc 1 481 37 is_stmt 1 discriminator 1 view .LVU378
 481:quantum/rgblight.c ****                     uint8_t _hue = ((uint16_t)i * (uint16_t)range) / rgblight_ranges.effect_num_led
 1605               		.loc 1 481 56 is_stmt 0 discriminator 1 view .LVU379
 1606 00f0 6091 0000 		lds r22,rgblight_ranges+4
 481:quantum/rgblight.c ****                     uint8_t _hue = ((uint16_t)i * (uint16_t)range) / rgblight_ranges.effect_num_led
 1607               		.loc 1 481 17 discriminator 1 view .LVU380
 1608 00f4 C616      		cp r12,r22
 1609 00f6 00F0      		brlo .L82
 1610               	.LBE31:
 491:quantum/rgblight.c ****             }
 1611               		.loc 1 491 17 is_stmt 1 view .LVU381
 1612 00f8 0E94 0000 		call rgblight_set
 1613               	.LVL94:
 1614 00fc 00C0      		rjmp .L75
 1615               	.L82:
 1616               	.LBB35:
 1617               	.LBB33:
 482:quantum/rgblight.c ****                     if (direction) {
 1618               		.loc 1 482 21 view .LVU382
 482:quantum/rgblight.c ****                     if (direction) {
 1619               		.loc 1 482 37 is_stmt 0 view .LVU383
 1620 00fe 2C2D      		mov r18,r12
 1621 0100 30E0      		ldi r19,0
 482:quantum/rgblight.c ****                     if (direction) {
 1622               		.loc 1 482 49 view .LVU384
 1623 0102 A29E      		mul r10,r18
 1624 0104 C001      		movw r24,r0
 1625 0106 A39E      		mul r10,r19
 1626 0108 900D      		add r25,r0
 1627 010a B29E      		mul r11,r18
 1628 010c 900D      		add r25,r0
 1629 010e 1124      		clr r1
 482:quantum/rgblight.c ****                     if (direction) {
 1630               		.loc 1 482 85 view .LVU385
 1631 0110 70E0      		ldi r23,0
 482:quantum/rgblight.c ****                     if (direction) {
 1632               		.loc 1 482 68 view .LVU386
 1633 0112 0E94 0000 		call __udivmodhi4
 1634               	.LVL95:
 483:quantum/rgblight.c ****                         _hue = hue + _hue;
 1635               		.loc 1 483 21 is_stmt 1 view .LVU387
 484:quantum/rgblight.c ****                     } else {
 1636               		.loc 1 484 30 is_stmt 0 view .LVU388
 1637 0116 812F      		mov r24,r17
 483:quantum/rgblight.c ****                         _hue = hue + _hue;
 1638               		.loc 1 483 24 view .LVU389
 1639 0118 D110      		cpse r13,__zero_reg__
 1640 011a 00C0      		rjmp .L80
 484:quantum/rgblight.c ****                     } else {
 1641               		.loc 1 484 25 is_stmt 1 view .LVU390
 484:quantum/rgblight.c ****                     } else {
 1642               		.loc 1 484 30 is_stmt 0 view .LVU391
 1643 011c 860F      		add r24,r22
 1644               	.LVL96:
 1645               	.L81:
 488:quantum/rgblight.c ****                     sethsv(_hue, sat, val, (LED_TYPE *)&led[i + rgblight_ranges.effect_start_pos]);
 1646               		.loc 1 488 98 is_stmt 1 discriminator 2 view .LVU392
 489:quantum/rgblight.c ****                 }
 1647               		.loc 1 489 21 discriminator 2 view .LVU393
 489:quantum/rgblight.c ****                 }
 1648               		.loc 1 489 80 is_stmt 0 discriminator 2 view .LVU394
 1649 011e 4091 0000 		lds r20,rgblight_ranges+2
 489:quantum/rgblight.c ****                 }
 1650               		.loc 1 489 63 discriminator 2 view .LVU395
 1651 0122 420F      		add r20,r18
 1652 0124 532F      		mov r21,r19
 1653 0126 511D      		adc r21,__zero_reg__
 489:quantum/rgblight.c ****                 }
 1654               		.loc 1 489 21 discriminator 2 view .LVU396
 1655 0128 9A01      		movw r18,r20
 1656 012a 220F      		lsl r18
 1657 012c 331F      		rol r19
 1658 012e 240F      		add r18,r20
 1659 0130 351F      		adc r19,r21
 1660 0132 2050      		subi r18,lo8(-(led))
 1661 0134 3040      		sbci r19,hi8(-(led))
 1662 0136 402F      		mov r20,r16
 1663 0138 6F2D      		mov r22,r15
 1664 013a 0E94 0000 		call sethsv
 1665               	.LVL97:
 489:quantum/rgblight.c ****                 }
 1666               		.loc 1 489 21 discriminator 2 view .LVU397
 1667               	.LBE33:
 481:quantum/rgblight.c ****                     uint8_t _hue = ((uint16_t)i * (uint16_t)range) / rgblight_ranges.effect_num_led
 1668               		.loc 1 481 74 is_stmt 1 discriminator 2 view .LVU398
 481:quantum/rgblight.c ****                     uint8_t _hue = ((uint16_t)i * (uint16_t)range) / rgblight_ranges.effect_num_led
 1669               		.loc 1 481 75 is_stmt 0 discriminator 2 view .LVU399
 1670 013e C394      		inc r12
 1671               	.LVL98:
 481:quantum/rgblight.c ****                     uint8_t _hue = ((uint16_t)i * (uint16_t)range) / rgblight_ranges.effect_num_led
 1672               		.loc 1 481 75 discriminator 2 view .LVU400
 1673 0140 00C0      		rjmp .L79
 1674               	.LVL99:
 1675               	.L80:
 1676               	.LBB34:
 486:quantum/rgblight.c ****                     }
 1677               		.loc 1 486 25 is_stmt 1 view .LVU401
 486:quantum/rgblight.c ****                     }
 1678               		.loc 1 486 30 is_stmt 0 view .LVU402
 1679 0142 861B      		sub r24,r22
 1680               	.LVL100:
 486:quantum/rgblight.c ****                     }
 1681               		.loc 1 486 30 view .LVU403
 1682 0144 00C0      		rjmp .L81
 1683               	.LBE34:
 1684               	.LBE35:
 1685               	.LBE29:
 1686               		.cfi_endproc
 1687               	.LFE143:
 1689               		.section	.text.rgblight_increase_hue_helper,"ax",@progbits
 1690               	.global	rgblight_increase_hue_helper
 1692               	rgblight_increase_hue_helper:
 1693               	.LVL101:
 1694               	.LFB118:
 375:quantum/rgblight.c ****     uint8_t hue = rgblight_config.hue + RGBLIGHT_HUE_STEP;
 1695               		.loc 1 375 57 is_stmt 1 view -0
 1696               		.cfi_startproc
 1697               	/* prologue: function */
 1698               	/* frame size = 0 */
 1699               	/* stack size = 0 */
 1700               	.L__stack_usage = 0
 376:quantum/rgblight.c ****     rgblight_sethsv_eeprom_helper(hue, rgblight_config.sat, rgblight_config.val, write_to_eeprom);
 1701               		.loc 1 376 5 view .LVU405
 377:quantum/rgblight.c **** }
 1702               		.loc 1 377 5 view .LVU406
 1703 0000 E0E0      		ldi r30,lo8(rgblight_config)
 1704 0002 F0E0      		ldi r31,hi8(rgblight_config)
 376:quantum/rgblight.c ****     rgblight_sethsv_eeprom_helper(hue, rgblight_config.sat, rgblight_config.val, write_to_eeprom);
 1705               		.loc 1 376 13 is_stmt 0 view .LVU407
 1706 0004 9181      		ldd r25,Z+1
 377:quantum/rgblight.c **** }
 1707               		.loc 1 377 5 view .LVU408
 1708 0006 282F      		mov r18,r24
 1709 0008 4381      		ldd r20,Z+3
 1710 000a 6281      		ldd r22,Z+2
 1711 000c 8AE0      		ldi r24,lo8(10)
 1712               	.LVL102:
 377:quantum/rgblight.c **** }
 1713               		.loc 1 377 5 view .LVU409
 1714 000e 890F      		add r24,r25
 1715               	.LVL103:
 377:quantum/rgblight.c **** }
 1716               		.loc 1 377 5 view .LVU410
 1717 0010 0C94 0000 		jmp rgblight_sethsv_eeprom_helper
 1718               	.LVL104:
 377:quantum/rgblight.c **** }
 1719               		.loc 1 377 5 view .LVU411
 1720               		.cfi_endproc
 1721               	.LFE118:
 1723               		.section	.text.rgblight_increase_hue_noeeprom,"ax",@progbits
 1724               	.global	rgblight_increase_hue_noeeprom
 1726               	rgblight_increase_hue_noeeprom:
 1727               	.LFB119:
 379:quantum/rgblight.c **** void rgblight_increase_hue(void) { rgblight_increase_hue_helper(true); }
 1728               		.loc 1 379 43 is_stmt 1 view -0
 1729               		.cfi_startproc
 1730               	/* prologue: function */
 1731               	/* frame size = 0 */
 1732               	/* stack size = 0 */
 1733               	.L__stack_usage = 0
 379:quantum/rgblight.c **** void rgblight_increase_hue(void) { rgblight_increase_hue_helper(true); }
 1734               		.loc 1 379 45 view .LVU413
 1735 0000 80E0      		ldi r24,0
 1736 0002 0C94 0000 		jmp rgblight_increase_hue_helper
 1737               	.LVL105:
 1738               		.cfi_endproc
 1739               	.LFE119:
 1741               		.section	.text.rgblight_increase_hue,"ax",@progbits
 1742               	.global	rgblight_increase_hue
 1744               	rgblight_increase_hue:
 1745               	.LFB120:
 380:quantum/rgblight.c **** void rgblight_decrease_hue_helper(bool write_to_eeprom) {
 1746               		.loc 1 380 34 view -0
 1747               		.cfi_startproc
 1748               	/* prologue: function */
 1749               	/* frame size = 0 */
 1750               	/* stack size = 0 */
 1751               	.L__stack_usage = 0
 380:quantum/rgblight.c **** void rgblight_decrease_hue_helper(bool write_to_eeprom) {
 1752               		.loc 1 380 36 view .LVU415
 1753 0000 81E0      		ldi r24,lo8(1)
 1754 0002 0C94 0000 		jmp rgblight_increase_hue_helper
 1755               	.LVL106:
 1756               		.cfi_endproc
 1757               	.LFE120:
 1759               		.section	.text.rgblight_decrease_hue_helper,"ax",@progbits
 1760               	.global	rgblight_decrease_hue_helper
 1762               	rgblight_decrease_hue_helper:
 1763               	.LVL107:
 1764               	.LFB121:
 381:quantum/rgblight.c ****     uint8_t hue = rgblight_config.hue - RGBLIGHT_HUE_STEP;
 1765               		.loc 1 381 57 view -0
 1766               		.cfi_startproc
 1767               	/* prologue: function */
 1768               	/* frame size = 0 */
 1769               	/* stack size = 0 */
 1770               	.L__stack_usage = 0
 382:quantum/rgblight.c ****     rgblight_sethsv_eeprom_helper(hue, rgblight_config.sat, rgblight_config.val, write_to_eeprom);
 1771               		.loc 1 382 5 view .LVU417
 383:quantum/rgblight.c **** }
 1772               		.loc 1 383 5 view .LVU418
 1773 0000 E0E0      		ldi r30,lo8(rgblight_config)
 1774 0002 F0E0      		ldi r31,hi8(rgblight_config)
 382:quantum/rgblight.c ****     rgblight_sethsv_eeprom_helper(hue, rgblight_config.sat, rgblight_config.val, write_to_eeprom);
 1775               		.loc 1 382 13 is_stmt 0 view .LVU419
 1776 0004 9181      		ldd r25,Z+1
 383:quantum/rgblight.c **** }
 1777               		.loc 1 383 5 view .LVU420
 1778 0006 282F      		mov r18,r24
 1779 0008 4381      		ldd r20,Z+3
 1780 000a 6281      		ldd r22,Z+2
 1781 000c 86EF      		ldi r24,lo8(-10)
 1782               	.LVL108:
 383:quantum/rgblight.c **** }
 1783               		.loc 1 383 5 view .LVU421
 1784 000e 890F      		add r24,r25
 1785               	.LVL109:
 383:quantum/rgblight.c **** }
 1786               		.loc 1 383 5 view .LVU422
 1787 0010 0C94 0000 		jmp rgblight_sethsv_eeprom_helper
 1788               	.LVL110:
 383:quantum/rgblight.c **** }
 1789               		.loc 1 383 5 view .LVU423
 1790               		.cfi_endproc
 1791               	.LFE121:
 1793               		.section	.text.rgblight_decrease_hue_noeeprom,"ax",@progbits
 1794               	.global	rgblight_decrease_hue_noeeprom
 1796               	rgblight_decrease_hue_noeeprom:
 1797               	.LFB122:
 385:quantum/rgblight.c **** void rgblight_decrease_hue(void) { rgblight_decrease_hue_helper(true); }
 1798               		.loc 1 385 43 is_stmt 1 view -0
 1799               		.cfi_startproc
 1800               	/* prologue: function */
 1801               	/* frame size = 0 */
 1802               	/* stack size = 0 */
 1803               	.L__stack_usage = 0
 385:quantum/rgblight.c **** void rgblight_decrease_hue(void) { rgblight_decrease_hue_helper(true); }
 1804               		.loc 1 385 45 view .LVU425
 1805 0000 80E0      		ldi r24,0
 1806 0002 0C94 0000 		jmp rgblight_decrease_hue_helper
 1807               	.LVL111:
 1808               		.cfi_endproc
 1809               	.LFE122:
 1811               		.section	.text.rgblight_decrease_hue,"ax",@progbits
 1812               	.global	rgblight_decrease_hue
 1814               	rgblight_decrease_hue:
 1815               	.LFB123:
 386:quantum/rgblight.c **** void rgblight_increase_sat_helper(bool write_to_eeprom) {
 1816               		.loc 1 386 34 view -0
 1817               		.cfi_startproc
 1818               	/* prologue: function */
 1819               	/* frame size = 0 */
 1820               	/* stack size = 0 */
 1821               	.L__stack_usage = 0
 386:quantum/rgblight.c **** void rgblight_increase_sat_helper(bool write_to_eeprom) {
 1822               		.loc 1 386 36 view .LVU427
 1823 0000 81E0      		ldi r24,lo8(1)
 1824 0002 0C94 0000 		jmp rgblight_decrease_hue_helper
 1825               	.LVL112:
 1826               		.cfi_endproc
 1827               	.LFE123:
 1829               		.section	.text.rgblight_increase_sat_helper,"ax",@progbits
 1830               	.global	rgblight_increase_sat_helper
 1832               	rgblight_increase_sat_helper:
 1833               	.LVL113:
 1834               	.LFB124:
 387:quantum/rgblight.c ****     uint8_t sat = qadd8(rgblight_config.sat, RGBLIGHT_SAT_STEP);
 1835               		.loc 1 387 57 view -0
 1836               		.cfi_startproc
 1837               	/* prologue: function */
 1838               	/* frame size = 0 */
 1839               	/* stack size = 0 */
 1840               	.L__stack_usage = 0
 388:quantum/rgblight.c ****     rgblight_sethsv_eeprom_helper(rgblight_config.hue, sat, rgblight_config.val, write_to_eeprom);
 1841               		.loc 1 388 5 view .LVU429
 1842               	.LBB36:
 1843               	.LBI36:
 1844               		.file 2 "./lib/lib8tion/math8.h"
   1:./lib/lib8tion/math8.h **** #ifndef __INC_LIB8TION_MATH_H
   2:./lib/lib8tion/math8.h **** #define __INC_LIB8TION_MATH_H
   3:./lib/lib8tion/math8.h **** 
   4:./lib/lib8tion/math8.h **** #include "scale8.h"
   5:./lib/lib8tion/math8.h **** 
   6:./lib/lib8tion/math8.h **** ///@ingroup lib8tion
   7:./lib/lib8tion/math8.h **** 
   8:./lib/lib8tion/math8.h **** ///@defgroup Math Basic math operations
   9:./lib/lib8tion/math8.h **** /// Fast, efficient 8-bit math functions specifically
  10:./lib/lib8tion/math8.h **** /// designed for high-performance LED programming.
  11:./lib/lib8tion/math8.h **** ///
  12:./lib/lib8tion/math8.h **** /// Because of the AVR(Arduino) and ARM assembly language
  13:./lib/lib8tion/math8.h **** /// implementations provided, using these functions often
  14:./lib/lib8tion/math8.h **** /// results in smaller and faster code than the equivalent
  15:./lib/lib8tion/math8.h **** /// program using plain "C" arithmetic and logic.
  16:./lib/lib8tion/math8.h **** ///@{
  17:./lib/lib8tion/math8.h **** 
  18:./lib/lib8tion/math8.h **** 
  19:./lib/lib8tion/math8.h **** /// add one byte to another, saturating at 0xFF
  20:./lib/lib8tion/math8.h **** /// @param i - first byte to add
  21:./lib/lib8tion/math8.h **** /// @param j - second byte to add
  22:./lib/lib8tion/math8.h **** /// @returns the sum of i & j, capped at 0xFF
  23:./lib/lib8tion/math8.h **** LIB8STATIC_ALWAYS_INLINE uint8_t qadd8( uint8_t i, uint8_t j)
 1845               		.loc 2 23 34 view .LVU430
 1846               	.LBB37:
  24:./lib/lib8tion/math8.h **** {
  25:./lib/lib8tion/math8.h **** #if QADD8_C == 1
  26:./lib/lib8tion/math8.h ****     uint16_t t = i + j;
  27:./lib/lib8tion/math8.h ****     if (t > 255) t = 255;
  28:./lib/lib8tion/math8.h ****     return t;
  29:./lib/lib8tion/math8.h **** #elif QADD8_AVRASM == 1
  30:./lib/lib8tion/math8.h ****     asm volatile(
 1847               		.loc 2 30 5 view .LVU431
 1848               	.LBE37:
 1849               	.LBE36:
 388:quantum/rgblight.c ****     rgblight_sethsv_eeprom_helper(rgblight_config.hue, sat, rgblight_config.val, write_to_eeprom);
 1850               		.loc 1 388 19 is_stmt 0 view .LVU432
 1851 0000 E0E0      		ldi r30,lo8(rgblight_config)
 1852 0002 F0E0      		ldi r31,hi8(rgblight_config)
 1853               	.LBB39:
 1854               	.LBB38:
 1855               		.loc 2 30 5 view .LVU433
 1856 0004 6281      		ldd r22,Z+2
 1857 0006 21E1      		ldi r18,lo8(17)
 1858               	/* #APP */
 1859               	 ;  30 "./lib/lib8tion/math8.h" 1
 1860 0008 620F      		add r22, r18    
 1861 000a 00F4      		brcc L_1415     
 1862 000c 6FEF      		ldi r22, 0xFF  
 1863               		L_1415: 
 1864               	 ;  0 "" 2
 1865               	.LVL114:
  31:./lib/lib8tion/math8.h ****          /* First, add j to i, conditioning the C flag */
  32:./lib/lib8tion/math8.h ****          "add %0, %1    \n\t"
  33:./lib/lib8tion/math8.h **** 
  34:./lib/lib8tion/math8.h ****          /* Now test the C flag.
  35:./lib/lib8tion/math8.h ****            If C is clear, we branch around a load of 0xFF into i.
  36:./lib/lib8tion/math8.h ****            If C is set, we go ahead and load 0xFF into i.
  37:./lib/lib8tion/math8.h ****          */
  38:./lib/lib8tion/math8.h ****          "brcc L_%=     \n\t"
  39:./lib/lib8tion/math8.h ****          "ldi %0, 0xFF  \n\t"
  40:./lib/lib8tion/math8.h ****          "L_%=: "
  41:./lib/lib8tion/math8.h ****          : "+a" (i)
  42:./lib/lib8tion/math8.h ****          : "a"  (j) );
  43:./lib/lib8tion/math8.h ****     return i;
 1866               		.loc 2 43 5 is_stmt 1 view .LVU434
 1867               		.loc 2 43 5 is_stmt 0 view .LVU435
 1868               	/* #NOAPP */
 1869               	.LBE38:
 1870               	.LBE39:
 389:quantum/rgblight.c **** }
 1871               		.loc 1 389 5 is_stmt 1 view .LVU436
 1872 000e 282F      		mov r18,r24
 1873 0010 4381      		ldd r20,Z+3
 1874 0012 8181      		ldd r24,Z+1
 1875               	.LVL115:
 389:quantum/rgblight.c **** }
 1876               		.loc 1 389 5 is_stmt 0 view .LVU437
 1877 0014 0C94 0000 		jmp rgblight_sethsv_eeprom_helper
 1878               	.LVL116:
 389:quantum/rgblight.c **** }
 1879               		.loc 1 389 5 view .LVU438
 1880               		.cfi_endproc
 1881               	.LFE124:
 1883               		.section	.text.rgblight_increase_sat_noeeprom,"ax",@progbits
 1884               	.global	rgblight_increase_sat_noeeprom
 1886               	rgblight_increase_sat_noeeprom:
 1887               	.LFB125:
 391:quantum/rgblight.c **** void rgblight_increase_sat(void) { rgblight_increase_sat_helper(true); }
 1888               		.loc 1 391 43 is_stmt 1 view -0
 1889               		.cfi_startproc
 1890               	/* prologue: function */
 1891               	/* frame size = 0 */
 1892               	/* stack size = 0 */
 1893               	.L__stack_usage = 0
 391:quantum/rgblight.c **** void rgblight_increase_sat(void) { rgblight_increase_sat_helper(true); }
 1894               		.loc 1 391 45 view .LVU440
 1895 0000 80E0      		ldi r24,0
 1896 0002 0C94 0000 		jmp rgblight_increase_sat_helper
 1897               	.LVL117:
 1898               		.cfi_endproc
 1899               	.LFE125:
 1901               		.section	.text.rgblight_increase_sat,"ax",@progbits
 1902               	.global	rgblight_increase_sat
 1904               	rgblight_increase_sat:
 1905               	.LFB126:
 392:quantum/rgblight.c **** void rgblight_decrease_sat_helper(bool write_to_eeprom) {
 1906               		.loc 1 392 34 view -0
 1907               		.cfi_startproc
 1908               	/* prologue: function */
 1909               	/* frame size = 0 */
 1910               	/* stack size = 0 */
 1911               	.L__stack_usage = 0
 392:quantum/rgblight.c **** void rgblight_decrease_sat_helper(bool write_to_eeprom) {
 1912               		.loc 1 392 36 view .LVU442
 1913 0000 81E0      		ldi r24,lo8(1)
 1914 0002 0C94 0000 		jmp rgblight_increase_sat_helper
 1915               	.LVL118:
 1916               		.cfi_endproc
 1917               	.LFE126:
 1919               		.section	.text.rgblight_decrease_sat_helper,"ax",@progbits
 1920               	.global	rgblight_decrease_sat_helper
 1922               	rgblight_decrease_sat_helper:
 1923               	.LVL119:
 1924               	.LFB127:
 393:quantum/rgblight.c ****     uint8_t sat = qsub8(rgblight_config.sat, RGBLIGHT_SAT_STEP);
 1925               		.loc 1 393 57 view -0
 1926               		.cfi_startproc
 1927               	/* prologue: function */
 1928               	/* frame size = 0 */
 1929               	/* stack size = 0 */
 1930               	.L__stack_usage = 0
 394:quantum/rgblight.c ****     rgblight_sethsv_eeprom_helper(rgblight_config.hue, sat, rgblight_config.val, write_to_eeprom);
 1931               		.loc 1 394 5 view .LVU444
 1932               	.LBB40:
 1933               	.LBI40:
  44:./lib/lib8tion/math8.h **** #elif QADD8_ARM_DSP_ASM == 1
  45:./lib/lib8tion/math8.h ****     asm volatile( "uqadd8 %0, %0, %1" : "+r" (i) : "r" (j));
  46:./lib/lib8tion/math8.h ****     return i;
  47:./lib/lib8tion/math8.h **** #else
  48:./lib/lib8tion/math8.h **** #error "No implementation for qadd8 available."
  49:./lib/lib8tion/math8.h **** #endif
  50:./lib/lib8tion/math8.h **** }
  51:./lib/lib8tion/math8.h **** 
  52:./lib/lib8tion/math8.h **** /// Add one byte to another, saturating at 0x7F
  53:./lib/lib8tion/math8.h **** /// @param i - first byte to add
  54:./lib/lib8tion/math8.h **** /// @param j - second byte to add
  55:./lib/lib8tion/math8.h **** /// @returns the sum of i & j, capped at 0xFF
  56:./lib/lib8tion/math8.h **** LIB8STATIC_ALWAYS_INLINE int8_t qadd7( int8_t i, int8_t j)
  57:./lib/lib8tion/math8.h **** {
  58:./lib/lib8tion/math8.h **** #if QADD7_C == 1
  59:./lib/lib8tion/math8.h ****     int16_t t = i + j;
  60:./lib/lib8tion/math8.h ****     if (t > 127) t = 127;
  61:./lib/lib8tion/math8.h ****     return t;
  62:./lib/lib8tion/math8.h **** #elif QADD7_AVRASM == 1
  63:./lib/lib8tion/math8.h ****     asm volatile(
  64:./lib/lib8tion/math8.h ****          /* First, add j to i, conditioning the V flag */
  65:./lib/lib8tion/math8.h ****          "add %0, %1    \n\t"
  66:./lib/lib8tion/math8.h **** 
  67:./lib/lib8tion/math8.h ****          /* Now test the V flag.
  68:./lib/lib8tion/math8.h ****           If V is clear, we branch around a load of 0x7F into i.
  69:./lib/lib8tion/math8.h ****           If V is set, we go ahead and load 0x7F into i.
  70:./lib/lib8tion/math8.h ****           */
  71:./lib/lib8tion/math8.h ****          "brvc L_%=     \n\t"
  72:./lib/lib8tion/math8.h ****          "ldi %0, 0x7F  \n\t"
  73:./lib/lib8tion/math8.h ****          "L_%=: "
  74:./lib/lib8tion/math8.h ****          : "+a" (i)
  75:./lib/lib8tion/math8.h ****          : "a"  (j) );
  76:./lib/lib8tion/math8.h **** 
  77:./lib/lib8tion/math8.h ****     return i;
  78:./lib/lib8tion/math8.h **** #elif QADD7_ARM_DSP_ASM == 1
  79:./lib/lib8tion/math8.h ****     asm volatile( "qadd8 %0, %0, %1" : "+r" (i) : "r" (j));
  80:./lib/lib8tion/math8.h ****     return i;
  81:./lib/lib8tion/math8.h **** #else
  82:./lib/lib8tion/math8.h **** #error "No implementation for qadd7 available."
  83:./lib/lib8tion/math8.h **** #endif
  84:./lib/lib8tion/math8.h **** }
  85:./lib/lib8tion/math8.h **** 
  86:./lib/lib8tion/math8.h **** /// subtract one byte from another, saturating at 0x00
  87:./lib/lib8tion/math8.h **** /// @returns i - j with a floor of 0
  88:./lib/lib8tion/math8.h **** LIB8STATIC_ALWAYS_INLINE uint8_t qsub8( uint8_t i, uint8_t j)
 1934               		.loc 2 88 34 view .LVU445
 1935               	.LBB41:
  89:./lib/lib8tion/math8.h **** {
  90:./lib/lib8tion/math8.h **** #if QSUB8_C == 1
  91:./lib/lib8tion/math8.h ****     int16_t t = i - j;
  92:./lib/lib8tion/math8.h ****     if (t < 0) t = 0;
  93:./lib/lib8tion/math8.h ****     return t;
  94:./lib/lib8tion/math8.h **** #elif QSUB8_AVRASM == 1
  95:./lib/lib8tion/math8.h **** 
  96:./lib/lib8tion/math8.h ****     asm volatile(
 1936               		.loc 2 96 5 view .LVU446
 1937               	.LBE41:
 1938               	.LBE40:
 394:quantum/rgblight.c ****     rgblight_sethsv_eeprom_helper(rgblight_config.hue, sat, rgblight_config.val, write_to_eeprom);
 1939               		.loc 1 394 19 is_stmt 0 view .LVU447
 1940 0000 E0E0      		ldi r30,lo8(rgblight_config)
 1941 0002 F0E0      		ldi r31,hi8(rgblight_config)
 1942               	.LBB43:
 1943               	.LBB42:
 1944               		.loc 2 96 5 view .LVU448
 1945 0004 6281      		ldd r22,Z+2
 1946 0006 21E1      		ldi r18,lo8(17)
 1947               	/* #APP */
 1948               	 ;  96 "./lib/lib8tion/math8.h" 1
 1949 0008 621B      		sub r22, r18    
 1950 000a 00F4      		brcc L_1471     
 1951 000c 60E0      		ldi r22, 0x00  
 1952               		L_1471: 
 1953               	 ;  0 "" 2
 1954               	.LVL120:
  97:./lib/lib8tion/math8.h ****          /* First, subtract j from i, conditioning the C flag */
  98:./lib/lib8tion/math8.h ****          "sub %0, %1    \n\t"
  99:./lib/lib8tion/math8.h **** 
 100:./lib/lib8tion/math8.h ****          /* Now test the C flag.
 101:./lib/lib8tion/math8.h ****           If C is clear, we branch around a load of 0x00 into i.
 102:./lib/lib8tion/math8.h ****           If C is set, we go ahead and load 0x00 into i.
 103:./lib/lib8tion/math8.h ****           */
 104:./lib/lib8tion/math8.h ****          "brcc L_%=     \n\t"
 105:./lib/lib8tion/math8.h ****          "ldi %0, 0x00  \n\t"
 106:./lib/lib8tion/math8.h ****          "L_%=: "
 107:./lib/lib8tion/math8.h ****          : "+a" (i)
 108:./lib/lib8tion/math8.h ****          : "a"  (j) );
 109:./lib/lib8tion/math8.h **** 
 110:./lib/lib8tion/math8.h ****     return i;
 1955               		.loc 2 110 5 is_stmt 1 view .LVU449
 1956               		.loc 2 110 5 is_stmt 0 view .LVU450
 1957               	/* #NOAPP */
 1958               	.LBE42:
 1959               	.LBE43:
 395:quantum/rgblight.c **** }
 1960               		.loc 1 395 5 is_stmt 1 view .LVU451
 1961 000e 282F      		mov r18,r24
 1962 0010 4381      		ldd r20,Z+3
 1963 0012 8181      		ldd r24,Z+1
 1964               	.LVL121:
 395:quantum/rgblight.c **** }
 1965               		.loc 1 395 5 is_stmt 0 view .LVU452
 1966 0014 0C94 0000 		jmp rgblight_sethsv_eeprom_helper
 1967               	.LVL122:
 395:quantum/rgblight.c **** }
 1968               		.loc 1 395 5 view .LVU453
 1969               		.cfi_endproc
 1970               	.LFE127:
 1972               		.section	.text.rgblight_decrease_sat_noeeprom,"ax",@progbits
 1973               	.global	rgblight_decrease_sat_noeeprom
 1975               	rgblight_decrease_sat_noeeprom:
 1976               	.LFB128:
 397:quantum/rgblight.c **** void rgblight_decrease_sat(void) { rgblight_decrease_sat_helper(true); }
 1977               		.loc 1 397 43 is_stmt 1 view -0
 1978               		.cfi_startproc
 1979               	/* prologue: function */
 1980               	/* frame size = 0 */
 1981               	/* stack size = 0 */
 1982               	.L__stack_usage = 0
 397:quantum/rgblight.c **** void rgblight_decrease_sat(void) { rgblight_decrease_sat_helper(true); }
 1983               		.loc 1 397 45 view .LVU455
 1984 0000 80E0      		ldi r24,0
 1985 0002 0C94 0000 		jmp rgblight_decrease_sat_helper
 1986               	.LVL123:
 1987               		.cfi_endproc
 1988               	.LFE128:
 1990               		.section	.text.rgblight_decrease_sat,"ax",@progbits
 1991               	.global	rgblight_decrease_sat
 1993               	rgblight_decrease_sat:
 1994               	.LFB129:
 398:quantum/rgblight.c **** void rgblight_increase_val_helper(bool write_to_eeprom) {
 1995               		.loc 1 398 34 view -0
 1996               		.cfi_startproc
 1997               	/* prologue: function */
 1998               	/* frame size = 0 */
 1999               	/* stack size = 0 */
 2000               	.L__stack_usage = 0
 398:quantum/rgblight.c **** void rgblight_increase_val_helper(bool write_to_eeprom) {
 2001               		.loc 1 398 36 view .LVU457
 2002 0000 81E0      		ldi r24,lo8(1)
 2003 0002 0C94 0000 		jmp rgblight_decrease_sat_helper
 2004               	.LVL124:
 2005               		.cfi_endproc
 2006               	.LFE129:
 2008               		.section	.text.rgblight_increase_val_helper,"ax",@progbits
 2009               	.global	rgblight_increase_val_helper
 2011               	rgblight_increase_val_helper:
 2012               	.LVL125:
 2013               	.LFB130:
 399:quantum/rgblight.c ****     uint8_t val = qadd8(rgblight_config.val, RGBLIGHT_VAL_STEP);
 2014               		.loc 1 399 57 view -0
 2015               		.cfi_startproc
 2016               	/* prologue: function */
 2017               	/* frame size = 0 */
 2018               	/* stack size = 0 */
 2019               	.L__stack_usage = 0
 400:quantum/rgblight.c ****     rgblight_sethsv_eeprom_helper(rgblight_config.hue, rgblight_config.sat, val, write_to_eeprom);
 2020               		.loc 1 400 5 view .LVU459
 2021               	.LBB44:
 2022               	.LBI44:
  23:./lib/lib8tion/math8.h **** {
 2023               		.loc 2 23 34 view .LVU460
 2024               	.LBB45:
  30:./lib/lib8tion/math8.h ****          /* First, add j to i, conditioning the C flag */
 2025               		.loc 2 30 5 view .LVU461
 2026               	.LBE45:
 2027               	.LBE44:
 400:quantum/rgblight.c ****     rgblight_sethsv_eeprom_helper(rgblight_config.hue, rgblight_config.sat, val, write_to_eeprom);
 2028               		.loc 1 400 19 is_stmt 0 view .LVU462
 2029 0000 E0E0      		ldi r30,lo8(rgblight_config)
 2030 0002 F0E0      		ldi r31,hi8(rgblight_config)
 2031               	.LBB47:
 2032               	.LBB46:
  30:./lib/lib8tion/math8.h ****          /* First, add j to i, conditioning the C flag */
 2033               		.loc 2 30 5 view .LVU463
 2034 0004 4381      		ldd r20,Z+3
 2035 0006 21E1      		ldi r18,lo8(17)
 2036               	/* #APP */
 2037               	 ;  30 "./lib/lib8tion/math8.h" 1
 2038 0008 420F      		add r20, r18    
 2039 000a 00F4      		brcc L_1527     
 2040 000c 4FEF      		ldi r20, 0xFF  
 2041               		L_1527: 
 2042               	 ;  0 "" 2
 2043               	.LVL126:
  43:./lib/lib8tion/math8.h **** #elif QADD8_ARM_DSP_ASM == 1
 2044               		.loc 2 43 5 is_stmt 1 view .LVU464
  43:./lib/lib8tion/math8.h **** #elif QADD8_ARM_DSP_ASM == 1
 2045               		.loc 2 43 5 is_stmt 0 view .LVU465
 2046               	/* #NOAPP */
 2047               	.LBE46:
 2048               	.LBE47:
 401:quantum/rgblight.c **** }
 2049               		.loc 1 401 5 is_stmt 1 view .LVU466
 2050 000e 282F      		mov r18,r24
 2051 0010 6281      		ldd r22,Z+2
 2052 0012 8181      		ldd r24,Z+1
 2053               	.LVL127:
 401:quantum/rgblight.c **** }
 2054               		.loc 1 401 5 is_stmt 0 view .LVU467
 2055 0014 0C94 0000 		jmp rgblight_sethsv_eeprom_helper
 2056               	.LVL128:
 401:quantum/rgblight.c **** }
 2057               		.loc 1 401 5 view .LVU468
 2058               		.cfi_endproc
 2059               	.LFE130:
 2061               		.section	.text.rgblight_increase_val_noeeprom,"ax",@progbits
 2062               	.global	rgblight_increase_val_noeeprom
 2064               	rgblight_increase_val_noeeprom:
 2065               	.LFB131:
 403:quantum/rgblight.c **** void rgblight_increase_val(void) { rgblight_increase_val_helper(true); }
 2066               		.loc 1 403 43 is_stmt 1 view -0
 2067               		.cfi_startproc
 2068               	/* prologue: function */
 2069               	/* frame size = 0 */
 2070               	/* stack size = 0 */
 2071               	.L__stack_usage = 0
 403:quantum/rgblight.c **** void rgblight_increase_val(void) { rgblight_increase_val_helper(true); }
 2072               		.loc 1 403 45 view .LVU470
 2073 0000 80E0      		ldi r24,0
 2074 0002 0C94 0000 		jmp rgblight_increase_val_helper
 2075               	.LVL129:
 2076               		.cfi_endproc
 2077               	.LFE131:
 2079               		.section	.text.rgblight_increase_val,"ax",@progbits
 2080               	.global	rgblight_increase_val
 2082               	rgblight_increase_val:
 2083               	.LFB132:
 404:quantum/rgblight.c **** void rgblight_decrease_val_helper(bool write_to_eeprom) {
 2084               		.loc 1 404 34 view -0
 2085               		.cfi_startproc
 2086               	/* prologue: function */
 2087               	/* frame size = 0 */
 2088               	/* stack size = 0 */
 2089               	.L__stack_usage = 0
 404:quantum/rgblight.c **** void rgblight_decrease_val_helper(bool write_to_eeprom) {
 2090               		.loc 1 404 36 view .LVU472
 2091 0000 81E0      		ldi r24,lo8(1)
 2092 0002 0C94 0000 		jmp rgblight_increase_val_helper
 2093               	.LVL130:
 2094               		.cfi_endproc
 2095               	.LFE132:
 2097               		.section	.text.rgblight_decrease_val_helper,"ax",@progbits
 2098               	.global	rgblight_decrease_val_helper
 2100               	rgblight_decrease_val_helper:
 2101               	.LVL131:
 2102               	.LFB133:
 405:quantum/rgblight.c ****     uint8_t val = qsub8(rgblight_config.val, RGBLIGHT_VAL_STEP);
 2103               		.loc 1 405 57 view -0
 2104               		.cfi_startproc
 2105               	/* prologue: function */
 2106               	/* frame size = 0 */
 2107               	/* stack size = 0 */
 2108               	.L__stack_usage = 0
 406:quantum/rgblight.c ****     rgblight_sethsv_eeprom_helper(rgblight_config.hue, rgblight_config.sat, val, write_to_eeprom);
 2109               		.loc 1 406 5 view .LVU474
 2110               	.LBB48:
 2111               	.LBI48:
  88:./lib/lib8tion/math8.h **** {
 2112               		.loc 2 88 34 view .LVU475
 2113               	.LBB49:
  96:./lib/lib8tion/math8.h ****          /* First, subtract j from i, conditioning the C flag */
 2114               		.loc 2 96 5 view .LVU476
 2115               	.LBE49:
 2116               	.LBE48:
 406:quantum/rgblight.c ****     rgblight_sethsv_eeprom_helper(rgblight_config.hue, rgblight_config.sat, val, write_to_eeprom);
 2117               		.loc 1 406 19 is_stmt 0 view .LVU477
 2118 0000 E0E0      		ldi r30,lo8(rgblight_config)
 2119 0002 F0E0      		ldi r31,hi8(rgblight_config)
 2120               	.LBB51:
 2121               	.LBB50:
  96:./lib/lib8tion/math8.h ****          /* First, subtract j from i, conditioning the C flag */
 2122               		.loc 2 96 5 view .LVU478
 2123 0004 4381      		ldd r20,Z+3
 2124 0006 21E1      		ldi r18,lo8(17)
 2125               	/* #APP */
 2126               	 ;  96 "./lib/lib8tion/math8.h" 1
 2127 0008 421B      		sub r20, r18    
 2128 000a 00F4      		brcc L_1583     
 2129 000c 40E0      		ldi r20, 0x00  
 2130               		L_1583: 
 2131               	 ;  0 "" 2
 2132               	.LVL132:
 2133               		.loc 2 110 5 is_stmt 1 view .LVU479
 2134               		.loc 2 110 5 is_stmt 0 view .LVU480
 2135               	/* #NOAPP */
 2136               	.LBE50:
 2137               	.LBE51:
 407:quantum/rgblight.c **** }
 2138               		.loc 1 407 5 is_stmt 1 view .LVU481
 2139 000e 282F      		mov r18,r24
 2140 0010 6281      		ldd r22,Z+2
 2141 0012 8181      		ldd r24,Z+1
 2142               	.LVL133:
 407:quantum/rgblight.c **** }
 2143               		.loc 1 407 5 is_stmt 0 view .LVU482
 2144 0014 0C94 0000 		jmp rgblight_sethsv_eeprom_helper
 2145               	.LVL134:
 407:quantum/rgblight.c **** }
 2146               		.loc 1 407 5 view .LVU483
 2147               		.cfi_endproc
 2148               	.LFE133:
 2150               		.section	.text.rgblight_decrease_val_noeeprom,"ax",@progbits
 2151               	.global	rgblight_decrease_val_noeeprom
 2153               	rgblight_decrease_val_noeeprom:
 2154               	.LFB134:
 409:quantum/rgblight.c **** void rgblight_decrease_val(void) { rgblight_decrease_val_helper(true); }
 2155               		.loc 1 409 43 is_stmt 1 view -0
 2156               		.cfi_startproc
 2157               	/* prologue: function */
 2158               	/* frame size = 0 */
 2159               	/* stack size = 0 */
 2160               	.L__stack_usage = 0
 409:quantum/rgblight.c **** void rgblight_decrease_val(void) { rgblight_decrease_val_helper(true); }
 2161               		.loc 1 409 45 view .LVU485
 2162 0000 80E0      		ldi r24,0
 2163 0002 0C94 0000 		jmp rgblight_decrease_val_helper
 2164               	.LVL135:
 2165               		.cfi_endproc
 2166               	.LFE134:
 2168               		.section	.text.rgblight_decrease_val,"ax",@progbits
 2169               	.global	rgblight_decrease_val
 2171               	rgblight_decrease_val:
 2172               	.LFB135:
 410:quantum/rgblight.c **** 
 2173               		.loc 1 410 34 view -0
 2174               		.cfi_startproc
 2175               	/* prologue: function */
 2176               	/* frame size = 0 */
 2177               	/* stack size = 0 */
 2178               	.L__stack_usage = 0
 410:quantum/rgblight.c **** 
 2179               		.loc 1 410 36 view .LVU487
 2180 0000 81E0      		ldi r24,lo8(1)
 2181 0002 0C94 0000 		jmp rgblight_decrease_val_helper
 2182               	.LVL136:
 2183               		.cfi_endproc
 2184               	.LFE135:
 2186               		.section	.text.rgblight_sethsv,"ax",@progbits
 2187               	.global	rgblight_sethsv
 2189               	rgblight_sethsv:
 2190               	.LVL137:
 2191               	.LFB144:
 512:quantum/rgblight.c **** 
 2192               		.loc 1 512 61 view -0
 2193               		.cfi_startproc
 2194               	/* prologue: function */
 2195               	/* frame size = 0 */
 2196               	/* stack size = 0 */
 2197               	.L__stack_usage = 0
 512:quantum/rgblight.c **** 
 2198               		.loc 1 512 63 view .LVU489
 2199 0000 21E0      		ldi r18,lo8(1)
 2200 0002 0C94 0000 		jmp rgblight_sethsv_eeprom_helper
 2201               	.LVL138:
 512:quantum/rgblight.c **** 
 2202               		.loc 1 512 63 is_stmt 0 view .LVU490
 2203               		.cfi_endproc
 2204               	.LFE144:
 2206               		.section	.text.rgblight_sethsv_noeeprom,"ax",@progbits
 2207               	.global	rgblight_sethsv_noeeprom
 2209               	rgblight_sethsv_noeeprom:
 2210               	.LVL139:
 2211               	.LFB145:
 514:quantum/rgblight.c **** 
 2212               		.loc 1 514 70 is_stmt 1 view -0
 2213               		.cfi_startproc
 2214               	/* prologue: function */
 2215               	/* frame size = 0 */
 2216               	/* stack size = 0 */
 2217               	.L__stack_usage = 0
 514:quantum/rgblight.c **** 
 2218               		.loc 1 514 72 view .LVU492
 2219 0000 20E0      		ldi r18,0
 2220 0002 0C94 0000 		jmp rgblight_sethsv_eeprom_helper
 2221               	.LVL140:
 514:quantum/rgblight.c **** 
 2222               		.loc 1 514 72 is_stmt 0 view .LVU493
 2223               		.cfi_endproc
 2224               	.LFE145:
 2226               		.section	.text.rgblight_setrgb_at,"ax",@progbits
 2227               	.global	rgblight_setrgb_at
 2229               	rgblight_setrgb_at:
 2230               	.LVL141:
 2231               	.LFB155:
 556:quantum/rgblight.c ****     if (!rgblight_config.enable || index >= RGBLED_NUM) {
 2232               		.loc 1 556 73 is_stmt 1 view -0
 2233               		.cfi_startproc
 2234               	/* prologue: function */
 2235               	/* frame size = 0 */
 2236               	/* stack size = 0 */
 2237               	.L__stack_usage = 0
 557:quantum/rgblight.c ****         return;
 2238               		.loc 1 557 5 view .LVU495
 557:quantum/rgblight.c ****         return;
 2239               		.loc 1 557 25 is_stmt 0 view .LVU496
 2240 0000 9091 0000 		lds r25,rgblight_config
 557:quantum/rgblight.c ****         return;
 2241               		.loc 1 557 8 view .LVU497
 2242 0004 90FF      		sbrs r25,0
 2243 0006 00C0      		rjmp .L112
 557:quantum/rgblight.c ****         return;
 2244               		.loc 1 557 33 discriminator 1 view .LVU498
 2245 0008 2B31      		cpi r18,lo8(27)
 2246 000a 00F4      		brsh .L112
 561:quantum/rgblight.c ****     led[index].g = g;
 2247               		.loc 1 561 5 is_stmt 1 view .LVU499
 561:quantum/rgblight.c ****     led[index].g = g;
 2248               		.loc 1 561 15 is_stmt 0 view .LVU500
 2249 000c 30E0      		ldi r19,0
 561:quantum/rgblight.c ****     led[index].g = g;
 2250               		.loc 1 561 18 view .LVU501
 2251 000e F901      		movw r30,r18
 2252 0010 EE0F      		lsl r30
 2253 0012 FF1F      		rol r31
 2254 0014 E20F      		add r30,r18
 2255 0016 F31F      		adc r31,r19
 2256 0018 E050      		subi r30,lo8(-(led))
 2257 001a F040      		sbci r31,hi8(-(led))
 2258 001c 8183      		std Z+1,r24
 562:quantum/rgblight.c ****     led[index].b = b;
 2259               		.loc 1 562 5 is_stmt 1 view .LVU502
 562:quantum/rgblight.c ****     led[index].b = b;
 2260               		.loc 1 562 18 is_stmt 0 view .LVU503
 2261 001e 6083      		st Z,r22
 563:quantum/rgblight.c **** #ifdef RGBW
 2262               		.loc 1 563 5 is_stmt 1 view .LVU504
 563:quantum/rgblight.c **** #ifdef RGBW
 2263               		.loc 1 563 18 is_stmt 0 view .LVU505
 2264 0020 4283      		std Z+2,r20
 567:quantum/rgblight.c **** }
 2265               		.loc 1 567 5 is_stmt 1 view .LVU506
 2266 0022 0C94 0000 		jmp rgblight_set
 2267               	.LVL142:
 2268               	.L112:
 2269               	/* epilogue start */
 568:quantum/rgblight.c **** 
 2270               		.loc 1 568 1 is_stmt 0 view .LVU507
 2271 0026 0895      		ret
 2272               		.cfi_endproc
 2273               	.LFE155:
 2275               		.section	.text.rgblight_sethsv_at,"ax",@progbits
 2276               	.global	rgblight_sethsv_at
 2278               	rgblight_sethsv_at:
 2279               	.LVL143:
 2280               	.LFB156:
 570:quantum/rgblight.c ****     if (!rgblight_config.enable) {
 2281               		.loc 1 570 79 is_stmt 1 view -0
 2282               		.cfi_startproc
 570:quantum/rgblight.c ****     if (!rgblight_config.enable) {
 2283               		.loc 1 570 79 is_stmt 0 view .LVU509
 2284 0000 1F93      		push r17
 2285               	.LCFI32:
 2286               		.cfi_def_cfa_offset 3
 2287               		.cfi_offset 17, -2
 2288 0002 CF93      		push r28
 2289               	.LCFI33:
 2290               		.cfi_def_cfa_offset 4
 2291               		.cfi_offset 28, -3
 2292 0004 DF93      		push r29
 2293               	.LCFI34:
 2294               		.cfi_def_cfa_offset 5
 2295               		.cfi_offset 29, -4
 2296 0006 00D0      		rcall .
 2297 0008 0F92      		push __tmp_reg__
 2298               	.LCFI35:
 2299               		.cfi_def_cfa_offset 8
 2300 000a CDB7      		in r28,__SP_L__
 2301 000c DEB7      		in r29,__SP_H__
 2302               	.LCFI36:
 2303               		.cfi_def_cfa_register 28
 2304               	/* prologue: function */
 2305               	/* frame size = 3 */
 2306               	/* stack size = 6 */
 2307               	.L__stack_usage = 6
 2308 000e 122F      		mov r17,r18
 571:quantum/rgblight.c ****         return;
 2309               		.loc 1 571 5 is_stmt 1 view .LVU510
 571:quantum/rgblight.c ****         return;
 2310               		.loc 1 571 25 is_stmt 0 view .LVU511
 2311 0010 9091 0000 		lds r25,rgblight_config
 571:quantum/rgblight.c ****         return;
 2312               		.loc 1 571 8 view .LVU512
 2313 0014 90FF      		sbrs r25,0
 2314 0016 00C0      		rjmp .L117
 575:quantum/rgblight.c ****     sethsv(hue, sat, val, &tmp_led);
 2315               		.loc 1 575 5 is_stmt 1 view .LVU513
 576:quantum/rgblight.c ****     rgblight_setrgb_at(tmp_led.r, tmp_led.g, tmp_led.b, index);
 2316               		.loc 1 576 5 view .LVU514
 2317 0018 9E01      		movw r18,r28
 2318               	.LVL144:
 576:quantum/rgblight.c ****     rgblight_setrgb_at(tmp_led.r, tmp_led.g, tmp_led.b, index);
 2319               		.loc 1 576 5 is_stmt 0 view .LVU515
 2320 001a 2F5F      		subi r18,-1
 2321 001c 3F4F      		sbci r19,-1
 2322 001e 0E94 0000 		call sethsv
 2323               	.LVL145:
 577:quantum/rgblight.c **** }
 2324               		.loc 1 577 5 is_stmt 1 view .LVU516
 2325 0022 212F      		mov r18,r17
 2326 0024 4B81      		ldd r20,Y+3
 2327 0026 6981      		ldd r22,Y+1
 2328 0028 8A81      		ldd r24,Y+2
 2329 002a 0E94 0000 		call rgblight_setrgb_at
 2330               	.LVL146:
 2331               	.L117:
 2332               	/* epilogue start */
 578:quantum/rgblight.c **** 
 2333               		.loc 1 578 1 is_stmt 0 view .LVU517
 2334 002e 0F90      		pop __tmp_reg__
 2335 0030 0F90      		pop __tmp_reg__
 2336 0032 0F90      		pop __tmp_reg__
 2337 0034 DF91      		pop r29
 2338 0036 CF91      		pop r28
 2339 0038 1F91      		pop r17
 2340               	.LVL147:
 578:quantum/rgblight.c **** 
 2341               		.loc 1 578 1 view .LVU518
 2342 003a 0895      		ret
 2343               		.cfi_endproc
 2344               	.LFE156:
 2346               		.section	.text.rgblight_setrgb_range,"ax",@progbits
 2347               	.global	rgblight_setrgb_range
 2349               	rgblight_setrgb_range:
 2350               	.LVL148:
 2351               	.LFB158:
 592:quantum/rgblight.c ****     if (!rgblight_config.enable || start < 0 || start >= end || end > RGBLED_NUM) {
 2352               		.loc 1 592 89 is_stmt 1 view -0
 2353               		.cfi_startproc
 592:quantum/rgblight.c ****     if (!rgblight_config.enable || start < 0 || start >= end || end > RGBLED_NUM) {
 2354               		.loc 1 592 89 is_stmt 0 view .LVU520
 2355 0000 0F93      		push r16
 2356               	.LCFI37:
 2357               		.cfi_def_cfa_offset 3
 2358               		.cfi_offset 16, -2
 2359               	/* prologue: function */
 2360               	/* frame size = 0 */
 2361               	/* stack size = 1 */
 2362               	.L__stack_usage = 1
 593:quantum/rgblight.c ****         return;
 2363               		.loc 1 593 5 is_stmt 1 view .LVU521
 593:quantum/rgblight.c ****         return;
 2364               		.loc 1 593 25 is_stmt 0 view .LVU522
 2365 0002 9091 0000 		lds r25,rgblight_config
 593:quantum/rgblight.c ****         return;
 2366               		.loc 1 593 8 view .LVU523
 2367 0006 90FF      		sbrs r25,0
 2368 0008 00C0      		rjmp .L120
 593:quantum/rgblight.c ****         return;
 2369               		.loc 1 593 46 discriminator 1 view .LVU524
 2370 000a 2017      		cp r18,r16
 2371 000c 00F4      		brsh .L120
 593:quantum/rgblight.c ****         return;
 2372               		.loc 1 593 62 discriminator 2 view .LVU525
 2373 000e 0C31      		cpi r16,lo8(28)
 2374 0010 00F4      		brsh .L120
 2375 0012 93E0      		ldi r25,lo8(3)
 2376 0014 299F      		mul r18,r25
 2377 0016 F001      		movw r30,r0
 2378 0018 1124      		clr __zero_reg__
 2379 001a E050      		subi r30,lo8(-(led))
 2380 001c F040      		sbci r31,hi8(-(led))
 2381               	.LVL149:
 2382               	.L122:
 2383               	.LBB52:
 598:quantum/rgblight.c ****         led[i].g = g;
 2384               		.loc 1 598 9 is_stmt 1 discriminator 3 view .LVU526
 598:quantum/rgblight.c ****         led[i].g = g;
 2385               		.loc 1 598 18 is_stmt 0 discriminator 3 view .LVU527
 2386 001e 8183      		std Z+1,r24
 599:quantum/rgblight.c ****         led[i].b = b;
 2387               		.loc 1 599 9 is_stmt 1 discriminator 3 view .LVU528
 599:quantum/rgblight.c ****         led[i].b = b;
 2388               		.loc 1 599 18 is_stmt 0 discriminator 3 view .LVU529
 2389 0020 6083      		st Z,r22
 600:quantum/rgblight.c **** #ifdef RGBW
 2390               		.loc 1 600 9 is_stmt 1 discriminator 3 view .LVU530
 600:quantum/rgblight.c **** #ifdef RGBW
 2391               		.loc 1 600 18 is_stmt 0 discriminator 3 view .LVU531
 2392 0022 4283      		std Z+2,r20
 597:quantum/rgblight.c ****         led[i].r = r;
 2393               		.loc 1 597 38 is_stmt 1 discriminator 3 view .LVU532
 597:quantum/rgblight.c ****         led[i].r = r;
 2394               		.loc 1 597 39 is_stmt 0 discriminator 3 view .LVU533
 2395 0024 2F5F      		subi r18,lo8(-(1))
 2396               	.LVL150:
 597:quantum/rgblight.c ****         led[i].r = r;
 2397               		.loc 1 597 29 is_stmt 1 discriminator 3 view .LVU534
 2398 0026 3396      		adiw r30,3
 597:quantum/rgblight.c ****         led[i].r = r;
 2399               		.loc 1 597 5 is_stmt 0 discriminator 3 view .LVU535
 2400 0028 0213      		cpse r16,r18
 2401 002a 00C0      		rjmp .L122
 597:quantum/rgblight.c ****         led[i].r = r;
 2402               		.loc 1 597 5 discriminator 3 view .LVU536
 2403               	.LBE52:
 605:quantum/rgblight.c ****     wait_ms(1);
 2404               		.loc 1 605 5 is_stmt 1 view .LVU537
 2405 002c 0E94 0000 		call rgblight_set
 2406               	.LVL151:
 606:quantum/rgblight.c **** }
 2407               		.loc 1 606 5 view .LVU538
 2408               	.LBB53:
 2409               	.LBI53:
 2410               		.file 3 "/usr/local/Cellar/avr-gcc@8/8.4.0_2/avr/include/util/delay.h"
   1:/usr/local/Cellar/avr-gcc@8/8.4.0_2/avr/include/util/delay.h **** /* Copyright (c) 2002, Marek Michalkiewicz
   2:/usr/local/Cellar/avr-gcc@8/8.4.0_2/avr/include/util/delay.h ****    Copyright (c) 2004,2005,2007 Joerg Wunsch
   3:/usr/local/Cellar/avr-gcc@8/8.4.0_2/avr/include/util/delay.h ****    Copyright (c) 2007  Florin-Viorel Petrov
   4:/usr/local/Cellar/avr-gcc@8/8.4.0_2/avr/include/util/delay.h ****    All rights reserved.
   5:/usr/local/Cellar/avr-gcc@8/8.4.0_2/avr/include/util/delay.h **** 
   6:/usr/local/Cellar/avr-gcc@8/8.4.0_2/avr/include/util/delay.h ****    Redistribution and use in source and binary forms, with or without
   7:/usr/local/Cellar/avr-gcc@8/8.4.0_2/avr/include/util/delay.h ****    modification, are permitted provided that the following conditions are met:
   8:/usr/local/Cellar/avr-gcc@8/8.4.0_2/avr/include/util/delay.h **** 
   9:/usr/local/Cellar/avr-gcc@8/8.4.0_2/avr/include/util/delay.h ****    * Redistributions of source code must retain the above copyright
  10:/usr/local/Cellar/avr-gcc@8/8.4.0_2/avr/include/util/delay.h ****      notice, this list of conditions and the following disclaimer.
  11:/usr/local/Cellar/avr-gcc@8/8.4.0_2/avr/include/util/delay.h **** 
  12:/usr/local/Cellar/avr-gcc@8/8.4.0_2/avr/include/util/delay.h ****    * Redistributions in binary form must reproduce the above copyright
  13:/usr/local/Cellar/avr-gcc@8/8.4.0_2/avr/include/util/delay.h ****      notice, this list of conditions and the following disclaimer in
  14:/usr/local/Cellar/avr-gcc@8/8.4.0_2/avr/include/util/delay.h ****      the documentation and/or other materials provided with the
  15:/usr/local/Cellar/avr-gcc@8/8.4.0_2/avr/include/util/delay.h ****      distribution.
  16:/usr/local/Cellar/avr-gcc@8/8.4.0_2/avr/include/util/delay.h **** 
  17:/usr/local/Cellar/avr-gcc@8/8.4.0_2/avr/include/util/delay.h ****    * Neither the name of the copyright holders nor the names of
  18:/usr/local/Cellar/avr-gcc@8/8.4.0_2/avr/include/util/delay.h ****      contributors may be used to endorse or promote products derived
  19:/usr/local/Cellar/avr-gcc@8/8.4.0_2/avr/include/util/delay.h ****      from this software without specific prior written permission.
  20:/usr/local/Cellar/avr-gcc@8/8.4.0_2/avr/include/util/delay.h **** 
  21:/usr/local/Cellar/avr-gcc@8/8.4.0_2/avr/include/util/delay.h ****   THIS SOFTWARE IS PROVIDED BY THE COPYRIGHT HOLDERS AND CONTRIBUTORS "AS IS"
  22:/usr/local/Cellar/avr-gcc@8/8.4.0_2/avr/include/util/delay.h ****   AND ANY EXPRESS OR IMPLIED WARRANTIES, INCLUDING, BUT NOT LIMITED TO, THE
  23:/usr/local/Cellar/avr-gcc@8/8.4.0_2/avr/include/util/delay.h ****   IMPLIED WARRANTIES OF MERCHANTABILITY AND FITNESS FOR A PARTICULAR PURPOSE
  24:/usr/local/Cellar/avr-gcc@8/8.4.0_2/avr/include/util/delay.h ****   ARE DISCLAIMED. IN NO EVENT SHALL THE COPYRIGHT OWNER OR CONTRIBUTORS BE
  25:/usr/local/Cellar/avr-gcc@8/8.4.0_2/avr/include/util/delay.h ****   LIABLE FOR ANY DIRECT, INDIRECT, INCIDENTAL, SPECIAL, EXEMPLARY, OR
  26:/usr/local/Cellar/avr-gcc@8/8.4.0_2/avr/include/util/delay.h ****   CONSEQUENTIAL DAMAGES (INCLUDING, BUT NOT LIMITED TO, PROCUREMENT OF
  27:/usr/local/Cellar/avr-gcc@8/8.4.0_2/avr/include/util/delay.h ****   SUBSTITUTE GOODS OR SERVICES; LOSS OF USE, DATA, OR PROFITS; OR BUSINESS
  28:/usr/local/Cellar/avr-gcc@8/8.4.0_2/avr/include/util/delay.h ****   INTERRUPTION) HOWEVER CAUSED AND ON ANY THEORY OF LIABILITY, WHETHER IN
  29:/usr/local/Cellar/avr-gcc@8/8.4.0_2/avr/include/util/delay.h ****   CONTRACT, STRICT LIABILITY, OR TORT (INCLUDING NEGLIGENCE OR OTHERWISE)
  30:/usr/local/Cellar/avr-gcc@8/8.4.0_2/avr/include/util/delay.h ****   ARISING IN ANY WAY OUT OF THE USE OF THIS SOFTWARE, EVEN IF ADVISED OF THE
  31:/usr/local/Cellar/avr-gcc@8/8.4.0_2/avr/include/util/delay.h ****   POSSIBILITY OF SUCH DAMAGE. */
  32:/usr/local/Cellar/avr-gcc@8/8.4.0_2/avr/include/util/delay.h **** 
  33:/usr/local/Cellar/avr-gcc@8/8.4.0_2/avr/include/util/delay.h **** /* $Id: delay.h.in 2506 2016-02-08 10:05:45Z joerg_wunsch $ */
  34:/usr/local/Cellar/avr-gcc@8/8.4.0_2/avr/include/util/delay.h **** 
  35:/usr/local/Cellar/avr-gcc@8/8.4.0_2/avr/include/util/delay.h **** #ifndef _UTIL_DELAY_H_
  36:/usr/local/Cellar/avr-gcc@8/8.4.0_2/avr/include/util/delay.h **** #define _UTIL_DELAY_H_ 1
  37:/usr/local/Cellar/avr-gcc@8/8.4.0_2/avr/include/util/delay.h **** 
  38:/usr/local/Cellar/avr-gcc@8/8.4.0_2/avr/include/util/delay.h **** #ifndef __DOXYGEN__
  39:/usr/local/Cellar/avr-gcc@8/8.4.0_2/avr/include/util/delay.h **** #  ifndef __HAS_DELAY_CYCLES
  40:/usr/local/Cellar/avr-gcc@8/8.4.0_2/avr/include/util/delay.h **** #    define __HAS_DELAY_CYCLES 1
  41:/usr/local/Cellar/avr-gcc@8/8.4.0_2/avr/include/util/delay.h **** #  endif
  42:/usr/local/Cellar/avr-gcc@8/8.4.0_2/avr/include/util/delay.h **** #endif  /* __DOXYGEN__ */
  43:/usr/local/Cellar/avr-gcc@8/8.4.0_2/avr/include/util/delay.h **** 
  44:/usr/local/Cellar/avr-gcc@8/8.4.0_2/avr/include/util/delay.h **** #include <inttypes.h>
  45:/usr/local/Cellar/avr-gcc@8/8.4.0_2/avr/include/util/delay.h **** #include <util/delay_basic.h>
  46:/usr/local/Cellar/avr-gcc@8/8.4.0_2/avr/include/util/delay.h **** #include <math.h>
  47:/usr/local/Cellar/avr-gcc@8/8.4.0_2/avr/include/util/delay.h **** 
  48:/usr/local/Cellar/avr-gcc@8/8.4.0_2/avr/include/util/delay.h **** /** \file */
  49:/usr/local/Cellar/avr-gcc@8/8.4.0_2/avr/include/util/delay.h **** /** \defgroup util_delay <util/delay.h>: Convenience functions for busy-wait delay loops
  50:/usr/local/Cellar/avr-gcc@8/8.4.0_2/avr/include/util/delay.h ****     \code
  51:/usr/local/Cellar/avr-gcc@8/8.4.0_2/avr/include/util/delay.h ****     #define F_CPU 1000000UL  // 1 MHz
  52:/usr/local/Cellar/avr-gcc@8/8.4.0_2/avr/include/util/delay.h ****     //#define F_CPU 14.7456E6
  53:/usr/local/Cellar/avr-gcc@8/8.4.0_2/avr/include/util/delay.h ****     #include <util/delay.h>
  54:/usr/local/Cellar/avr-gcc@8/8.4.0_2/avr/include/util/delay.h ****     \endcode
  55:/usr/local/Cellar/avr-gcc@8/8.4.0_2/avr/include/util/delay.h **** 
  56:/usr/local/Cellar/avr-gcc@8/8.4.0_2/avr/include/util/delay.h ****     \note As an alternative method, it is possible to pass the
  57:/usr/local/Cellar/avr-gcc@8/8.4.0_2/avr/include/util/delay.h ****     F_CPU macro down to the compiler from the Makefile.
  58:/usr/local/Cellar/avr-gcc@8/8.4.0_2/avr/include/util/delay.h ****     Obviously, in that case, no \c \#define statement should be
  59:/usr/local/Cellar/avr-gcc@8/8.4.0_2/avr/include/util/delay.h ****     used.
  60:/usr/local/Cellar/avr-gcc@8/8.4.0_2/avr/include/util/delay.h **** 
  61:/usr/local/Cellar/avr-gcc@8/8.4.0_2/avr/include/util/delay.h ****     The functions in this header file are wrappers around the basic
  62:/usr/local/Cellar/avr-gcc@8/8.4.0_2/avr/include/util/delay.h ****     busy-wait functions from <util/delay_basic.h>.  They are meant as
  63:/usr/local/Cellar/avr-gcc@8/8.4.0_2/avr/include/util/delay.h ****     convenience functions where actual time values can be specified
  64:/usr/local/Cellar/avr-gcc@8/8.4.0_2/avr/include/util/delay.h ****     rather than a number of cycles to wait for.  The idea behind is
  65:/usr/local/Cellar/avr-gcc@8/8.4.0_2/avr/include/util/delay.h ****     that compile-time constant expressions will be eliminated by
  66:/usr/local/Cellar/avr-gcc@8/8.4.0_2/avr/include/util/delay.h ****     compiler optimization so floating-point expressions can be used
  67:/usr/local/Cellar/avr-gcc@8/8.4.0_2/avr/include/util/delay.h ****     to calculate the number of delay cycles needed based on the CPU
  68:/usr/local/Cellar/avr-gcc@8/8.4.0_2/avr/include/util/delay.h ****     frequency passed by the macro F_CPU.
  69:/usr/local/Cellar/avr-gcc@8/8.4.0_2/avr/include/util/delay.h **** 
  70:/usr/local/Cellar/avr-gcc@8/8.4.0_2/avr/include/util/delay.h ****     \note In order for these functions to work as intended, compiler
  71:/usr/local/Cellar/avr-gcc@8/8.4.0_2/avr/include/util/delay.h ****     optimizations <em>must</em> be enabled, and the delay time
  72:/usr/local/Cellar/avr-gcc@8/8.4.0_2/avr/include/util/delay.h ****     <em>must</em> be an expression that is a known constant at
  73:/usr/local/Cellar/avr-gcc@8/8.4.0_2/avr/include/util/delay.h ****     compile-time.  If these requirements are not met, the resulting
  74:/usr/local/Cellar/avr-gcc@8/8.4.0_2/avr/include/util/delay.h ****     delay will be much longer (and basically unpredictable), and
  75:/usr/local/Cellar/avr-gcc@8/8.4.0_2/avr/include/util/delay.h ****     applications that otherwise do not use floating-point calculations
  76:/usr/local/Cellar/avr-gcc@8/8.4.0_2/avr/include/util/delay.h ****     will experience severe code bloat by the floating-point library
  77:/usr/local/Cellar/avr-gcc@8/8.4.0_2/avr/include/util/delay.h ****     routines linked into the application.
  78:/usr/local/Cellar/avr-gcc@8/8.4.0_2/avr/include/util/delay.h **** 
  79:/usr/local/Cellar/avr-gcc@8/8.4.0_2/avr/include/util/delay.h ****     The functions available allow the specification of microsecond, and
  80:/usr/local/Cellar/avr-gcc@8/8.4.0_2/avr/include/util/delay.h ****     millisecond delays directly, using the application-supplied macro
  81:/usr/local/Cellar/avr-gcc@8/8.4.0_2/avr/include/util/delay.h ****     F_CPU as the CPU clock frequency (in Hertz).
  82:/usr/local/Cellar/avr-gcc@8/8.4.0_2/avr/include/util/delay.h **** 
  83:/usr/local/Cellar/avr-gcc@8/8.4.0_2/avr/include/util/delay.h **** */
  84:/usr/local/Cellar/avr-gcc@8/8.4.0_2/avr/include/util/delay.h **** 
  85:/usr/local/Cellar/avr-gcc@8/8.4.0_2/avr/include/util/delay.h **** #if !defined(__DOXYGEN__)
  86:/usr/local/Cellar/avr-gcc@8/8.4.0_2/avr/include/util/delay.h **** static __inline__ void _delay_us(double __us) __attribute__((__always_inline__));
  87:/usr/local/Cellar/avr-gcc@8/8.4.0_2/avr/include/util/delay.h **** static __inline__ void _delay_ms(double __ms) __attribute__((__always_inline__));
  88:/usr/local/Cellar/avr-gcc@8/8.4.0_2/avr/include/util/delay.h **** #endif
  89:/usr/local/Cellar/avr-gcc@8/8.4.0_2/avr/include/util/delay.h **** 
  90:/usr/local/Cellar/avr-gcc@8/8.4.0_2/avr/include/util/delay.h **** #ifndef F_CPU
  91:/usr/local/Cellar/avr-gcc@8/8.4.0_2/avr/include/util/delay.h **** /* prevent compiler error by supplying a default */
  92:/usr/local/Cellar/avr-gcc@8/8.4.0_2/avr/include/util/delay.h **** # warning "F_CPU not defined for <util/delay.h>"
  93:/usr/local/Cellar/avr-gcc@8/8.4.0_2/avr/include/util/delay.h **** /** \ingroup util_delay
  94:/usr/local/Cellar/avr-gcc@8/8.4.0_2/avr/include/util/delay.h ****     \def F_CPU
  95:/usr/local/Cellar/avr-gcc@8/8.4.0_2/avr/include/util/delay.h ****     \brief CPU frequency in Hz
  96:/usr/local/Cellar/avr-gcc@8/8.4.0_2/avr/include/util/delay.h **** 
  97:/usr/local/Cellar/avr-gcc@8/8.4.0_2/avr/include/util/delay.h ****     The macro F_CPU specifies the CPU frequency to be considered by
  98:/usr/local/Cellar/avr-gcc@8/8.4.0_2/avr/include/util/delay.h ****     the delay macros.  This macro is normally supplied by the
  99:/usr/local/Cellar/avr-gcc@8/8.4.0_2/avr/include/util/delay.h ****     environment (e.g. from within a project header, or the project's
 100:/usr/local/Cellar/avr-gcc@8/8.4.0_2/avr/include/util/delay.h ****     Makefile).  The value 1 MHz here is only provided as a "vanilla"
 101:/usr/local/Cellar/avr-gcc@8/8.4.0_2/avr/include/util/delay.h ****     fallback if no such user-provided definition could be found.
 102:/usr/local/Cellar/avr-gcc@8/8.4.0_2/avr/include/util/delay.h **** 
 103:/usr/local/Cellar/avr-gcc@8/8.4.0_2/avr/include/util/delay.h ****     In terms of the delay functions, the CPU frequency can be given as
 104:/usr/local/Cellar/avr-gcc@8/8.4.0_2/avr/include/util/delay.h ****     a floating-point constant (e.g. 3.6864E6 for 3.6864 MHz).
 105:/usr/local/Cellar/avr-gcc@8/8.4.0_2/avr/include/util/delay.h ****     However, the macros in <util/setbaud.h> require it to be an
 106:/usr/local/Cellar/avr-gcc@8/8.4.0_2/avr/include/util/delay.h ****     integer value.
 107:/usr/local/Cellar/avr-gcc@8/8.4.0_2/avr/include/util/delay.h ****  */
 108:/usr/local/Cellar/avr-gcc@8/8.4.0_2/avr/include/util/delay.h **** # define F_CPU 1000000UL
 109:/usr/local/Cellar/avr-gcc@8/8.4.0_2/avr/include/util/delay.h **** #endif
 110:/usr/local/Cellar/avr-gcc@8/8.4.0_2/avr/include/util/delay.h **** 
 111:/usr/local/Cellar/avr-gcc@8/8.4.0_2/avr/include/util/delay.h **** #ifndef __OPTIMIZE__
 112:/usr/local/Cellar/avr-gcc@8/8.4.0_2/avr/include/util/delay.h **** # warning "Compiler optimizations disabled; functions from <util/delay.h> won't work as designed"
 113:/usr/local/Cellar/avr-gcc@8/8.4.0_2/avr/include/util/delay.h **** #endif
 114:/usr/local/Cellar/avr-gcc@8/8.4.0_2/avr/include/util/delay.h **** 
 115:/usr/local/Cellar/avr-gcc@8/8.4.0_2/avr/include/util/delay.h **** #if __HAS_DELAY_CYCLES && defined(__OPTIMIZE__) && \
 116:/usr/local/Cellar/avr-gcc@8/8.4.0_2/avr/include/util/delay.h ****   !defined(__DELAY_BACKWARD_COMPATIBLE__) &&	   \
 117:/usr/local/Cellar/avr-gcc@8/8.4.0_2/avr/include/util/delay.h ****   __STDC_HOSTED__
 118:/usr/local/Cellar/avr-gcc@8/8.4.0_2/avr/include/util/delay.h **** #  include <math.h>
 119:/usr/local/Cellar/avr-gcc@8/8.4.0_2/avr/include/util/delay.h **** #endif
 120:/usr/local/Cellar/avr-gcc@8/8.4.0_2/avr/include/util/delay.h **** 
 121:/usr/local/Cellar/avr-gcc@8/8.4.0_2/avr/include/util/delay.h **** /**
 122:/usr/local/Cellar/avr-gcc@8/8.4.0_2/avr/include/util/delay.h ****    \ingroup util_delay
 123:/usr/local/Cellar/avr-gcc@8/8.4.0_2/avr/include/util/delay.h **** 
 124:/usr/local/Cellar/avr-gcc@8/8.4.0_2/avr/include/util/delay.h ****    Perform a delay of \c __ms milliseconds, using _delay_loop_2().
 125:/usr/local/Cellar/avr-gcc@8/8.4.0_2/avr/include/util/delay.h **** 
 126:/usr/local/Cellar/avr-gcc@8/8.4.0_2/avr/include/util/delay.h ****    The macro F_CPU is supposed to be defined to a
 127:/usr/local/Cellar/avr-gcc@8/8.4.0_2/avr/include/util/delay.h ****    constant defining the CPU clock frequency (in Hertz).
 128:/usr/local/Cellar/avr-gcc@8/8.4.0_2/avr/include/util/delay.h **** 
 129:/usr/local/Cellar/avr-gcc@8/8.4.0_2/avr/include/util/delay.h ****    The maximal possible delay is 262.14 ms / F_CPU in MHz.
 130:/usr/local/Cellar/avr-gcc@8/8.4.0_2/avr/include/util/delay.h **** 
 131:/usr/local/Cellar/avr-gcc@8/8.4.0_2/avr/include/util/delay.h ****    When the user request delay which exceed the maximum possible one,
 132:/usr/local/Cellar/avr-gcc@8/8.4.0_2/avr/include/util/delay.h ****    _delay_ms() provides a decreased resolution functionality. In this
 133:/usr/local/Cellar/avr-gcc@8/8.4.0_2/avr/include/util/delay.h ****    mode _delay_ms() will work with a resolution of 1/10 ms, providing
 134:/usr/local/Cellar/avr-gcc@8/8.4.0_2/avr/include/util/delay.h ****    delays up to 6.5535 seconds (independent from CPU frequency).  The
 135:/usr/local/Cellar/avr-gcc@8/8.4.0_2/avr/include/util/delay.h ****    user will not be informed about decreased resolution.
 136:/usr/local/Cellar/avr-gcc@8/8.4.0_2/avr/include/util/delay.h **** 
 137:/usr/local/Cellar/avr-gcc@8/8.4.0_2/avr/include/util/delay.h ****    If the avr-gcc toolchain has __builtin_avr_delay_cycles()
 138:/usr/local/Cellar/avr-gcc@8/8.4.0_2/avr/include/util/delay.h ****    support, maximal possible delay is 4294967.295 ms/ F_CPU in MHz. For
 139:/usr/local/Cellar/avr-gcc@8/8.4.0_2/avr/include/util/delay.h ****    values greater than the maximal possible delay, overflows results in
 140:/usr/local/Cellar/avr-gcc@8/8.4.0_2/avr/include/util/delay.h ****    no delay i.e., 0ms.
 141:/usr/local/Cellar/avr-gcc@8/8.4.0_2/avr/include/util/delay.h **** 
 142:/usr/local/Cellar/avr-gcc@8/8.4.0_2/avr/include/util/delay.h ****    Conversion of \c __ms into clock cycles may not always result in
 143:/usr/local/Cellar/avr-gcc@8/8.4.0_2/avr/include/util/delay.h ****    integer.  By default, the clock cycles rounded up to next
 144:/usr/local/Cellar/avr-gcc@8/8.4.0_2/avr/include/util/delay.h ****    integer. This ensures that the user gets at least \c __ms
 145:/usr/local/Cellar/avr-gcc@8/8.4.0_2/avr/include/util/delay.h ****    microseconds of delay.
 146:/usr/local/Cellar/avr-gcc@8/8.4.0_2/avr/include/util/delay.h **** 
 147:/usr/local/Cellar/avr-gcc@8/8.4.0_2/avr/include/util/delay.h ****    Alternatively, by defining the macro \c __DELAY_ROUND_DOWN__, or
 148:/usr/local/Cellar/avr-gcc@8/8.4.0_2/avr/include/util/delay.h ****    \c __DELAY_ROUND_CLOSEST__, before including this header file, the
 149:/usr/local/Cellar/avr-gcc@8/8.4.0_2/avr/include/util/delay.h ****    algorithm can be made to round down, or round to closest integer,
 150:/usr/local/Cellar/avr-gcc@8/8.4.0_2/avr/include/util/delay.h ****    respectively.
 151:/usr/local/Cellar/avr-gcc@8/8.4.0_2/avr/include/util/delay.h **** 
 152:/usr/local/Cellar/avr-gcc@8/8.4.0_2/avr/include/util/delay.h ****    \note
 153:/usr/local/Cellar/avr-gcc@8/8.4.0_2/avr/include/util/delay.h **** 
 154:/usr/local/Cellar/avr-gcc@8/8.4.0_2/avr/include/util/delay.h ****    The implementation of _delay_ms() based on
 155:/usr/local/Cellar/avr-gcc@8/8.4.0_2/avr/include/util/delay.h ****    __builtin_avr_delay_cycles() is not backward compatible with older
 156:/usr/local/Cellar/avr-gcc@8/8.4.0_2/avr/include/util/delay.h ****    implementations.  In order to get functionality backward compatible
 157:/usr/local/Cellar/avr-gcc@8/8.4.0_2/avr/include/util/delay.h ****    with previous versions, the macro \c "__DELAY_BACKWARD_COMPATIBLE__"
 158:/usr/local/Cellar/avr-gcc@8/8.4.0_2/avr/include/util/delay.h ****    must be defined before including this header file. Also, the
 159:/usr/local/Cellar/avr-gcc@8/8.4.0_2/avr/include/util/delay.h ****    backward compatible algorithm will be chosen if the code is
 160:/usr/local/Cellar/avr-gcc@8/8.4.0_2/avr/include/util/delay.h ****    compiled in a <em>freestanding environment</em> (GCC option
 161:/usr/local/Cellar/avr-gcc@8/8.4.0_2/avr/include/util/delay.h ****    \c -ffreestanding), as the math functions required for rounding are
 162:/usr/local/Cellar/avr-gcc@8/8.4.0_2/avr/include/util/delay.h ****    not available to the compiler then.
 163:/usr/local/Cellar/avr-gcc@8/8.4.0_2/avr/include/util/delay.h **** 
 164:/usr/local/Cellar/avr-gcc@8/8.4.0_2/avr/include/util/delay.h ****  */
 165:/usr/local/Cellar/avr-gcc@8/8.4.0_2/avr/include/util/delay.h **** void
 166:/usr/local/Cellar/avr-gcc@8/8.4.0_2/avr/include/util/delay.h **** _delay_ms(double __ms)
 2411               		.loc 3 166 1 view .LVU539
 2412               	.LBB54:
 167:/usr/local/Cellar/avr-gcc@8/8.4.0_2/avr/include/util/delay.h **** {
 168:/usr/local/Cellar/avr-gcc@8/8.4.0_2/avr/include/util/delay.h **** 	double __tmp ;
 2413               		.loc 3 168 2 view .LVU540
 169:/usr/local/Cellar/avr-gcc@8/8.4.0_2/avr/include/util/delay.h **** #if __HAS_DELAY_CYCLES && defined(__OPTIMIZE__) && \
 170:/usr/local/Cellar/avr-gcc@8/8.4.0_2/avr/include/util/delay.h ****   !defined(__DELAY_BACKWARD_COMPATIBLE__) &&	   \
 171:/usr/local/Cellar/avr-gcc@8/8.4.0_2/avr/include/util/delay.h ****   __STDC_HOSTED__
 172:/usr/local/Cellar/avr-gcc@8/8.4.0_2/avr/include/util/delay.h **** 	uint32_t __ticks_dc;
 2414               		.loc 3 172 2 view .LVU541
 173:/usr/local/Cellar/avr-gcc@8/8.4.0_2/avr/include/util/delay.h **** 	extern void __builtin_avr_delay_cycles(unsigned long);
 2415               		.loc 3 173 2 view .LVU542
 174:/usr/local/Cellar/avr-gcc@8/8.4.0_2/avr/include/util/delay.h **** 	__tmp = ((F_CPU) / 1e3) * __ms;
 2416               		.loc 3 174 2 view .LVU543
 175:/usr/local/Cellar/avr-gcc@8/8.4.0_2/avr/include/util/delay.h **** 
 176:/usr/local/Cellar/avr-gcc@8/8.4.0_2/avr/include/util/delay.h **** 	#if defined(__DELAY_ROUND_DOWN__)
 177:/usr/local/Cellar/avr-gcc@8/8.4.0_2/avr/include/util/delay.h **** 		__ticks_dc = (uint32_t)fabs(__tmp);
 178:/usr/local/Cellar/avr-gcc@8/8.4.0_2/avr/include/util/delay.h **** 
 179:/usr/local/Cellar/avr-gcc@8/8.4.0_2/avr/include/util/delay.h **** 	#elif defined(__DELAY_ROUND_CLOSEST__)
 180:/usr/local/Cellar/avr-gcc@8/8.4.0_2/avr/include/util/delay.h **** 		__ticks_dc = (uint32_t)(fabs(__tmp)+0.5);
 181:/usr/local/Cellar/avr-gcc@8/8.4.0_2/avr/include/util/delay.h **** 
 182:/usr/local/Cellar/avr-gcc@8/8.4.0_2/avr/include/util/delay.h **** 	#else
 183:/usr/local/Cellar/avr-gcc@8/8.4.0_2/avr/include/util/delay.h **** 		//round up by default
 184:/usr/local/Cellar/avr-gcc@8/8.4.0_2/avr/include/util/delay.h **** 		__ticks_dc = (uint32_t)(ceil(fabs(__tmp)));
 2417               		.loc 3 184 3 view .LVU544
 185:/usr/local/Cellar/avr-gcc@8/8.4.0_2/avr/include/util/delay.h **** 	#endif
 186:/usr/local/Cellar/avr-gcc@8/8.4.0_2/avr/include/util/delay.h **** 
 187:/usr/local/Cellar/avr-gcc@8/8.4.0_2/avr/include/util/delay.h **** 	__builtin_avr_delay_cycles(__ticks_dc);
 2418               		.loc 3 187 2 view .LVU545
 2419 0030 8FE9      		ldi r24,lo8(3999)
 2420 0032 9FE0      		ldi r25,hi8(3999)
 2421 0034 0197      	1:	sbiw r24,1
 2422 0036 01F4      		brne 1b
 2423 0038 00C0      		rjmp .
 2424 003a 0000      		nop
 2425               	.LVL152:
 2426               	.L120:
 2427               	/* epilogue start */
 2428               		.loc 3 187 2 is_stmt 0 view .LVU546
 2429               	.LBE54:
 2430               	.LBE53:
 607:quantum/rgblight.c **** 
 2431               		.loc 1 607 1 view .LVU547
 2432 003c 0F91      		pop r16
 2433               	.LVL153:
 607:quantum/rgblight.c **** 
 2434               		.loc 1 607 1 view .LVU548
 2435 003e 0895      		ret
 2436               		.cfi_endproc
 2437               	.LFE158:
 2439               		.section	.text.rgblight_sethsv_range,"ax",@progbits
 2440               	.global	rgblight_sethsv_range
 2442               	rgblight_sethsv_range:
 2443               	.LVL154:
 2444               	.LFB159:
 609:quantum/rgblight.c ****     if (!rgblight_config.enable) {
 2445               		.loc 1 609 95 is_stmt 1 view -0
 2446               		.cfi_startproc
 609:quantum/rgblight.c ****     if (!rgblight_config.enable) {
 2447               		.loc 1 609 95 is_stmt 0 view .LVU550
 2448 0000 0F93      		push r16
 2449               	.LCFI38:
 2450               		.cfi_def_cfa_offset 3
 2451               		.cfi_offset 16, -2
 2452 0002 1F93      		push r17
 2453               	.LCFI39:
 2454               		.cfi_def_cfa_offset 4
 2455               		.cfi_offset 17, -3
 2456 0004 CF93      		push r28
 2457               	.LCFI40:
 2458               		.cfi_def_cfa_offset 5
 2459               		.cfi_offset 28, -4
 2460 0006 DF93      		push r29
 2461               	.LCFI41:
 2462               		.cfi_def_cfa_offset 6
 2463               		.cfi_offset 29, -5
 2464 0008 00D0      		rcall .
 2465 000a 0F92      		push __tmp_reg__
 2466               	.LCFI42:
 2467               		.cfi_def_cfa_offset 9
 2468 000c CDB7      		in r28,__SP_L__
 2469 000e DEB7      		in r29,__SP_H__
 2470               	.LCFI43:
 2471               		.cfi_def_cfa_register 28
 2472               	/* prologue: function */
 2473               	/* frame size = 3 */
 2474               	/* stack size = 7 */
 2475               	.L__stack_usage = 7
 2476 0010 122F      		mov r17,r18
 610:quantum/rgblight.c ****         return;
 2477               		.loc 1 610 5 is_stmt 1 view .LVU551
 610:quantum/rgblight.c ****         return;
 2478               		.loc 1 610 25 is_stmt 0 view .LVU552
 2479 0012 9091 0000 		lds r25,rgblight_config
 610:quantum/rgblight.c ****         return;
 2480               		.loc 1 610 8 view .LVU553
 2481 0016 90FF      		sbrs r25,0
 2482 0018 00C0      		rjmp .L127
 614:quantum/rgblight.c ****     sethsv(hue, sat, val, &tmp_led);
 2483               		.loc 1 614 5 is_stmt 1 view .LVU554
 615:quantum/rgblight.c ****     rgblight_setrgb_range(tmp_led.r, tmp_led.g, tmp_led.b, start, end);
 2484               		.loc 1 615 5 view .LVU555
 2485 001a 9E01      		movw r18,r28
 2486               	.LVL155:
 615:quantum/rgblight.c ****     rgblight_setrgb_range(tmp_led.r, tmp_led.g, tmp_led.b, start, end);
 2487               		.loc 1 615 5 is_stmt 0 view .LVU556
 2488 001c 2F5F      		subi r18,-1
 2489 001e 3F4F      		sbci r19,-1
 2490 0020 0E94 0000 		call sethsv
 2491               	.LVL156:
 616:quantum/rgblight.c **** }
 2492               		.loc 1 616 5 is_stmt 1 view .LVU557
 2493 0024 212F      		mov r18,r17
 2494 0026 4B81      		ldd r20,Y+3
 2495 0028 6981      		ldd r22,Y+1
 2496 002a 8A81      		ldd r24,Y+2
 2497 002c 0E94 0000 		call rgblight_setrgb_range
 2498               	.LVL157:
 2499               	.L127:
 2500               	/* epilogue start */
 617:quantum/rgblight.c **** 
 2501               		.loc 1 617 1 is_stmt 0 view .LVU558
 2502 0030 0F90      		pop __tmp_reg__
 2503 0032 0F90      		pop __tmp_reg__
 2504 0034 0F90      		pop __tmp_reg__
 2505 0036 DF91      		pop r29
 2506 0038 CF91      		pop r28
 2507 003a 1F91      		pop r17
 2508               	.LVL158:
 617:quantum/rgblight.c **** 
 2509               		.loc 1 617 1 view .LVU559
 2510 003c 0F91      		pop r16
 2511               	.LVL159:
 617:quantum/rgblight.c **** 
 2512               		.loc 1 617 1 view .LVU560
 2513 003e 0895      		ret
 2514               		.cfi_endproc
 2515               	.LFE159:
 2517               		.section	.text.rgblight_effect_rainbow_swirl,"ax",@progbits
 2518               	.global	rgblight_effect_rainbow_swirl
 2520               	rgblight_effect_rainbow_swirl:
 2521               	.LVL160:
 2522               	.LFB175:
1021:quantum/rgblight.c ****     uint8_t hue;
 2523               		.loc 1 1021 62 is_stmt 1 view -0
 2524               		.cfi_startproc
1021:quantum/rgblight.c ****     uint8_t hue;
 2525               		.loc 1 1021 62 is_stmt 0 view .LVU562
 2526 0000 EF92      		push r14
 2527               	.LCFI44:
 2528               		.cfi_def_cfa_offset 3
 2529               		.cfi_offset 14, -2
 2530 0002 FF92      		push r15
 2531               	.LCFI45:
 2532               		.cfi_def_cfa_offset 4
 2533               		.cfi_offset 15, -3
 2534 0004 1F93      		push r17
 2535               	.LCFI46:
 2536               		.cfi_def_cfa_offset 5
 2537               		.cfi_offset 17, -4
 2538 0006 CF93      		push r28
 2539               	.LCFI47:
 2540               		.cfi_def_cfa_offset 6
 2541               		.cfi_offset 28, -5
 2542 0008 DF93      		push r29
 2543               	.LCFI48:
 2544               		.cfi_def_cfa_offset 7
 2545               		.cfi_offset 29, -6
 2546               	/* prologue: function */
 2547               	/* frame size = 0 */
 2548               	/* stack size = 5 */
 2549               	.L__stack_usage = 5
 2550 000a EC01      		movw r28,r24
1022:quantum/rgblight.c ****     uint8_t i;
 2551               		.loc 1 1022 5 is_stmt 1 view .LVU563
1023:quantum/rgblight.c **** 
 2552               		.loc 1 1023 5 view .LVU564
1025:quantum/rgblight.c ****         hue = (RGBLIGHT_RAINBOW_SWIRL_RANGE / rgblight_ranges.effect_num_leds * i + anim->current_h
 2553               		.loc 1 1025 5 view .LVU565
 2554               	.LVL161:
1025:quantum/rgblight.c ****         hue = (RGBLIGHT_RAINBOW_SWIRL_RANGE / rgblight_ranges.effect_num_leds * i + anim->current_h
 2555               		.loc 1 1025 12 is_stmt 0 view .LVU566
 2556 000c 10E0      		ldi r17,0
1026:quantum/rgblight.c ****         sethsv(hue, rgblight_config.sat, rgblight_config.val, (LED_TYPE *)&led[i + rgblight_ranges.
 2557               		.loc 1 1026 45 view .LVU567
 2558 000e EE24      		clr r14
 2559 0010 EA94      		dec r14
 2560 0012 F12C      		mov r15,__zero_reg__
 2561               	.LVL162:
 2562               	.L131:
1025:quantum/rgblight.c ****         hue = (RGBLIGHT_RAINBOW_SWIRL_RANGE / rgblight_ranges.effect_num_leds * i + anim->current_h
 2563               		.loc 1 1025 17 is_stmt 1 discriminator 1 view .LVU568
1025:quantum/rgblight.c ****         hue = (RGBLIGHT_RAINBOW_SWIRL_RANGE / rgblight_ranges.effect_num_leds * i + anim->current_h
 2564               		.loc 1 1025 36 is_stmt 0 discriminator 1 view .LVU569
 2565 0014 6091 0000 		lds r22,rgblight_ranges+4
1025:quantum/rgblight.c ****         hue = (RGBLIGHT_RAINBOW_SWIRL_RANGE / rgblight_ranges.effect_num_leds * i + anim->current_h
 2566               		.loc 1 1025 5 discriminator 1 view .LVU570
 2567 0018 1617      		cp r17,r22
 2568 001a 00F0      		brlo .L132
1029:quantum/rgblight.c **** 
 2569               		.loc 1 1029 5 is_stmt 1 view .LVU571
 2570 001c 0E94 0000 		call rgblight_set
 2571               	.LVL163:
1031:quantum/rgblight.c ****         anim->current_hue++;
 2572               		.loc 1 1031 5 view .LVU572
1031:quantum/rgblight.c ****         anim->current_hue++;
 2573               		.loc 1 1031 9 is_stmt 0 view .LVU573
 2574 0020 9A81      		ldd r25,Y+2
 2575 0022 8C81      		ldd r24,Y+4
1031:quantum/rgblight.c ****         anim->current_hue++;
 2576               		.loc 1 1031 8 view .LVU574
 2577 0024 90FF      		sbrs r25,0
 2578 0026 00C0      		rjmp .L133
1032:quantum/rgblight.c ****     } else {
 2579               		.loc 1 1032 9 is_stmt 1 view .LVU575
1032:quantum/rgblight.c ****     } else {
 2580               		.loc 1 1032 26 is_stmt 0 view .LVU576
 2581 0028 8F5F      		subi r24,lo8(-(1))
 2582               	.L135:
1034:quantum/rgblight.c ****     }
 2583               		.loc 1 1034 26 view .LVU577
 2584 002a 8C83      		std Y+4,r24
 2585               	/* epilogue start */
1036:quantum/rgblight.c **** #endif
 2586               		.loc 1 1036 1 view .LVU578
 2587 002c DF91      		pop r29
 2588 002e CF91      		pop r28
 2589               	.LVL164:
1036:quantum/rgblight.c **** #endif
 2590               		.loc 1 1036 1 view .LVU579
 2591 0030 1F91      		pop r17
 2592               	.LVL165:
1036:quantum/rgblight.c **** #endif
 2593               		.loc 1 1036 1 view .LVU580
 2594 0032 FF90      		pop r15
 2595 0034 EF90      		pop r14
 2596 0036 0895      		ret
 2597               	.LVL166:
 2598               	.L132:
1026:quantum/rgblight.c ****         sethsv(hue, rgblight_config.sat, rgblight_config.val, (LED_TYPE *)&led[i + rgblight_ranges.
 2599               		.loc 1 1026 9 is_stmt 1 discriminator 3 view .LVU581
1027:quantum/rgblight.c ****     }
 2600               		.loc 1 1027 9 discriminator 3 view .LVU582
1027:quantum/rgblight.c ****     }
 2601               		.loc 1 1027 99 is_stmt 0 discriminator 3 view .LVU583
 2602 0038 2091 0000 		lds r18,rgblight_ranges+2
1027:quantum/rgblight.c ****     }
 2603               		.loc 1 1027 82 discriminator 3 view .LVU584
 2604 003c 422F      		mov r20,r18
 2605 003e 410F      		add r20,r17
 2606 0040 5527      		clr r21
 2607 0042 551F      		rol r21
 2608 0044 CA01      		movw r24,r20
1027:quantum/rgblight.c ****     }
 2609               		.loc 1 1027 9 discriminator 3 view .LVU585
 2610 0046 9A01      		movw r18,r20
 2611 0048 220F      		lsl r18
 2612 004a 331F      		rol r19
 2613 004c 280F      		add r18,r24
 2614 004e 391F      		adc r19,r25
 2615 0050 2050      		subi r18,lo8(-(led))
 2616 0052 3040      		sbci r19,hi8(-(led))
1026:quantum/rgblight.c ****         sethsv(hue, rgblight_config.sat, rgblight_config.val, (LED_TYPE *)&led[i + rgblight_ranges.
 2617               		.loc 1 1026 62 discriminator 3 view .LVU586
 2618 0054 70E0      		ldi r23,0
1026:quantum/rgblight.c ****         sethsv(hue, rgblight_config.sat, rgblight_config.val, (LED_TYPE *)&led[i + rgblight_ranges.
 2619               		.loc 1 1026 45 discriminator 3 view .LVU587
 2620 0056 C701      		movw r24,r14
 2621 0058 0E94 0000 		call __divmodhi4
 2622               	.LVL167:
1026:quantum/rgblight.c ****         sethsv(hue, rgblight_config.sat, rgblight_config.val, (LED_TYPE *)&led[i + rgblight_ranges.
 2623               		.loc 1 1026 45 discriminator 3 view .LVU588
 2624 005c 962F      		mov r25,r22
1026:quantum/rgblight.c ****         sethsv(hue, rgblight_config.sat, rgblight_config.val, (LED_TYPE *)&led[i + rgblight_ranges.
 2625               		.loc 1 1026 13 discriminator 3 view .LVU589
 2626 005e 8C81      		ldd r24,Y+4
1027:quantum/rgblight.c ****     }
 2627               		.loc 1 1027 9 discriminator 3 view .LVU590
 2628 0060 4091 0000 		lds r20,rgblight_config+3
 2629 0064 6091 0000 		lds r22,rgblight_config+2
 2630 0068 199F      		mul r17,r25
 2631 006a 800D      		add r24,r0
 2632 006c 1124      		clr __zero_reg__
 2633 006e 0E94 0000 		call sethsv
 2634               	.LVL168:
1025:quantum/rgblight.c ****         hue = (RGBLIGHT_RAINBOW_SWIRL_RANGE / rgblight_ranges.effect_num_leds * i + anim->current_h
 2635               		.loc 1 1025 54 is_stmt 1 discriminator 3 view .LVU591
1025:quantum/rgblight.c ****         hue = (RGBLIGHT_RAINBOW_SWIRL_RANGE / rgblight_ranges.effect_num_leds * i + anim->current_h
 2636               		.loc 1 1025 55 is_stmt 0 discriminator 3 view .LVU592
 2637 0072 1F5F      		subi r17,lo8(-(1))
 2638               	.LVL169:
1025:quantum/rgblight.c ****         hue = (RGBLIGHT_RAINBOW_SWIRL_RANGE / rgblight_ranges.effect_num_leds * i + anim->current_h
 2639               		.loc 1 1025 55 discriminator 3 view .LVU593
 2640 0074 00C0      		rjmp .L131
 2641               	.L133:
1034:quantum/rgblight.c ****     }
 2642               		.loc 1 1034 9 is_stmt 1 view .LVU594
1034:quantum/rgblight.c ****     }
 2643               		.loc 1 1034 26 is_stmt 0 view .LVU595
 2644 0076 8150      		subi r24,lo8(-(-1))
 2645 0078 00C0      		rjmp .L135
 2646               		.cfi_endproc
 2647               	.LFE175:
 2649               		.section	.text.rgblight_effect_snake,"ax",@progbits
 2650               	.global	rgblight_effect_snake
 2652               	rgblight_effect_snake:
 2653               	.LVL170:
 2654               	.LFB176:
1042:quantum/rgblight.c ****     static uint8_t pos = 0;
 2655               		.loc 1 1042 54 is_stmt 1 view -0
 2656               		.cfi_startproc
1042:quantum/rgblight.c ****     static uint8_t pos = 0;
 2657               		.loc 1 1042 54 is_stmt 0 view .LVU597
 2658 0000 8F92      		push r8
 2659               	.LCFI49:
 2660               		.cfi_def_cfa_offset 3
 2661               		.cfi_offset 8, -2
 2662 0002 9F92      		push r9
 2663               	.LCFI50:
 2664               		.cfi_def_cfa_offset 4
 2665               		.cfi_offset 9, -3
 2666 0004 AF92      		push r10
 2667               	.LCFI51:
 2668               		.cfi_def_cfa_offset 5
 2669               		.cfi_offset 10, -4
 2670 0006 BF92      		push r11
 2671               	.LCFI52:
 2672               		.cfi_def_cfa_offset 6
 2673               		.cfi_offset 11, -5
 2674 0008 CF92      		push r12
 2675               	.LCFI53:
 2676               		.cfi_def_cfa_offset 7
 2677               		.cfi_offset 12, -6
 2678 000a DF92      		push r13
 2679               	.LCFI54:
 2680               		.cfi_def_cfa_offset 8
 2681               		.cfi_offset 13, -7
 2682 000c EF92      		push r14
 2683               	.LCFI55:
 2684               		.cfi_def_cfa_offset 9
 2685               		.cfi_offset 14, -8
 2686 000e FF92      		push r15
 2687               	.LCFI56:
 2688               		.cfi_def_cfa_offset 10
 2689               		.cfi_offset 15, -9
 2690 0010 0F93      		push r16
 2691               	.LCFI57:
 2692               		.cfi_def_cfa_offset 11
 2693               		.cfi_offset 16, -10
 2694 0012 1F93      		push r17
 2695               	.LCFI58:
 2696               		.cfi_def_cfa_offset 12
 2697               		.cfi_offset 17, -11
 2698 0014 CF93      		push r28
 2699               	.LCFI59:
 2700               		.cfi_def_cfa_offset 13
 2701               		.cfi_offset 28, -12
 2702 0016 DF93      		push r29
 2703               	.LCFI60:
 2704               		.cfi_def_cfa_offset 14
 2705               		.cfi_offset 29, -13
 2706               	/* prologue: function */
 2707               	/* frame size = 0 */
 2708               	/* stack size = 12 */
 2709               	.L__stack_usage = 12
 2710 0018 EC01      		movw r28,r24
1043:quantum/rgblight.c ****     uint8_t        i, j;
 2711               		.loc 1 1043 5 is_stmt 1 view .LVU598
1044:quantum/rgblight.c ****     int8_t         k;
 2712               		.loc 1 1044 5 view .LVU599
1045:quantum/rgblight.c ****     int8_t         increment = 1;
 2713               		.loc 1 1045 5 view .LVU600
1046:quantum/rgblight.c **** 
 2714               		.loc 1 1046 5 view .LVU601
 2715               	.LVL171:
1048:quantum/rgblight.c ****         increment = -1;
 2716               		.loc 1 1048 5 view .LVU602
1048:quantum/rgblight.c ****         increment = -1;
 2717               		.loc 1 1048 9 is_stmt 0 view .LVU603
 2718 001a 8A81      		ldd r24,Y+2
 2719               	.LVL172:
1049:quantum/rgblight.c ****     }
 2720               		.loc 1 1049 19 view .LVU604
 2721 001c BB24      		clr r11
 2722 001e BA94      		dec r11
1048:quantum/rgblight.c ****         increment = -1;
 2723               		.loc 1 1048 8 view .LVU605
 2724 0020 80FD      		sbrc r24,0
 2725 0022 00C0      		rjmp .L137
1046:quantum/rgblight.c **** 
 2726               		.loc 1 1046 20 view .LVU606
 2727 0024 BB24      		clr r11
 2728 0026 B394      		inc r11
 2729               	.L137:
 2730               	.LVL173:
1053:quantum/rgblight.c ****         if (increment == 1) {
 2731               		.loc 1 1053 5 is_stmt 1 view .LVU607
1053:quantum/rgblight.c ****         if (increment == 1) {
 2732               		.loc 1 1053 8 is_stmt 0 view .LVU608
 2733 0028 8C81      		ldd r24,Y+4
 2734 002a 8111      		cpse r24,__zero_reg__
 2735 002c 00C0      		rjmp .L138
1054:quantum/rgblight.c ****             pos = rgblight_ranges.effect_num_leds - 1;
 2736               		.loc 1 1054 9 is_stmt 1 view .LVU609
1054:quantum/rgblight.c ****             pos = rgblight_ranges.effect_num_leds - 1;
 2737               		.loc 1 1054 12 is_stmt 0 view .LVU610
 2738 002e 81E0      		ldi r24,lo8(1)
 2739 0030 B812      		cpse r11,r24
 2740 0032 00C0      		rjmp .L139
1055:quantum/rgblight.c ****         } else {
 2741               		.loc 1 1055 13 is_stmt 1 view .LVU611
1055:quantum/rgblight.c ****         } else {
 2742               		.loc 1 1055 51 is_stmt 0 view .LVU612
 2743 0034 8091 0000 		lds r24,rgblight_ranges+4
 2744 0038 8150      		subi r24,lo8(-(-1))
1055:quantum/rgblight.c ****         } else {
 2745               		.loc 1 1055 17 view .LVU613
 2746 003a 8093 0000 		sts pos.3399,r24
 2747               	.L140:
1059:quantum/rgblight.c ****     }
 2748               		.loc 1 1059 9 is_stmt 1 view .LVU614
1059:quantum/rgblight.c ****     }
 2749               		.loc 1 1059 19 is_stmt 0 view .LVU615
 2750 003e 81E0      		ldi r24,lo8(1)
 2751 0040 8C83      		std Y+4,r24
 2752               	.L138:
 2753               	.LBB55:
1067:quantum/rgblight.c **** #    ifdef RGBW
 2754               		.loc 1 1067 24 discriminator 1 view .LVU616
 2755 0042 A12C      		mov r10,__zero_reg__
1074:quantum/rgblight.c ****             }
 2756               		.loc 1 1074 19 discriminator 1 view .LVU617
 2757 0044 4BE1      		ldi r20,lo8(27)
 2758 0046 942E      		mov r9,r20
 2759               	.L141:
 2760               	.LVL174:
1074:quantum/rgblight.c ****             }
 2761               		.loc 1 1074 19 discriminator 1 view .LVU618
 2762               	.LBE55:
1063:quantum/rgblight.c ****         LED_TYPE *ledp = led + i + rgblight_ranges.effect_start_pos;
 2763               		.loc 1 1063 17 is_stmt 1 discriminator 1 view .LVU619
1063:quantum/rgblight.c ****         LED_TYPE *ledp = led + i + rgblight_ranges.effect_start_pos;
 2764               		.loc 1 1063 5 is_stmt 0 discriminator 1 view .LVU620
 2765 0048 8091 0000 		lds r24,rgblight_ranges+4
 2766 004c A816      		cp r10,r24
 2767 004e 00F0      		brlo .L146
1084:quantum/rgblight.c ****     if (increment == 1) {
 2768               		.loc 1 1084 5 is_stmt 1 view .LVU621
 2769 0050 0E94 0000 		call rgblight_set
 2770               	.LVL175:
1085:quantum/rgblight.c ****         if (pos - 1 < 0) {
 2771               		.loc 1 1085 5 view .LVU622
 2772 0054 8091 0000 		lds r24,pos.3399
1085:quantum/rgblight.c ****         if (pos - 1 < 0) {
 2773               		.loc 1 1085 8 is_stmt 0 view .LVU623
 2774 0058 91E0      		ldi r25,lo8(1)
 2775 005a B912      		cpse r11,r25
 2776 005c 00C0      		rjmp .L147
1086:quantum/rgblight.c ****             pos = rgblight_ranges.effect_num_leds - 1;
 2777               		.loc 1 1086 9 is_stmt 1 view .LVU624
1086:quantum/rgblight.c ****             pos = rgblight_ranges.effect_num_leds - 1;
 2778               		.loc 1 1086 12 is_stmt 0 view .LVU625
 2779 005e 8111      		cpse r24,__zero_reg__
 2780 0060 00C0      		rjmp .L148
1087:quantum/rgblight.c **** #    if defined(RGBLIGHT_SPLIT) && !defined(RGBLIGHT_SPLIT_NO_ANIMATION_SYNC)
 2781               		.loc 1 1087 13 is_stmt 1 view .LVU626
1087:quantum/rgblight.c **** #    if defined(RGBLIGHT_SPLIT) && !defined(RGBLIGHT_SPLIT_NO_ANIMATION_SYNC)
 2782               		.loc 1 1087 51 is_stmt 0 view .LVU627
 2783 0062 8091 0000 		lds r24,rgblight_ranges+4
 2784 0066 8150      		subi r24,lo8(-(-1))
1087:quantum/rgblight.c **** #    if defined(RGBLIGHT_SPLIT) && !defined(RGBLIGHT_SPLIT_NO_ANIMATION_SYNC)
 2785               		.loc 1 1087 17 view .LVU628
 2786 0068 8093 0000 		sts pos.3399,r24
1089:quantum/rgblight.c **** #    endif
 2787               		.loc 1 1089 13 is_stmt 1 view .LVU629
1089:quantum/rgblight.c **** #    endif
 2788               		.loc 1 1089 23 is_stmt 0 view .LVU630
 2789 006c 1C82      		std Y+4,__zero_reg__
 2790               	.L136:
 2791               	/* epilogue start */
1103:quantum/rgblight.c **** #endif
 2792               		.loc 1 1103 1 view .LVU631
 2793 006e DF91      		pop r29
 2794 0070 CF91      		pop r28
 2795               	.LVL176:
1103:quantum/rgblight.c **** #endif
 2796               		.loc 1 1103 1 view .LVU632
 2797 0072 1F91      		pop r17
 2798 0074 0F91      		pop r16
 2799 0076 FF90      		pop r15
 2800 0078 EF90      		pop r14
 2801 007a DF90      		pop r13
 2802 007c CF90      		pop r12
 2803 007e BF90      		pop r11
 2804               	.LVL177:
1103:quantum/rgblight.c **** #endif
 2805               		.loc 1 1103 1 view .LVU633
 2806 0080 AF90      		pop r10
 2807               	.LVL178:
1103:quantum/rgblight.c **** #endif
 2808               		.loc 1 1103 1 view .LVU634
 2809 0082 9F90      		pop r9
 2810 0084 8F90      		pop r8
 2811 0086 0895      		ret
 2812               	.LVL179:
 2813               	.L139:
1057:quantum/rgblight.c ****         }
 2814               		.loc 1 1057 13 is_stmt 1 view .LVU635
1057:quantum/rgblight.c ****         }
 2815               		.loc 1 1057 17 is_stmt 0 view .LVU636
 2816 0088 1092 0000 		sts pos.3399,__zero_reg__
 2817 008c 00C0      		rjmp .L140
 2818               	.LVL180:
 2819               	.L146:
 2820               	.LBB56:
1064:quantum/rgblight.c ****         ledp->r        = 0;
 2821               		.loc 1 1064 9 is_stmt 1 view .LVU637
1064:quantum/rgblight.c ****         ledp->r        = 0;
 2822               		.loc 1 1064 34 is_stmt 0 view .LVU638
 2823 008e 0091 0000 		lds r16,rgblight_ranges+2
 2824 0092 CA2C      		mov r12,r10
 2825 0094 D12C      		mov r13,__zero_reg__
 2826 0096 0C0D      		add r16,r12
 2827 0098 1D2D      		mov r17,r13
 2828 009a 111D      		adc r17,__zero_reg__
 2829 009c C801      		movw r24,r16
 2830 009e 880F      		lsl r24
 2831 00a0 991F      		rol r25
 2832 00a2 080F      		add r16,r24
 2833 00a4 191F      		adc r17,r25
1064:quantum/rgblight.c ****         ledp->r        = 0;
 2834               		.loc 1 1064 19 view .LVU639
 2835 00a6 0050      		subi r16,lo8(-(led))
 2836 00a8 1040      		sbci r17,hi8(-(led))
 2837               	.LVL181:
1065:quantum/rgblight.c ****         ledp->g        = 0;
 2838               		.loc 1 1065 9 is_stmt 1 view .LVU640
1065:quantum/rgblight.c ****         ledp->g        = 0;
 2839               		.loc 1 1065 24 is_stmt 0 view .LVU641
 2840 00aa F801      		movw r30,r16
 2841 00ac 1182      		std Z+1,__zero_reg__
1066:quantum/rgblight.c ****         ledp->b        = 0;
 2842               		.loc 1 1066 9 is_stmt 1 view .LVU642
1066:quantum/rgblight.c ****         ledp->b        = 0;
 2843               		.loc 1 1066 24 is_stmt 0 view .LVU643
 2844 00ae 1082      		st Z,__zero_reg__
1067:quantum/rgblight.c **** #    ifdef RGBW
 2845               		.loc 1 1067 9 is_stmt 1 view .LVU644
1067:quantum/rgblight.c **** #    ifdef RGBW
 2846               		.loc 1 1067 24 is_stmt 0 view .LVU645
 2847 00b0 1282      		std Z+2,__zero_reg__
1071:quantum/rgblight.c ****             k = pos + j * increment;
 2848               		.loc 1 1071 9 is_stmt 1 view .LVU646
 2849               	.LVL182:
1071:quantum/rgblight.c ****             k = pos + j * increment;
 2850               		.loc 1 1071 21 view .LVU647
1067:quantum/rgblight.c **** #    ifdef RGBW
 2851               		.loc 1 1067 24 is_stmt 0 view .LVU648
 2852 00b2 34E0      		ldi r19,lo8(4)
 2853 00b4 E32E      		mov r14,r19
 2854 00b6 F12C      		mov r15,__zero_reg__
 2855 00b8 812C      		mov r8,__zero_reg__
 2856               	.LVL183:
 2857               	.L145:
1072:quantum/rgblight.c ****             if (k > RGBLED_NUM) {
 2858               		.loc 1 1072 13 is_stmt 1 view .LVU649
1072:quantum/rgblight.c ****             if (k > RGBLED_NUM) {
 2859               		.loc 1 1072 21 is_stmt 0 view .LVU650
 2860 00ba 8091 0000 		lds r24,pos.3399
 2861 00be 880D      		add r24,r8
 2862               	.LVL184:
1073:quantum/rgblight.c ****                 k = k % RGBLED_NUM;
 2863               		.loc 1 1073 13 is_stmt 1 view .LVU651
1073:quantum/rgblight.c ****                 k = k % RGBLED_NUM;
 2864               		.loc 1 1073 16 is_stmt 0 view .LVU652
 2865 00c0 8C31      		cpi r24,lo8(28)
 2866 00c2 04F0      		brlt .L142
1074:quantum/rgblight.c ****             }
 2867               		.loc 1 1074 17 is_stmt 1 view .LVU653
1074:quantum/rgblight.c ****             }
 2868               		.loc 1 1074 19 is_stmt 0 view .LVU654
 2869 00c4 692D      		mov r22,r9
 2870 00c6 0E94 0000 		call __divmodqi4
 2871               	.LVL185:
1074:quantum/rgblight.c ****             }
 2872               		.loc 1 1074 19 view .LVU655
 2873 00ca 892F      		mov r24,r25
 2874               	.LVL186:
1076:quantum/rgblight.c ****                 k = k + rgblight_ranges.effect_num_leds;
 2875               		.loc 1 1076 13 is_stmt 1 view .LVU656
 2876               	.L143:
1079:quantum/rgblight.c ****                 sethsv(rgblight_config.hue, rgblight_config.sat, (uint8_t)(rgblight_config.val * (R
 2877               		.loc 1 1079 13 view .LVU657
1079:quantum/rgblight.c ****                 sethsv(rgblight_config.hue, rgblight_config.sat, (uint8_t)(rgblight_config.val * (R
 2878               		.loc 1 1079 19 is_stmt 0 view .LVU658
 2879 00cc 082E      		mov __tmp_reg__,r24
 2880 00ce 000C      		lsl r0
 2881 00d0 990B      		sbc r25,r25
1079:quantum/rgblight.c ****                 sethsv(rgblight_config.hue, rgblight_config.sat, (uint8_t)(rgblight_config.val * (R
 2882               		.loc 1 1079 16 view .LVU659
 2883 00d2 C816      		cp r12,r24
 2884 00d4 D906      		cpc r13,r25
 2885 00d6 01F4      		brne .L144
1080:quantum/rgblight.c ****             }
 2886               		.loc 1 1080 17 is_stmt 1 view .LVU660
1080:quantum/rgblight.c ****             }
 2887               		.loc 1 1080 91 is_stmt 0 view .LVU661
 2888 00d8 8091 0000 		lds r24,rgblight_config+3
 2889               	.LVL187:
1080:quantum/rgblight.c ****             }
 2890               		.loc 1 1080 96 view .LVU662
 2891 00dc 8E9D      		mul r24,r14
 2892 00de A001      		movw r20,r0
 2893 00e0 8F9D      		mul r24,r15
 2894 00e2 500D      		add r21,r0
 2895 00e4 1124      		clr __zero_reg__
1080:quantum/rgblight.c ****             }
 2896               		.loc 1 1080 133 view .LVU663
 2897 00e6 5595      		asr r21
 2898 00e8 4795      		ror r20
 2899 00ea 5595      		asr r21
 2900 00ec 4795      		ror r20
1080:quantum/rgblight.c ****             }
 2901               		.loc 1 1080 17 view .LVU664
 2902 00ee 9801      		movw r18,r16
 2903 00f0 6091 0000 		lds r22,rgblight_config+2
 2904 00f4 8091 0000 		lds r24,rgblight_config+1
 2905 00f8 0E94 0000 		call sethsv
 2906               	.LVL188:
 2907               	.L144:
1071:quantum/rgblight.c ****             k = pos + j * increment;
 2908               		.loc 1 1071 55 is_stmt 1 discriminator 2 view .LVU665
1071:quantum/rgblight.c ****             k = pos + j * increment;
 2909               		.loc 1 1071 21 discriminator 2 view .LVU666
 2910 00fc 8B0C      		add r8,r11
 2911 00fe F1E0      		ldi r31,1
 2912 0100 EF1A      		sub r14,r31
 2913 0102 F108      		sbc r15,__zero_reg__
1071:quantum/rgblight.c ****             k = pos + j * increment;
 2914               		.loc 1 1071 9 is_stmt 0 discriminator 2 view .LVU667
 2915 0104 01F4      		brne .L145
 2916               	.LBE56:
1063:quantum/rgblight.c ****         LED_TYPE *ledp = led + i + rgblight_ranges.effect_start_pos;
 2917               		.loc 1 1063 54 is_stmt 1 discriminator 2 view .LVU668
1063:quantum/rgblight.c ****         LED_TYPE *ledp = led + i + rgblight_ranges.effect_start_pos;
 2918               		.loc 1 1063 55 is_stmt 0 discriminator 2 view .LVU669
 2919 0106 A394      		inc r10
 2920               	.LVL189:
1063:quantum/rgblight.c ****         LED_TYPE *ledp = led + i + rgblight_ranges.effect_start_pos;
 2921               		.loc 1 1063 55 discriminator 2 view .LVU670
 2922 0108 00C0      		rjmp .L141
 2923               	.LVL190:
 2924               	.L142:
 2925               	.LBB57:
1076:quantum/rgblight.c ****                 k = k + rgblight_ranges.effect_num_leds;
 2926               		.loc 1 1076 13 is_stmt 1 view .LVU671
1076:quantum/rgblight.c ****                 k = k + rgblight_ranges.effect_num_leds;
 2927               		.loc 1 1076 16 is_stmt 0 view .LVU672
 2928 010a 87FF      		sbrs r24,7
 2929 010c 00C0      		rjmp .L143
1077:quantum/rgblight.c ****             }
 2930               		.loc 1 1077 17 is_stmt 1 view .LVU673
1077:quantum/rgblight.c ****             }
 2931               		.loc 1 1077 23 is_stmt 0 view .LVU674
 2932 010e 9091 0000 		lds r25,rgblight_ranges+4
 2933 0112 890F      		add r24,r25
 2934               	.LVL191:
1077:quantum/rgblight.c ****             }
 2935               		.loc 1 1077 23 view .LVU675
 2936 0114 00C0      		rjmp .L143
 2937               	.LVL192:
 2938               	.L148:
1077:quantum/rgblight.c ****             }
 2939               		.loc 1 1077 23 view .LVU676
 2940               	.LBE57:
1092:quantum/rgblight.c **** #    if defined(RGBLIGHT_SPLIT) && !defined(RGBLIGHT_SPLIT_NO_ANIMATION_SYNC)
 2941               		.loc 1 1092 13 is_stmt 1 view .LVU677
1092:quantum/rgblight.c **** #    if defined(RGBLIGHT_SPLIT) && !defined(RGBLIGHT_SPLIT_NO_ANIMATION_SYNC)
 2942               		.loc 1 1092 17 is_stmt 0 view .LVU678
 2943 0116 8150      		subi r24,lo8(-(-1))
 2944 0118 8093 0000 		sts pos.3399,r24
1094:quantum/rgblight.c **** #    endif
 2945               		.loc 1 1094 13 is_stmt 1 view .LVU679
1094:quantum/rgblight.c **** #    endif
 2946               		.loc 1 1094 23 is_stmt 0 view .LVU680
 2947 011c BC82      		std Y+4,r11
 2948 011e 00C0      		rjmp .L136
 2949               	.L147:
1098:quantum/rgblight.c **** #    if defined(RGBLIGHT_SPLIT) && !defined(RGBLIGHT_SPLIT_NO_ANIMATION_SYNC)
 2950               		.loc 1 1098 9 is_stmt 1 view .LVU681
1098:quantum/rgblight.c **** #    if defined(RGBLIGHT_SPLIT) && !defined(RGBLIGHT_SPLIT_NO_ANIMATION_SYNC)
 2951               		.loc 1 1098 20 is_stmt 0 view .LVU682
 2952 0120 90E0      		ldi r25,0
 2953 0122 0196      		adiw r24,1
1098:quantum/rgblight.c **** #    if defined(RGBLIGHT_SPLIT) && !defined(RGBLIGHT_SPLIT_NO_ANIMATION_SYNC)
 2954               		.loc 1 1098 42 view .LVU683
 2955 0124 6091 0000 		lds r22,rgblight_ranges+4
 2956 0128 70E0      		ldi r23,0
1098:quantum/rgblight.c **** #    if defined(RGBLIGHT_SPLIT) && !defined(RGBLIGHT_SPLIT_NO_ANIMATION_SYNC)
 2957               		.loc 1 1098 25 view .LVU684
 2958 012a 0E94 0000 		call __divmodhi4
1098:quantum/rgblight.c **** #    if defined(RGBLIGHT_SPLIT) && !defined(RGBLIGHT_SPLIT_NO_ANIMATION_SYNC)
 2959               		.loc 1 1098 13 view .LVU685
 2960 012e 8093 0000 		sts pos.3399,r24
1100:quantum/rgblight.c **** #    endif
 2961               		.loc 1 1100 9 is_stmt 1 view .LVU686
1100:quantum/rgblight.c **** #    endif
 2962               		.loc 1 1100 19 is_stmt 0 view .LVU687
 2963 0132 8C83      		std Y+4,r24
1103:quantum/rgblight.c **** #endif
 2964               		.loc 1 1103 1 view .LVU688
 2965 0134 00C0      		rjmp .L136
 2966               		.cfi_endproc
 2967               	.LFE176:
 2969               		.section	.text.rgblight_effect_knight,"ax",@progbits
 2970               	.global	rgblight_effect_knight
 2972               	rgblight_effect_knight:
 2973               	.LVL193:
 2974               	.LFB177:
1109:quantum/rgblight.c ****     static int8_t low_bound  = 0;
 2975               		.loc 1 1109 55 is_stmt 1 view -0
 2976               		.cfi_startproc
1109:quantum/rgblight.c ****     static int8_t low_bound  = 0;
 2977               		.loc 1 1109 55 is_stmt 0 view .LVU690
 2978 0000 EF92      		push r14
 2979               	.LCFI61:
 2980               		.cfi_def_cfa_offset 3
 2981               		.cfi_offset 14, -2
 2982 0002 FF92      		push r15
 2983               	.LCFI62:
 2984               		.cfi_def_cfa_offset 4
 2985               		.cfi_offset 15, -3
 2986 0004 0F93      		push r16
 2987               	.LCFI63:
 2988               		.cfi_def_cfa_offset 5
 2989               		.cfi_offset 16, -4
 2990 0006 1F93      		push r17
 2991               	.LCFI64:
 2992               		.cfi_def_cfa_offset 6
 2993               		.cfi_offset 17, -5
 2994 0008 CF93      		push r28
 2995               	.LCFI65:
 2996               		.cfi_def_cfa_offset 7
 2997               		.cfi_offset 28, -6
 2998 000a DF93      		push r29
 2999               	.LCFI66:
 3000               		.cfi_def_cfa_offset 8
 3001               		.cfi_offset 29, -7
 3002               	/* prologue: function */
 3003               	/* frame size = 0 */
 3004               	/* stack size = 6 */
 3005               	.L__stack_usage = 6
 3006 000c EC01      		movw r28,r24
1110:quantum/rgblight.c ****     static int8_t high_bound = RGBLIGHT_EFFECT_KNIGHT_LENGTH - 1;
 3007               		.loc 1 1110 5 is_stmt 1 view .LVU691
1111:quantum/rgblight.c ****     static int8_t increment  = 1;
 3008               		.loc 1 1111 5 view .LVU692
1112:quantum/rgblight.c ****     uint8_t       i, cur;
 3009               		.loc 1 1112 5 view .LVU693
1113:quantum/rgblight.c **** 
 3010               		.loc 1 1113 5 view .LVU694
1116:quantum/rgblight.c ****         anim->pos  = 1;
 3011               		.loc 1 1116 5 view .LVU695
1116:quantum/rgblight.c ****         anim->pos  = 1;
 3012               		.loc 1 1116 8 is_stmt 0 view .LVU696
 3013 000e 8C81      		ldd r24,Y+4
 3014               	.LVL194:
1116:quantum/rgblight.c ****         anim->pos  = 1;
 3015               		.loc 1 1116 8 view .LVU697
 3016 0010 8111      		cpse r24,__zero_reg__
 3017 0012 00C0      		rjmp .L153
1117:quantum/rgblight.c ****         low_bound  = 0;
 3018               		.loc 1 1117 9 is_stmt 1 view .LVU698
1117:quantum/rgblight.c ****         low_bound  = 0;
 3019               		.loc 1 1117 20 is_stmt 0 view .LVU699
 3020 0014 81E0      		ldi r24,lo8(1)
 3021 0016 8C83      		std Y+4,r24
1118:quantum/rgblight.c ****         high_bound = RGBLIGHT_EFFECT_KNIGHT_LENGTH - 1;
 3022               		.loc 1 1118 9 is_stmt 1 view .LVU700
1118:quantum/rgblight.c ****         high_bound = RGBLIGHT_EFFECT_KNIGHT_LENGTH - 1;
 3023               		.loc 1 1118 20 is_stmt 0 view .LVU701
 3024 0018 1092 0000 		sts low_bound.3415,__zero_reg__
1119:quantum/rgblight.c ****         increment  = 1;
 3025               		.loc 1 1119 9 is_stmt 1 view .LVU702
1119:quantum/rgblight.c ****         increment  = 1;
 3026               		.loc 1 1119 20 is_stmt 0 view .LVU703
 3027 001c 92E0      		ldi r25,lo8(2)
 3028 001e 9093 0000 		sts high_bound.3416,r25
1120:quantum/rgblight.c ****     }
 3029               		.loc 1 1120 9 is_stmt 1 view .LVU704
1120:quantum/rgblight.c ****     }
 3030               		.loc 1 1120 20 is_stmt 0 view .LVU705
 3031 0022 8093 0000 		sts increment.3417,r24
 3032               	.L153:
1124:quantum/rgblight.c ****         led[i].r = 0;
 3033               		.loc 1 1124 5 is_stmt 1 view .LVU706
1124:quantum/rgblight.c ****         led[i].r = 0;
 3034               		.loc 1 1124 12 is_stmt 0 view .LVU707
 3035 0026 8091 0000 		lds r24,rgblight_ranges+2
 3036               	.LVL195:
1124:quantum/rgblight.c ****         led[i].r = 0;
 3037               		.loc 1 1124 67 view .LVU708
 3038 002a 9091 0000 		lds r25,rgblight_ranges+3
 3039 002e 23E0      		ldi r18,lo8(3)
 3040 0030 829F      		mul r24,r18
 3041 0032 F001      		movw r30,r0
 3042 0034 1124      		clr __zero_reg__
 3043 0036 E050      		subi r30,lo8(-(led))
 3044 0038 F040      		sbci r31,hi8(-(led))
 3045               	.L154:
1124:quantum/rgblight.c ****         led[i].r = 0;
 3046               		.loc 1 1124 48 is_stmt 1 discriminator 1 view .LVU709
1124:quantum/rgblight.c ****         led[i].r = 0;
 3047               		.loc 1 1124 5 is_stmt 0 discriminator 1 view .LVU710
 3048 003a 8917      		cp r24,r25
 3049 003c 00F0      		brlo .L155
1133:quantum/rgblight.c ****         cur = (i + RGBLIGHT_EFFECT_KNIGHT_OFFSET) % rgblight_ranges.effect_num_leds + rgblight_rang
 3050               		.loc 1 1133 12 view .LVU711
 3051 003e 10E0      		ldi r17,0
1137:quantum/rgblight.c ****         } else {
 3052               		.loc 1 1137 13 view .LVU712
 3053 0040 03E0      		ldi r16,lo8(3)
 3054               	.LVL196:
 3055               	.L156:
1133:quantum/rgblight.c ****         cur = (i + RGBLIGHT_EFFECT_KNIGHT_OFFSET) % rgblight_ranges.effect_num_leds + rgblight_rang
 3056               		.loc 1 1133 17 is_stmt 1 discriminator 1 view .LVU713
1133:quantum/rgblight.c ****         cur = (i + RGBLIGHT_EFFECT_KNIGHT_OFFSET) % rgblight_ranges.effect_num_leds + rgblight_rang
 3057               		.loc 1 1133 21 is_stmt 0 discriminator 1 view .LVU714
 3058 0042 6091 0000 		lds r22,rgblight_ranges+4
1133:quantum/rgblight.c ****         cur = (i + RGBLIGHT_EFFECT_KNIGHT_OFFSET) % rgblight_ranges.effect_num_leds + rgblight_rang
 3059               		.loc 1 1133 5 discriminator 1 view .LVU715
 3060 0046 1617      		cp r17,r22
 3061 0048 00F0      		brlo .L159
1147:quantum/rgblight.c **** 
 3062               		.loc 1 1147 5 is_stmt 1 view .LVU716
 3063 004a 0E94 0000 		call rgblight_set
 3064               	.LVL197:
1151:quantum/rgblight.c ****     high_bound += increment;
 3065               		.loc 1 1151 5 view .LVU717
1151:quantum/rgblight.c ****     high_bound += increment;
 3066               		.loc 1 1151 15 is_stmt 0 view .LVU718
 3067 004e 8091 0000 		lds r24,increment.3417
 3068 0052 2091 0000 		lds r18,low_bound.3415
 3069 0056 280F      		add r18,r24
 3070 0058 2093 0000 		sts low_bound.3415,r18
1152:quantum/rgblight.c **** 
 3071               		.loc 1 1152 5 is_stmt 1 view .LVU719
1152:quantum/rgblight.c **** 
 3072               		.loc 1 1152 16 is_stmt 0 view .LVU720
 3073 005c 9091 0000 		lds r25,high_bound.3416
 3074 0060 980F      		add r25,r24
 3075 0062 9093 0000 		sts high_bound.3416,r25
1154:quantum/rgblight.c ****         increment = -increment;
 3076               		.loc 1 1154 5 is_stmt 1 view .LVU721
1154:quantum/rgblight.c ****         increment = -increment;
 3077               		.loc 1 1154 8 is_stmt 0 view .LVU722
 3078 0066 1916      		cp __zero_reg__,r25
 3079 0068 04F4      		brge .L160
1154:quantum/rgblight.c ****         increment = -increment;
 3080               		.loc 1 1154 38 discriminator 1 view .LVU723
 3081 006a 022E      		mov __tmp_reg__,r18
 3082 006c 000C      		lsl r0
 3083 006e 330B      		sbc r19,r19
1154:quantum/rgblight.c ****         increment = -increment;
 3084               		.loc 1 1154 41 discriminator 1 view .LVU724
 3085 0070 4091 0000 		lds r20,rgblight_ranges+4
1154:quantum/rgblight.c ****         increment = -increment;
 3086               		.loc 1 1154 72 discriminator 1 view .LVU725
 3087 0074 4150      		subi r20,1
 3088 0076 550B      		sbc r21,r21
1154:quantum/rgblight.c ****         increment = -increment;
 3089               		.loc 1 1154 25 discriminator 1 view .LVU726
 3090 0078 2417      		cp r18,r20
 3091 007a 3507      		cpc r19,r21
 3092 007c 04F0      		brlt .L152
 3093               	.L160:
1155:quantum/rgblight.c **** #    if defined(RGBLIGHT_SPLIT) && !defined(RGBLIGHT_SPLIT_NO_ANIMATION_SYNC)
 3094               		.loc 1 1155 9 is_stmt 1 view .LVU727
1155:quantum/rgblight.c **** #    if defined(RGBLIGHT_SPLIT) && !defined(RGBLIGHT_SPLIT_NO_ANIMATION_SYNC)
 3095               		.loc 1 1155 19 is_stmt 0 view .LVU728
 3096 007e 8195      		neg r24
 3097 0080 8093 0000 		sts increment.3417,r24
1157:quantum/rgblight.c ****             anim->pos = 0;
 3098               		.loc 1 1157 9 is_stmt 1 view .LVU729
1157:quantum/rgblight.c ****             anim->pos = 0;
 3099               		.loc 1 1157 12 is_stmt 0 view .LVU730
 3100 0084 8130      		cpi r24,lo8(1)
 3101 0086 01F4      		brne .L152
1158:quantum/rgblight.c ****         }
 3102               		.loc 1 1158 13 is_stmt 1 view .LVU731
1158:quantum/rgblight.c ****         }
 3103               		.loc 1 1158 23 is_stmt 0 view .LVU732
 3104 0088 1C82      		std Y+4,__zero_reg__
 3105               	.L152:
 3106               	/* epilogue start */
1162:quantum/rgblight.c **** #endif
 3107               		.loc 1 1162 1 view .LVU733
 3108 008a DF91      		pop r29
 3109 008c CF91      		pop r28
 3110               	.LVL198:
1162:quantum/rgblight.c **** #endif
 3111               		.loc 1 1162 1 view .LVU734
 3112 008e 1F91      		pop r17
 3113               	.LVL199:
1162:quantum/rgblight.c **** #endif
 3114               		.loc 1 1162 1 view .LVU735
 3115 0090 0F91      		pop r16
 3116 0092 FF90      		pop r15
 3117 0094 EF90      		pop r14
 3118 0096 0895      		ret
 3119               	.LVL200:
 3120               	.L155:
1125:quantum/rgblight.c ****         led[i].g = 0;
 3121               		.loc 1 1125 9 is_stmt 1 discriminator 3 view .LVU736
1125:quantum/rgblight.c ****         led[i].g = 0;
 3122               		.loc 1 1125 18 is_stmt 0 discriminator 3 view .LVU737
 3123 0098 1182      		std Z+1,__zero_reg__
1126:quantum/rgblight.c ****         led[i].b = 0;
 3124               		.loc 1 1126 9 is_stmt 1 discriminator 3 view .LVU738
1126:quantum/rgblight.c ****         led[i].b = 0;
 3125               		.loc 1 1126 18 is_stmt 0 discriminator 3 view .LVU739
 3126 009a 1082      		st Z,__zero_reg__
1127:quantum/rgblight.c **** #    ifdef RGBW
 3127               		.loc 1 1127 9 is_stmt 1 discriminator 3 view .LVU740
1127:quantum/rgblight.c **** #    ifdef RGBW
 3128               		.loc 1 1127 18 is_stmt 0 discriminator 3 view .LVU741
 3129 009c 1282      		std Z+2,__zero_reg__
1124:quantum/rgblight.c ****         led[i].r = 0;
 3130               		.loc 1 1124 84 is_stmt 1 discriminator 3 view .LVU742
1124:quantum/rgblight.c ****         led[i].r = 0;
 3131               		.loc 1 1124 85 is_stmt 0 discriminator 3 view .LVU743
 3132 009e 8F5F      		subi r24,lo8(-(1))
 3133               	.LVL201:
1124:quantum/rgblight.c ****         led[i].r = 0;
 3134               		.loc 1 1124 85 discriminator 3 view .LVU744
 3135 00a0 3396      		adiw r30,3
 3136 00a2 00C0      		rjmp .L154
 3137               	.LVL202:
 3138               	.L159:
1134:quantum/rgblight.c **** 
 3139               		.loc 1 1134 9 is_stmt 1 view .LVU745
1134:quantum/rgblight.c **** 
 3140               		.loc 1 1134 18 is_stmt 0 view .LVU746
 3141 00a4 E12E      		mov r14,r17
 3142 00a6 F12C      		mov r15,__zero_reg__
1134:quantum/rgblight.c **** 
 3143               		.loc 1 1134 68 view .LVU747
 3144 00a8 70E0      		ldi r23,0
1134:quantum/rgblight.c **** 
 3145               		.loc 1 1134 51 view .LVU748
 3146 00aa C701      		movw r24,r14
 3147 00ac 0E94 0000 		call __divmodhi4
1134:quantum/rgblight.c **** 
 3148               		.loc 1 1134 13 view .LVU749
 3149 00b0 2091 0000 		lds r18,rgblight_ranges+2
 3150 00b4 820F      		add r24,r18
 3151               	.LVL203:
1136:quantum/rgblight.c ****             sethsv(rgblight_config.hue, rgblight_config.sat, rgblight_config.val, (LED_TYPE *)&led[
 3152               		.loc 1 1136 9 is_stmt 1 view .LVU750
 3153 00b6 482F      		mov r20,r24
 3154 00b8 50E0      		ldi r21,0
1136:quantum/rgblight.c ****             sethsv(rgblight_config.hue, rgblight_config.sat, rgblight_config.val, (LED_TYPE *)&led[
 3155               		.loc 1 1136 15 is_stmt 0 view .LVU751
 3156 00ba 2091 0000 		lds r18,low_bound.3415
 3157 00be 022E      		mov __tmp_reg__,r18
 3158 00c0 000C      		lsl r0
 3159 00c2 330B      		sbc r19,r19
1136:quantum/rgblight.c ****             sethsv(rgblight_config.hue, rgblight_config.sat, rgblight_config.val, (LED_TYPE *)&led[
 3160               		.loc 1 1136 12 view .LVU752
 3161 00c4 E216      		cp r14,r18
 3162 00c6 F306      		cpc r15,r19
 3163 00c8 04F0      		brlt .L157
 3164               	.LVL204:
1136:quantum/rgblight.c ****             sethsv(rgblight_config.hue, rgblight_config.sat, rgblight_config.val, (LED_TYPE *)&led[
 3165               		.loc 1 1136 33 discriminator 1 view .LVU753
 3166 00ca 2091 0000 		lds r18,high_bound.3416
 3167 00ce 022E      		mov __tmp_reg__,r18
 3168 00d0 000C      		lsl r0
 3169 00d2 330B      		sbc r19,r19
1136:quantum/rgblight.c ****             sethsv(rgblight_config.hue, rgblight_config.sat, rgblight_config.val, (LED_TYPE *)&led[
 3170               		.loc 1 1136 28 discriminator 1 view .LVU754
 3171 00d4 2E15      		cp r18,r14
 3172 00d6 3F05      		cpc r19,r15
 3173 00d8 04F0      		brlt .L157
1137:quantum/rgblight.c ****         } else {
 3174               		.loc 1 1137 13 is_stmt 1 view .LVU755
 3175 00da 809F      		mul r24,r16
 3176 00dc 9001      		movw r18,r0
 3177 00de 1124      		clr __zero_reg__
 3178 00e0 2050      		subi r18,lo8(-(led))
 3179 00e2 3040      		sbci r19,hi8(-(led))
 3180 00e4 4091 0000 		lds r20,rgblight_config+3
 3181 00e8 6091 0000 		lds r22,rgblight_config+2
 3182 00ec 8091 0000 		lds r24,rgblight_config+1
 3183               	.LVL205:
1137:quantum/rgblight.c ****         } else {
 3184               		.loc 1 1137 13 is_stmt 0 view .LVU756
 3185 00f0 0E94 0000 		call sethsv
 3186               	.LVL206:
 3187               	.L158:
1133:quantum/rgblight.c ****         cur = (i + RGBLIGHT_EFFECT_KNIGHT_OFFSET) % rgblight_ranges.effect_num_leds + rgblight_rang
 3188               		.loc 1 1133 53 is_stmt 1 discriminator 2 view .LVU757
1133:quantum/rgblight.c ****         cur = (i + RGBLIGHT_EFFECT_KNIGHT_OFFSET) % rgblight_ranges.effect_num_leds + rgblight_rang
 3189               		.loc 1 1133 54 is_stmt 0 discriminator 2 view .LVU758
 3190 00f4 1F5F      		subi r17,lo8(-(1))
 3191               	.LVL207:
1133:quantum/rgblight.c ****         cur = (i + RGBLIGHT_EFFECT_KNIGHT_OFFSET) % rgblight_ranges.effect_num_leds + rgblight_rang
 3192               		.loc 1 1133 54 discriminator 2 view .LVU759
 3193 00f6 00C0      		rjmp .L156
 3194               	.LVL208:
 3195               	.L157:
1139:quantum/rgblight.c ****             led[cur].g = 0;
 3196               		.loc 1 1139 13 is_stmt 1 view .LVU760
1139:quantum/rgblight.c ****             led[cur].g = 0;
 3197               		.loc 1 1139 24 is_stmt 0 view .LVU761
 3198 00f8 FA01      		movw r30,r20
 3199 00fa EE0F      		lsl r30
 3200 00fc FF1F      		rol r31
 3201 00fe E40F      		add r30,r20
 3202 0100 F51F      		adc r31,r21
 3203 0102 E050      		subi r30,lo8(-(led))
 3204 0104 F040      		sbci r31,hi8(-(led))
 3205 0106 1182      		std Z+1,__zero_reg__
1140:quantum/rgblight.c ****             led[cur].b = 0;
 3206               		.loc 1 1140 13 is_stmt 1 view .LVU762
1140:quantum/rgblight.c ****             led[cur].b = 0;
 3207               		.loc 1 1140 24 is_stmt 0 view .LVU763
 3208 0108 1082      		st Z,__zero_reg__
1141:quantum/rgblight.c **** #    ifdef RGBW
 3209               		.loc 1 1141 13 is_stmt 1 view .LVU764
1141:quantum/rgblight.c **** #    ifdef RGBW
 3210               		.loc 1 1141 24 is_stmt 0 view .LVU765
 3211 010a 1282      		std Z+2,__zero_reg__
 3212 010c 00C0      		rjmp .L158
 3213               		.cfi_endproc
 3214               	.LFE177:
 3216               		.section	.text.rgblight_effect_christmas,"ax",@progbits
 3217               	.global	rgblight_effect_christmas
 3219               	rgblight_effect_christmas:
 3220               	.LVL209:
 3221               	.LFB178:
1171:quantum/rgblight.c ****     static int8_t increment = 1;
 3222               		.loc 1 1171 58 is_stmt 1 view -0
 3223               		.cfi_startproc
1171:quantum/rgblight.c ****     static int8_t increment = 1;
 3224               		.loc 1 1171 58 is_stmt 0 view .LVU767
 3225 0000 8F92      		push r8
 3226               	.LCFI67:
 3227               		.cfi_def_cfa_offset 3
 3228               		.cfi_offset 8, -2
 3229 0002 9F92      		push r9
 3230               	.LCFI68:
 3231               		.cfi_def_cfa_offset 4
 3232               		.cfi_offset 9, -3
 3233 0004 AF92      		push r10
 3234               	.LCFI69:
 3235               		.cfi_def_cfa_offset 5
 3236               		.cfi_offset 10, -4
 3237 0006 BF92      		push r11
 3238               	.LCFI70:
 3239               		.cfi_def_cfa_offset 6
 3240               		.cfi_offset 11, -5
 3241 0008 CF92      		push r12
 3242               	.LCFI71:
 3243               		.cfi_def_cfa_offset 7
 3244               		.cfi_offset 12, -6
 3245 000a DF92      		push r13
 3246               	.LCFI72:
 3247               		.cfi_def_cfa_offset 8
 3248               		.cfi_offset 13, -7
 3249 000c EF92      		push r14
 3250               	.LCFI73:
 3251               		.cfi_def_cfa_offset 9
 3252               		.cfi_offset 14, -8
 3253 000e FF92      		push r15
 3254               	.LCFI74:
 3255               		.cfi_def_cfa_offset 10
 3256               		.cfi_offset 15, -9
 3257 0010 0F93      		push r16
 3258               	.LCFI75:
 3259               		.cfi_def_cfa_offset 11
 3260               		.cfi_offset 16, -10
 3261 0012 1F93      		push r17
 3262               	.LCFI76:
 3263               		.cfi_def_cfa_offset 12
 3264               		.cfi_offset 17, -11
 3265 0014 CF93      		push r28
 3266               	.LCFI77:
 3267               		.cfi_def_cfa_offset 13
 3268               		.cfi_offset 28, -12
 3269 0016 DF93      		push r29
 3270               	.LCFI78:
 3271               		.cfi_def_cfa_offset 14
 3272               		.cfi_offset 29, -13
 3273               	/* prologue: function */
 3274               	/* frame size = 0 */
 3275               	/* stack size = 12 */
 3276               	.L__stack_usage = 12
 3277 0018 EC01      		movw r28,r24
1172:quantum/rgblight.c ****     const uint8_t max_pos   = 32;
 3278               		.loc 1 1172 5 is_stmt 1 view .LVU768
1173:quantum/rgblight.c ****     const uint8_t hue_green = 85;
 3279               		.loc 1 1173 5 view .LVU769
 3280               	.LVL210:
1174:quantum/rgblight.c **** 
 3281               		.loc 1 1174 5 view .LVU770
1176:quantum/rgblight.c ****     uint8_t  hue, val;
 3282               		.loc 1 1176 5 view .LVU771
1177:quantum/rgblight.c ****     uint8_t  i;
 3283               		.loc 1 1177 5 view .LVU772
1178:quantum/rgblight.c **** 
 3284               		.loc 1 1178 5 view .LVU773
1182:quantum/rgblight.c ****     hue = ((uint32_t)hue_green) * xa / (xa + CUBED((uint32_t)(max_pos - anim->pos)));
 3285               		.loc 1 1182 5 view .LVU774
1182:quantum/rgblight.c ****     hue = ((uint32_t)hue_green) * xa / (xa + CUBED((uint32_t)(max_pos - anim->pos)));
 3286               		.loc 1 1182 11 is_stmt 0 view .LVU775
 3287 001a 4C81      		ldd r20,Y+4
 3288 001c 042F      		mov r16,r20
 3289 001e 10E0      		ldi r17,0
 3290 0020 9801      		movw r18,r16
 3291 0022 D801      		movw r26,r16
 3292 0024 0E94 0000 		call __umulhisi3
1182:quantum/rgblight.c ****     hue = ((uint32_t)hue_green) * xa / (xa + CUBED((uint32_t)(max_pos - anim->pos)));
 3293               		.loc 1 1182 9 view .LVU776
 3294 0028 9B01      		movw r18,r22
 3295 002a AC01      		movw r20,r24
 3296 002c 0E94 0000 		call __muluhisi3
 3297 0030 4B01      		movw r8,r22
 3298 0032 5C01      		movw r10,r24
 3299               	.LVL211:
1183:quantum/rgblight.c ****     // Additionally, these interpolated colors get shown with a slightly darker value, to make them
 3300               		.loc 1 1183 5 is_stmt 1 view .LVU777
1183:quantum/rgblight.c ****     // Additionally, these interpolated colors get shown with a slightly darker value, to make them
 3301               		.loc 1 1183 46 is_stmt 0 view .LVU778
 3302 0034 E0E2      		ldi r30,lo8(32)
 3303 0036 F0E0      		ldi r31,0
 3304 0038 E01B      		sub r30,r16
 3305 003a F10B      		sbc r31,r17
1183:quantum/rgblight.c ****     // Additionally, these interpolated colors get shown with a slightly darker value, to make them
 3306               		.loc 1 1183 33 view .LVU779
 3307 003c A5E5      		ldi r26,lo8(85)
 3308 003e B0E0      		ldi r27,0
 3309 0040 AC01      		movw r20,r24
 3310 0042 9B01      		movw r18,r22
 3311 0044 0E94 0000 		call __muluhisi3
 3312 0048 6B01      		movw r12,r22
 3313 004a 7C01      		movw r14,r24
1183:quantum/rgblight.c ****     // Additionally, these interpolated colors get shown with a slightly darker value, to make them
 3314               		.loc 1 1183 46 view .LVU780
 3315 004c 9F01      		movw r18,r30
 3316 004e DF01      		movw r26,r30
 3317 0050 0E94 0000 		call __mulhisi3
 3318 0054 9B01      		movw r18,r22
 3319 0056 AC01      		movw r20,r24
 3320 0058 0E94 0000 		call __mulshisi3
1183:quantum/rgblight.c ****     // Additionally, these interpolated colors get shown with a slightly darker value, to make them
 3321               		.loc 1 1183 44 view .LVU781
 3322 005c 9B01      		movw r18,r22
 3323 005e AC01      		movw r20,r24
 3324 0060 280D      		add r18,r8
 3325 0062 391D      		adc r19,r9
 3326 0064 4A1D      		adc r20,r10
 3327 0066 5B1D      		adc r21,r11
1183:quantum/rgblight.c ****     // Additionally, these interpolated colors get shown with a slightly darker value, to make them
 3328               		.loc 1 1183 38 view .LVU782
 3329 0068 C701      		movw r24,r14
 3330               	.LVL212:
1183:quantum/rgblight.c ****     // Additionally, these interpolated colors get shown with a slightly darker value, to make them
 3331               		.loc 1 1183 38 view .LVU783
 3332 006a B601      		movw r22,r12
 3333 006c 0E94 0000 		call __udivmodsi4
1183:quantum/rgblight.c ****     // Additionally, these interpolated colors get shown with a slightly darker value, to make them
 3334               		.loc 1 1183 9 view .LVU784
 3335 0070 F22E      		mov r15,r18
 3336               	.LVL213:
1185:quantum/rgblight.c **** 
 3337               		.loc 1 1185 5 is_stmt 1 view .LVU785
 3338 0072 822F      		mov r24,r18
 3339 0074 90E0      		ldi r25,0
1185:quantum/rgblight.c **** 
 3340               		.loc 1 1185 9 is_stmt 0 view .LVU786
 3341 0076 39E2      		ldi r19,lo8(41)
 3342 0078 3F15      		cp r19,r15
 3343 007a 00F0      		brlo .L164
 3344               	.LVL214:
1185:quantum/rgblight.c **** 
 3345               		.loc 1 1185 20 discriminator 1 view .LVU787
 3346 007c 43E0      		ldi r20,lo8(3)
 3347 007e 249F      		mul r18,r20
 3348 0080 9001      		movw r18,r0
 3349 0082 1124      		clr __zero_reg__
 3350               	.L167:
1185:quantum/rgblight.c **** 
 3351               		.loc 1 1185 68 discriminator 2 view .LVU788
 3352 0084 3595      		asr r19
 3353 0086 2795      		ror r18
1185:quantum/rgblight.c **** 
 3354               		.loc 1 1185 9 discriminator 2 view .LVU789
 3355 0088 122F      		mov r17,r18
 3356 008a 1095      		com r17
 3357               	.LVL215:
1187:quantum/rgblight.c ****         uint8_t local_hue = (i / RGBLIGHT_EFFECT_CHRISTMAS_STEP) % 2 ? hue : hue_green - hue;
 3358               		.loc 1 1187 5 is_stmt 1 discriminator 2 view .LVU790
1187:quantum/rgblight.c ****         uint8_t local_hue = (i / RGBLIGHT_EFFECT_CHRISTMAS_STEP) % 2 ? hue : hue_green - hue;
 3359               		.loc 1 1187 12 is_stmt 0 discriminator 2 view .LVU791
 3360 008c 00E0      		ldi r16,0
 3361               	.LBB58:
1188:quantum/rgblight.c ****         sethsv(local_hue, rgblight_config.sat, val, (LED_TYPE *)&led[i + rgblight_ranges.effect_sta
 3362               		.loc 1 1188 17 discriminator 2 view .LVU792
 3363 008e 85E5      		ldi r24,lo8(85)
 3364 0090 E82E      		mov r14,r24
 3365 0092 EF18      		sub r14,r15
 3366               	.LVL216:
 3367               	.L168:
1188:quantum/rgblight.c ****         sethsv(local_hue, rgblight_config.sat, val, (LED_TYPE *)&led[i + rgblight_ranges.effect_sta
 3368               		.loc 1 1188 17 discriminator 2 view .LVU793
 3369               	.LBE58:
1187:quantum/rgblight.c ****         uint8_t local_hue = (i / RGBLIGHT_EFFECT_CHRISTMAS_STEP) % 2 ? hue : hue_green - hue;
 3370               		.loc 1 1187 17 is_stmt 1 discriminator 2 view .LVU794
1187:quantum/rgblight.c ****         uint8_t local_hue = (i / RGBLIGHT_EFFECT_CHRISTMAS_STEP) % 2 ? hue : hue_green - hue;
 3371               		.loc 1 1187 5 is_stmt 0 discriminator 2 view .LVU795
 3372 0094 8091 0000 		lds r24,rgblight_ranges+4
 3373 0098 0817      		cp r16,r24
 3374 009a 00F0      		brlo .L170
1191:quantum/rgblight.c **** 
 3375               		.loc 1 1191 5 is_stmt 1 view .LVU796
 3376 009c 0E94 0000 		call rgblight_set
 3377               	.LVL217:
1193:quantum/rgblight.c ****         increment = 1;
 3378               		.loc 1 1193 5 view .LVU797
1193:quantum/rgblight.c ****         increment = 1;
 3379               		.loc 1 1193 13 is_stmt 0 view .LVU798
 3380 00a0 9C81      		ldd r25,Y+4
1194:quantum/rgblight.c ****     } else if (anim->pos == max_pos) {
 3381               		.loc 1 1194 19 view .LVU799
 3382 00a2 81E0      		ldi r24,lo8(1)
1193:quantum/rgblight.c ****         increment = 1;
 3383               		.loc 1 1193 8 view .LVU800
 3384 00a4 9923      		tst r25
 3385 00a6 01F0      		breq .L174
1195:quantum/rgblight.c ****         increment = -1;
 3386               		.loc 1 1195 12 is_stmt 1 view .LVU801
1195:quantum/rgblight.c ****         increment = -1;
 3387               		.loc 1 1195 15 is_stmt 0 view .LVU802
 3388 00a8 9032      		cpi r25,lo8(32)
 3389 00aa 01F4      		brne .L172
1196:quantum/rgblight.c ****     }
 3390               		.loc 1 1196 9 is_stmt 1 view .LVU803
1196:quantum/rgblight.c ****     }
 3391               		.loc 1 1196 19 is_stmt 0 view .LVU804
 3392 00ac 8FEF      		ldi r24,lo8(-1)
 3393               	.L174:
 3394 00ae 8093 0000 		sts increment.3429,r24
 3395               	.L172:
1198:quantum/rgblight.c **** }
 3396               		.loc 1 1198 5 is_stmt 1 view .LVU805
1198:quantum/rgblight.c **** }
 3397               		.loc 1 1198 15 is_stmt 0 view .LVU806
 3398 00b2 8091 0000 		lds r24,increment.3429
 3399 00b6 890F      		add r24,r25
 3400 00b8 8C83      		std Y+4,r24
 3401               	/* epilogue start */
1199:quantum/rgblight.c **** #endif
 3402               		.loc 1 1199 1 view .LVU807
 3403 00ba DF91      		pop r29
 3404 00bc CF91      		pop r28
 3405 00be 1F91      		pop r17
 3406               	.LVL218:
1199:quantum/rgblight.c **** #endif
 3407               		.loc 1 1199 1 view .LVU808
 3408 00c0 0F91      		pop r16
 3409               	.LVL219:
1199:quantum/rgblight.c **** #endif
 3410               		.loc 1 1199 1 view .LVU809
 3411 00c2 FF90      		pop r15
 3412               	.LVL220:
1199:quantum/rgblight.c **** #endif
 3413               		.loc 1 1199 1 view .LVU810
 3414 00c4 EF90      		pop r14
 3415 00c6 DF90      		pop r13
 3416 00c8 CF90      		pop r12
 3417 00ca BF90      		pop r11
 3418 00cc AF90      		pop r10
 3419               	.LVL221:
1199:quantum/rgblight.c **** #endif
 3420               		.loc 1 1199 1 view .LVU811
 3421 00ce 9F90      		pop r9
 3422 00d0 8F90      		pop r8
 3423               	.LVL222:
1199:quantum/rgblight.c **** #endif
 3424               		.loc 1 1199 1 view .LVU812
 3425 00d2 0895      		ret
 3426               	.LVL223:
 3427               	.L164:
1185:quantum/rgblight.c **** 
 3428               		.loc 1 1185 61 discriminator 2 view .LVU813
 3429 00d4 25E5      		ldi r18,lo8(85)
 3430 00d6 30E0      		ldi r19,0
 3431 00d8 B901      		movw r22,r18
 3432 00da 681B      		sub r22,r24
 3433 00dc 790B      		sbc r23,r25
1185:quantum/rgblight.c **** 
 3434               		.loc 1 1185 20 discriminator 2 view .LVU814
 3435 00de 9B01      		movw r18,r22
 3436 00e0 220F      		lsl r18
 3437 00e2 331F      		rol r19
 3438 00e4 260F      		add r18,r22
 3439 00e6 371F      		adc r19,r23
1185:quantum/rgblight.c **** 
 3440               		.loc 1 1185 68 discriminator 2 view .LVU815
 3441 00e8 37FF      		sbrs r19,7
 3442 00ea 00C0      		rjmp .L167
 3443 00ec 2F5F      		subi r18,-1
 3444 00ee 3F4F      		sbci r19,-1
 3445 00f0 00C0      		rjmp .L167
 3446               	.LVL224:
 3447               	.L170:
 3448               	.LBB59:
1188:quantum/rgblight.c ****         sethsv(local_hue, rgblight_config.sat, val, (LED_TYPE *)&led[i + rgblight_ranges.effect_sta
 3449               		.loc 1 1188 9 is_stmt 1 view .LVU816
1188:quantum/rgblight.c ****         sethsv(local_hue, rgblight_config.sat, val, (LED_TYPE *)&led[i + rgblight_ranges.effect_sta
 3450               		.loc 1 1188 17 is_stmt 0 view .LVU817
 3451 00f2 8E2D      		mov r24,r14
 3452 00f4 01FD      		sbrc r16,1
 3453               	.LBE59:
1183:quantum/rgblight.c ****     // Additionally, these interpolated colors get shown with a slightly darker value, to make them
 3454               		.loc 1 1183 9 view .LVU818
 3455 00f6 8F2D      		mov r24,r15
 3456               	.L169:
 3457               	.LVL225:
 3458               	.LBB60:
1189:quantum/rgblight.c ****     }
 3459               		.loc 1 1189 9 is_stmt 1 discriminator 4 view .LVU819
1189:quantum/rgblight.c ****     }
 3460               		.loc 1 1189 89 is_stmt 0 discriminator 4 view .LVU820
 3461 00f8 2091 0000 		lds r18,rgblight_ranges+2
1189:quantum/rgblight.c ****     }
 3462               		.loc 1 1189 72 discriminator 4 view .LVU821
 3463 00fc 622F      		mov r22,r18
 3464 00fe 600F      		add r22,r16
 3465 0100 7727      		clr r23
 3466 0102 771F      		rol r23
1189:quantum/rgblight.c ****     }
 3467               		.loc 1 1189 9 discriminator 4 view .LVU822
 3468 0104 9B01      		movw r18,r22
 3469 0106 220F      		lsl r18
 3470 0108 331F      		rol r19
 3471 010a 260F      		add r18,r22
 3472 010c 371F      		adc r19,r23
 3473 010e 2050      		subi r18,lo8(-(led))
 3474 0110 3040      		sbci r19,hi8(-(led))
 3475 0112 412F      		mov r20,r17
 3476 0114 6091 0000 		lds r22,rgblight_config+2
 3477 0118 0E94 0000 		call sethsv
 3478               	.LVL226:
1189:quantum/rgblight.c ****     }
 3479               		.loc 1 1189 9 discriminator 4 view .LVU823
 3480               	.LBE60:
1187:quantum/rgblight.c ****         uint8_t local_hue = (i / RGBLIGHT_EFFECT_CHRISTMAS_STEP) % 2 ? hue : hue_green - hue;
 3481               		.loc 1 1187 54 is_stmt 1 discriminator 4 view .LVU824
1187:quantum/rgblight.c ****         uint8_t local_hue = (i / RGBLIGHT_EFFECT_CHRISTMAS_STEP) % 2 ? hue : hue_green - hue;
 3482               		.loc 1 1187 55 is_stmt 0 discriminator 4 view .LVU825
 3483 011c 0F5F      		subi r16,lo8(-(1))
 3484               	.LVL227:
1187:quantum/rgblight.c ****         uint8_t local_hue = (i / RGBLIGHT_EFFECT_CHRISTMAS_STEP) % 2 ? hue : hue_green - hue;
 3485               		.loc 1 1187 55 discriminator 4 view .LVU826
 3486 011e 00C0      		rjmp .L168
 3487               		.cfi_endproc
 3488               	.LFE178:
 3490               		.section	.text.rgblight_effect_alternating,"ax",@progbits
 3491               	.global	rgblight_effect_alternating
 3493               	rgblight_effect_alternating:
 3494               	.LVL228:
 3495               	.LFB180:
1231:quantum/rgblight.c **** #endif
1232:quantum/rgblight.c **** 
1233:quantum/rgblight.c **** #ifdef RGBLIGHT_EFFECT_ALTERNATING
1234:quantum/rgblight.c **** void rgblight_effect_alternating(animation_status_t *anim) {
 3496               		.loc 1 1234 60 is_stmt 1 view -0
 3497               		.cfi_startproc
 3498               		.loc 1 1234 60 is_stmt 0 view .LVU828
 3499 0000 0F93      		push r16
 3500               	.LCFI79:
 3501               		.cfi_def_cfa_offset 3
 3502               		.cfi_offset 16, -2
 3503 0002 1F93      		push r17
 3504               	.LCFI80:
 3505               		.cfi_def_cfa_offset 4
 3506               		.cfi_offset 17, -3
 3507 0004 CF93      		push r28
 3508               	.LCFI81:
 3509               		.cfi_def_cfa_offset 5
 3510               		.cfi_offset 28, -4
 3511 0006 DF93      		push r29
 3512               	.LCFI82:
 3513               		.cfi_def_cfa_offset 6
 3514               		.cfi_offset 29, -5
 3515               	/* prologue: function */
 3516               	/* frame size = 0 */
 3517               	/* stack size = 4 */
 3518               	.L__stack_usage = 4
 3519 0008 EC01      		movw r28,r24
1235:quantum/rgblight.c ****     for (int i = 0; i < rgblight_ranges.effect_num_leds; i++) {
 3520               		.loc 1 1235 5 is_stmt 1 view .LVU829
 3521               	.LBB61:
 3522               		.loc 1 1235 10 view .LVU830
 3523               	.LVL229:
 3524               		.loc 1 1235 14 is_stmt 0 view .LVU831
 3525 000a 10E0      		ldi r17,0
 3526 000c 00E0      		ldi r16,0
 3527               	.LVL230:
 3528               	.L176:
 3529               		.loc 1 1235 21 is_stmt 1 discriminator 1 view .LVU832
 3530               		.loc 1 1235 40 is_stmt 0 discriminator 1 view .LVU833
 3531 000e 9091 0000 		lds r25,rgblight_ranges+4
 3532               		.loc 1 1235 5 discriminator 1 view .LVU834
 3533 0012 9017      		cp r25,r16
 3534 0014 1106      		cpc __zero_reg__,r17
 3535 0016 01F0      		breq .+2
 3536 0018 04F4      		brge .L180
 3537               	.LBE61:
1236:quantum/rgblight.c ****         LED_TYPE *ledp = led + i + rgblight_ranges.effect_start_pos;
1237:quantum/rgblight.c ****         if (i < rgblight_ranges.effect_num_leds / 2 && anim->pos) {
1238:quantum/rgblight.c ****             sethsv(rgblight_config.hue, rgblight_config.sat, rgblight_config.val, ledp);
1239:quantum/rgblight.c ****         } else if (i >= rgblight_ranges.effect_num_leds / 2 && !anim->pos) {
1240:quantum/rgblight.c ****             sethsv(rgblight_config.hue, rgblight_config.sat, rgblight_config.val, ledp);
1241:quantum/rgblight.c ****         } else {
1242:quantum/rgblight.c ****             sethsv(rgblight_config.hue, rgblight_config.sat, 0, ledp);
1243:quantum/rgblight.c ****         }
1244:quantum/rgblight.c ****     }
1245:quantum/rgblight.c ****     rgblight_set();
 3538               		.loc 1 1245 5 is_stmt 1 view .LVU835
 3539 001a 0E94 0000 		call rgblight_set
 3540               	.LVL231:
1246:quantum/rgblight.c ****     anim->pos = (anim->pos + 1) % 2;
 3541               		.loc 1 1246 5 view .LVU836
 3542               		.loc 1 1246 22 is_stmt 0 view .LVU837
 3543 001e 8C81      		ldd r24,Y+4
 3544 0020 90E0      		ldi r25,0
 3545               		.loc 1 1246 28 view .LVU838
 3546 0022 0196      		adiw r24,1
 3547               		.loc 1 1246 33 view .LVU839
 3548 0024 8170      		andi r24,1
 3549 0026 9927      		clr r25
 3550               		.loc 1 1246 15 view .LVU840
 3551 0028 8C83      		std Y+4,r24
 3552               	/* epilogue start */
1247:quantum/rgblight.c **** }
 3553               		.loc 1 1247 1 view .LVU841
 3554 002a DF91      		pop r29
 3555 002c CF91      		pop r28
 3556               	.LVL232:
 3557               		.loc 1 1247 1 view .LVU842
 3558 002e 1F91      		pop r17
 3559 0030 0F91      		pop r16
 3560               	.LVL233:
 3561               		.loc 1 1247 1 view .LVU843
 3562 0032 0895      		ret
 3563               	.LVL234:
 3564               	.L180:
 3565               	.LBB64:
 3566               	.LBB62:
1236:quantum/rgblight.c ****         LED_TYPE *ledp = led + i + rgblight_ranges.effect_start_pos;
 3567               		.loc 1 1236 9 is_stmt 1 view .LVU844
1236:quantum/rgblight.c ****         LED_TYPE *ledp = led + i + rgblight_ranges.effect_start_pos;
 3568               		.loc 1 1236 34 is_stmt 0 view .LVU845
 3569 0034 2091 0000 		lds r18,rgblight_ranges+2
 3570 0038 A801      		movw r20,r16
 3571 003a 420F      		add r20,r18
 3572 003c 511D      		adc r21,__zero_reg__
 3573 003e 9A01      		movw r18,r20
 3574 0040 220F      		lsl r18
 3575 0042 331F      		rol r19
 3576 0044 240F      		add r18,r20
 3577 0046 351F      		adc r19,r21
1236:quantum/rgblight.c ****         LED_TYPE *ledp = led + i + rgblight_ranges.effect_start_pos;
 3578               		.loc 1 1236 19 view .LVU846
 3579 0048 2050      		subi r18,lo8(-(led))
 3580 004a 3040      		sbci r19,hi8(-(led))
 3581               	.LVL235:
1237:quantum/rgblight.c ****             sethsv(rgblight_config.hue, rgblight_config.sat, rgblight_config.val, ledp);
 3582               		.loc 1 1237 9 is_stmt 1 view .LVU847
 3583 004c 4C81      		ldd r20,Y+4
 3584 004e 6091 0000 		lds r22,rgblight_config+2
 3585 0052 8091 0000 		lds r24,rgblight_config+1
1237:quantum/rgblight.c ****             sethsv(rgblight_config.hue, rgblight_config.sat, rgblight_config.val, ledp);
 3586               		.loc 1 1237 49 is_stmt 0 view .LVU848
 3587 0056 9695      		lsr r25
1237:quantum/rgblight.c ****             sethsv(rgblight_config.hue, rgblight_config.sat, rgblight_config.val, ledp);
 3588               		.loc 1 1237 12 view .LVU849
 3589 0058 9017      		cp r25,r16
 3590 005a 1106      		cpc __zero_reg__,r17
 3591 005c 01F0      		breq .L177
 3592 005e 04F0      		brlt .L177
1237:quantum/rgblight.c ****             sethsv(rgblight_config.hue, rgblight_config.sat, rgblight_config.val, ledp);
 3593               		.loc 1 1237 53 discriminator 1 view .LVU850
 3594 0060 4423      		tst r20
 3595 0062 01F0      		breq .L178
 3596               	.L185:
1240:quantum/rgblight.c ****         } else {
 3597               		.loc 1 1240 13 is_stmt 1 view .LVU851
 3598 0064 4091 0000 		lds r20,rgblight_config+3
 3599               	.L184:
1242:quantum/rgblight.c ****         }
 3600               		.loc 1 1242 13 is_stmt 0 view .LVU852
 3601 0068 0E94 0000 		call sethsv
 3602               	.LVL236:
1242:quantum/rgblight.c ****         }
 3603               		.loc 1 1242 13 view .LVU853
 3604               	.LBE62:
1235:quantum/rgblight.c ****         LED_TYPE *ledp = led + i + rgblight_ranges.effect_start_pos;
 3605               		.loc 1 1235 58 is_stmt 1 view .LVU854
1235:quantum/rgblight.c ****         LED_TYPE *ledp = led + i + rgblight_ranges.effect_start_pos;
 3606               		.loc 1 1235 59 is_stmt 0 view .LVU855
 3607 006c 0F5F      		subi r16,-1
 3608 006e 1F4F      		sbci r17,-1
 3609               	.LVL237:
1235:quantum/rgblight.c ****         LED_TYPE *ledp = led + i + rgblight_ranges.effect_start_pos;
 3610               		.loc 1 1235 59 view .LVU856
 3611 0070 00C0      		rjmp .L176
 3612               	.LVL238:
 3613               	.L177:
 3614               	.LBB63:
1239:quantum/rgblight.c ****             sethsv(rgblight_config.hue, rgblight_config.sat, rgblight_config.val, ledp);
 3615               		.loc 1 1239 16 is_stmt 1 discriminator 1 view .LVU857
1239:quantum/rgblight.c ****             sethsv(rgblight_config.hue, rgblight_config.sat, rgblight_config.val, ledp);
 3616               		.loc 1 1239 61 is_stmt 0 discriminator 1 view .LVU858
 3617 0072 4423      		tst r20
 3618 0074 01F0      		breq .L185
 3619               	.L178:
1242:quantum/rgblight.c ****         }
 3620               		.loc 1 1242 13 is_stmt 1 view .LVU859
 3621 0076 40E0      		ldi r20,0
 3622 0078 00C0      		rjmp .L184
 3623               	.LBE63:
 3624               	.LBE64:
 3625               		.cfi_endproc
 3626               	.LFE180:
 3628               		.section	.text.rgblight_effect_twinkle,"ax",@progbits
 3629               	.global	rgblight_effect_twinkle
 3631               	rgblight_effect_twinkle:
 3632               	.LVL239:
 3633               	.LFB181:
1248:quantum/rgblight.c **** #endif
1249:quantum/rgblight.c **** 
1250:quantum/rgblight.c **** #ifdef RGBLIGHT_EFFECT_TWINKLE
1251:quantum/rgblight.c **** __attribute__((weak)) const uint8_t RGBLED_TWINKLE_INTERVALS[] PROGMEM = {50, 25, 10};
1252:quantum/rgblight.c **** 
1253:quantum/rgblight.c **** typedef struct PACKED {
1254:quantum/rgblight.c ****     HSV     hsv;
1255:quantum/rgblight.c ****     uint8_t life;
1256:quantum/rgblight.c ****     bool    up;
1257:quantum/rgblight.c **** } TwinkleState;
1258:quantum/rgblight.c **** 
1259:quantum/rgblight.c **** static TwinkleState led_twinkle_state[RGBLED_NUM];
1260:quantum/rgblight.c **** 
1261:quantum/rgblight.c **** void rgblight_effect_twinkle(animation_status_t *anim) {
 3634               		.loc 1 1261 56 view -0
 3635               		.cfi_startproc
 3636               		.loc 1 1261 56 is_stmt 0 view .LVU861
 3637 0000 8F92      		push r8
 3638               	.LCFI83:
 3639               		.cfi_def_cfa_offset 3
 3640               		.cfi_offset 8, -2
 3641 0002 9F92      		push r9
 3642               	.LCFI84:
 3643               		.cfi_def_cfa_offset 4
 3644               		.cfi_offset 9, -3
 3645 0004 AF92      		push r10
 3646               	.LCFI85:
 3647               		.cfi_def_cfa_offset 5
 3648               		.cfi_offset 10, -4
 3649 0006 BF92      		push r11
 3650               	.LCFI86:
 3651               		.cfi_def_cfa_offset 6
 3652               		.cfi_offset 11, -5
 3653 0008 CF92      		push r12
 3654               	.LCFI87:
 3655               		.cfi_def_cfa_offset 7
 3656               		.cfi_offset 12, -6
 3657 000a DF92      		push r13
 3658               	.LCFI88:
 3659               		.cfi_def_cfa_offset 8
 3660               		.cfi_offset 13, -7
 3661 000c EF92      		push r14
 3662               	.LCFI89:
 3663               		.cfi_def_cfa_offset 9
 3664               		.cfi_offset 14, -8
 3665 000e FF92      		push r15
 3666               	.LCFI90:
 3667               		.cfi_def_cfa_offset 10
 3668               		.cfi_offset 15, -9
 3669 0010 0F93      		push r16
 3670               	.LCFI91:
 3671               		.cfi_def_cfa_offset 11
 3672               		.cfi_offset 16, -10
 3673 0012 1F93      		push r17
 3674               	.LCFI92:
 3675               		.cfi_def_cfa_offset 12
 3676               		.cfi_offset 17, -11
 3677 0014 CF93      		push r28
 3678               	.LCFI93:
 3679               		.cfi_def_cfa_offset 13
 3680               		.cfi_offset 28, -12
 3681 0016 DF93      		push r29
 3682               	.LCFI94:
 3683               		.cfi_def_cfa_offset 14
 3684               		.cfi_offset 29, -13
 3685               	/* prologue: function */
 3686               	/* frame size = 0 */
 3687               	/* stack size = 12 */
 3688               	.L__stack_usage = 12
 3689 0018 FC01      		movw r30,r24
1262:quantum/rgblight.c ****     bool random_color = anim->delta / 3;
 3690               		.loc 1 1262 5 is_stmt 1 view .LVU862
 3691               		.loc 1 1262 29 is_stmt 0 view .LVU863
 3692 001a B280      		ldd r11,Z+2
 3693               	.LVL240:
1263:quantum/rgblight.c ****     bool restart      = anim->pos == 0;
 3694               		.loc 1 1263 5 is_stmt 1 view .LVU864
 3695               		.loc 1 1263 29 is_stmt 0 view .LVU865
 3696 001c 9480      		ldd r9,Z+4
 3697               	.LVL241:
1264:quantum/rgblight.c ****     anim->pos         = 1;
 3698               		.loc 1 1264 5 is_stmt 1 view .LVU866
 3699               		.loc 1 1264 23 is_stmt 0 view .LVU867
 3700 001e 81E0      		ldi r24,lo8(1)
 3701               	.LVL242:
 3702               		.loc 1 1264 23 view .LVU868
 3703 0020 8483      		std Z+4,r24
1265:quantum/rgblight.c **** 
1266:quantum/rgblight.c ****     for (uint8_t i = 0; i < rgblight_ranges.effect_num_leds; i++) {
 3704               		.loc 1 1266 5 is_stmt 1 view .LVU869
 3705               	.LBB65:
 3706               		.loc 1 1266 10 view .LVU870
 3707               	.LVL243:
 3708               		.loc 1 1266 18 is_stmt 0 view .LVU871
 3709 0022 00E0      		ldi r16,0
 3710               	.LBB66:
1267:quantum/rgblight.c ****         TwinkleState *t = &(led_twinkle_state[i]);
1268:quantum/rgblight.c ****         HSV *         c = &(t->hsv);
1269:quantum/rgblight.c ****         if (restart) {
1270:quantum/rgblight.c ****             // Restart
1271:quantum/rgblight.c ****             t->life  = 0;
1272:quantum/rgblight.c ****             t->hsv.v = 0;
1273:quantum/rgblight.c ****         } else if (t->life) {
 3711               		.loc 1 1273 21 view .LVU872
 3712 0024 15E0      		ldi r17,lo8(5)
1274:quantum/rgblight.c ****             // This LED is already on, either brightening or dimming
1275:quantum/rgblight.c ****             t->life--;
1276:quantum/rgblight.c ****             uint8_t on = t->up ? RGBLIGHT_EFFECT_TWINKLE_LIFE - t->life : t->life;
1277:quantum/rgblight.c ****             c->v       = (uint16_t)rgblight_config.val * on / RGBLIGHT_EFFECT_TWINKLE_LIFE;
1278:quantum/rgblight.c ****             if (t->life == 0 && t->up) {
1279:quantum/rgblight.c ****                 t->up   = false;
1280:quantum/rgblight.c ****                 t->life = RGBLIGHT_EFFECT_TWINKLE_LIFE;
1281:quantum/rgblight.c ****             }
1282:quantum/rgblight.c ****             if (!random_color) {
1283:quantum/rgblight.c ****                 c->h = rgblight_config.hue;
1284:quantum/rgblight.c ****                 c->s = rgblight_config.sat;
1285:quantum/rgblight.c ****             }
1286:quantum/rgblight.c ****         } else if (rand() < RAND_MAX * RGBLIGHT_EFFECT_TWINKLE_PROBABILITY) {
1287:quantum/rgblight.c ****             // This LED is off, but was randomly selected to start brightening
1288:quantum/rgblight.c ****             c->h    = random_color ? rand() % 0xFF : rgblight_config.hue;
1289:quantum/rgblight.c ****             c->s    = random_color ? (rand() % (rgblight_config.sat / 2)) + (rgblight_config.sat / 
1290:quantum/rgblight.c ****             c->v    = 0;
1291:quantum/rgblight.c ****             t->life = RGBLIGHT_EFFECT_TWINKLE_LIFE;
 3713               		.loc 1 1291 21 view .LVU873
 3714 0026 5BE4      		ldi r21,lo8(75)
 3715 0028 A52E      		mov r10,r21
1292:quantum/rgblight.c ****             t->up   = true;
 3716               		.loc 1 1292 21 view .LVU874
 3717 002a 8824      		clr r8
 3718 002c 8394      		inc r8
1288:quantum/rgblight.c ****             c->s    = random_color ? (rand() % (rgblight_config.sat / 2)) + (rgblight_config.sat / 
 3719               		.loc 1 1288 45 view .LVU875
 3720 002e EE24      		clr r14
 3721 0030 EA94      		dec r14
 3722 0032 F12C      		mov r15,__zero_reg__
 3723               	.LBB67:
1277:quantum/rgblight.c ****             if (t->life == 0 && t->up) {
 3724               		.loc 1 1277 61 view .LVU876
 3725 0034 7BE4      		ldi r23,lo8(75)
 3726 0036 C72E      		mov r12,r23
 3727 0038 D12C      		mov r13,__zero_reg__
 3728               	.LVL244:
 3729               	.L187:
1277:quantum/rgblight.c ****             if (t->life == 0 && t->up) {
 3730               		.loc 1 1277 61 view .LVU877
 3731               	.LBE67:
 3732               	.LBE66:
1266:quantum/rgblight.c ****         TwinkleState *t = &(led_twinkle_state[i]);
 3733               		.loc 1 1266 25 is_stmt 1 discriminator 1 view .LVU878
1266:quantum/rgblight.c ****         TwinkleState *t = &(led_twinkle_state[i]);
 3734               		.loc 1 1266 5 is_stmt 0 discriminator 1 view .LVU879
 3735 003a 8091 0000 		lds r24,rgblight_ranges+4
 3736 003e 0817      		cp r16,r24
 3737 0040 00F0      		brlo .L199
 3738               	.LBE65:
1293:quantum/rgblight.c ****         } else {
1294:quantum/rgblight.c ****             // This LED is off, and was NOT selected to start brightening
1295:quantum/rgblight.c ****         }
1296:quantum/rgblight.c **** 
1297:quantum/rgblight.c ****         LED_TYPE *ledp = led + i + rgblight_ranges.effect_start_pos;
1298:quantum/rgblight.c ****         sethsv(c->h, c->s, c->v, ledp);
1299:quantum/rgblight.c ****     }
1300:quantum/rgblight.c **** 
1301:quantum/rgblight.c ****     rgblight_set();
 3739               		.loc 1 1301 5 is_stmt 1 view .LVU880
 3740               	/* epilogue start */
1302:quantum/rgblight.c **** }
 3741               		.loc 1 1302 1 is_stmt 0 view .LVU881
 3742 0042 DF91      		pop r29
 3743 0044 CF91      		pop r28
 3744 0046 1F91      		pop r17
 3745 0048 0F91      		pop r16
 3746               	.LVL245:
 3747               		.loc 1 1302 1 view .LVU882
 3748 004a FF90      		pop r15
 3749 004c EF90      		pop r14
 3750 004e DF90      		pop r13
 3751 0050 CF90      		pop r12
 3752 0052 BF90      		pop r11
 3753               	.LVL246:
 3754               		.loc 1 1302 1 view .LVU883
 3755 0054 AF90      		pop r10
 3756 0056 9F90      		pop r9
 3757               	.LVL247:
 3758               		.loc 1 1302 1 view .LVU884
 3759 0058 8F90      		pop r8
1301:quantum/rgblight.c **** }
 3760               		.loc 1 1301 5 view .LVU885
 3761 005a 0C94 0000 		jmp rgblight_set
 3762               	.LVL248:
 3763               	.L199:
 3764               	.LBB71:
 3765               	.LBB69:
1267:quantum/rgblight.c ****         HSV *         c = &(t->hsv);
 3766               		.loc 1 1267 9 is_stmt 1 view .LVU886
1267:quantum/rgblight.c ****         HSV *         c = &(t->hsv);
 3767               		.loc 1 1267 46 is_stmt 0 view .LVU887
 3768 005e C02F      		mov r28,r16
 3769 0060 D0E0      		ldi r29,0
 3770               	.LVL249:
1268:quantum/rgblight.c ****         if (restart) {
 3771               		.loc 1 1268 9 is_stmt 1 view .LVU888
1269:quantum/rgblight.c ****             // Restart
 3772               		.loc 1 1269 9 view .LVU889
1271:quantum/rgblight.c ****             t->hsv.v = 0;
 3773               		.loc 1 1271 22 is_stmt 0 view .LVU890
 3774 0062 1C9F      		mul r17,r28
 3775 0064 F001      		movw r30,r0
 3776 0066 1D9F      		mul r17,r29
 3777 0068 F00D      		add r31,r0
 3778 006a 1124      		clr __zero_reg__
 3779 006c E050      		subi r30,lo8(-(led_twinkle_state))
 3780 006e F040      		sbci r31,hi8(-(led_twinkle_state))
1269:quantum/rgblight.c ****             // Restart
 3781               		.loc 1 1269 12 view .LVU891
 3782 0070 9110      		cpse r9,__zero_reg__
 3783 0072 00C0      		rjmp .L188
1271:quantum/rgblight.c ****             t->hsv.v = 0;
 3784               		.loc 1 1271 13 is_stmt 1 view .LVU892
1271:quantum/rgblight.c ****             t->hsv.v = 0;
 3785               		.loc 1 1271 22 is_stmt 0 view .LVU893
 3786 0074 1382      		std Z+3,__zero_reg__
1272:quantum/rgblight.c ****         } else if (t->life) {
 3787               		.loc 1 1272 13 is_stmt 1 view .LVU894
1272:quantum/rgblight.c ****         } else if (t->life) {
 3788               		.loc 1 1272 22 is_stmt 0 view .LVU895
 3789 0076 1282      		std Z+2,__zero_reg__
 3790               	.L189:
1295:quantum/rgblight.c **** 
 3791               		.loc 1 1295 9 is_stmt 1 discriminator 2 view .LVU896
1297:quantum/rgblight.c ****         sethsv(c->h, c->s, c->v, ledp);
 3792               		.loc 1 1297 9 discriminator 2 view .LVU897
 3793               	.LVL250:
1298:quantum/rgblight.c ****     }
 3794               		.loc 1 1298 9 discriminator 2 view .LVU898
1297:quantum/rgblight.c ****         sethsv(c->h, c->s, c->v, ledp);
 3795               		.loc 1 1297 34 is_stmt 0 discriminator 2 view .LVU899
 3796 0078 2091 0000 		lds r18,rgblight_ranges+2
 3797 007c CE01      		movw r24,r28
 3798 007e 820F      		add r24,r18
 3799 0080 911D      		adc r25,__zero_reg__
 3800 0082 9C01      		movw r18,r24
 3801 0084 220F      		lsl r18
 3802 0086 331F      		rol r19
 3803 0088 280F      		add r18,r24
 3804 008a 391F      		adc r19,r25
1297:quantum/rgblight.c ****         sethsv(c->h, c->s, c->v, ledp);
 3805               		.loc 1 1297 19 discriminator 2 view .LVU900
 3806 008c 2050      		subi r18,lo8(-(led))
 3807 008e 3040      		sbci r19,hi8(-(led))
1298:quantum/rgblight.c ****     }
 3808               		.loc 1 1298 9 discriminator 2 view .LVU901
 3809 0090 1C9F      		mul r17,r28
 3810 0092 F001      		movw r30,r0
 3811 0094 1D9F      		mul r17,r29
 3812 0096 F00D      		add r31,r0
 3813 0098 1124      		clr __zero_reg__
 3814 009a E050      		subi r30,lo8(-(led_twinkle_state))
 3815 009c F040      		sbci r31,hi8(-(led_twinkle_state))
 3816 009e 4281      		ldd r20,Z+2
 3817 00a0 6181      		ldd r22,Z+1
 3818 00a2 8081      		ld r24,Z
 3819 00a4 0E94 0000 		call sethsv
 3820               	.LVL251:
1298:quantum/rgblight.c ****     }
 3821               		.loc 1 1298 9 discriminator 2 view .LVU902
 3822               	.LBE69:
1266:quantum/rgblight.c ****         TwinkleState *t = &(led_twinkle_state[i]);
 3823               		.loc 1 1266 62 is_stmt 1 discriminator 2 view .LVU903
1266:quantum/rgblight.c ****         TwinkleState *t = &(led_twinkle_state[i]);
 3824               		.loc 1 1266 63 is_stmt 0 discriminator 2 view .LVU904
 3825 00a8 0F5F      		subi r16,lo8(-(1))
 3826               	.LVL252:
1266:quantum/rgblight.c ****         TwinkleState *t = &(led_twinkle_state[i]);
 3827               		.loc 1 1266 63 discriminator 2 view .LVU905
 3828 00aa 00C0      		rjmp .L187
 3829               	.L188:
 3830               	.LBB70:
1273:quantum/rgblight.c ****             // This LED is already on, either brightening or dimming
 3831               		.loc 1 1273 16 is_stmt 1 view .LVU906
1273:quantum/rgblight.c ****             // This LED is already on, either brightening or dimming
 3832               		.loc 1 1273 21 is_stmt 0 view .LVU907
 3833 00ac 2381      		ldd r18,Z+3
1273:quantum/rgblight.c ****             // This LED is already on, either brightening or dimming
 3834               		.loc 1 1273 19 view .LVU908
 3835 00ae 2223      		tst r18
 3836 00b0 01F0      		breq .L190
 3837               	.LBB68:
1275:quantum/rgblight.c ****             uint8_t on = t->up ? RGBLIGHT_EFFECT_TWINKLE_LIFE - t->life : t->life;
 3838               		.loc 1 1275 13 is_stmt 1 view .LVU909
1275:quantum/rgblight.c ****             uint8_t on = t->up ? RGBLIGHT_EFFECT_TWINKLE_LIFE - t->life : t->life;
 3839               		.loc 1 1275 20 is_stmt 0 view .LVU910
 3840 00b2 2150      		subi r18,lo8(-(-1))
 3841 00b4 2383      		std Z+3,r18
1276:quantum/rgblight.c ****             c->v       = (uint16_t)rgblight_config.val * on / RGBLIGHT_EFFECT_TWINKLE_LIFE;
 3842               		.loc 1 1276 13 is_stmt 1 view .LVU911
1276:quantum/rgblight.c ****             c->v       = (uint16_t)rgblight_config.val * on / RGBLIGHT_EFFECT_TWINKLE_LIFE;
 3843               		.loc 1 1276 27 is_stmt 0 view .LVU912
 3844 00b6 3481      		ldd r19,Z+4
1276:quantum/rgblight.c ****             c->v       = (uint16_t)rgblight_config.val * on / RGBLIGHT_EFFECT_TWINKLE_LIFE;
 3845               		.loc 1 1276 21 view .LVU913
 3846 00b8 8A2D      		mov r24,r10
 3847 00ba 821B      		sub r24,r18
 3848 00bc 3111      		cpse r19,__zero_reg__
 3849 00be 00C0      		rjmp .L191
 3850 00c0 822F      		mov r24,r18
 3851               	.L191:
 3852               	.LVL253:
1277:quantum/rgblight.c ****             if (t->life == 0 && t->up) {
 3853               		.loc 1 1277 13 is_stmt 1 discriminator 4 view .LVU914
1277:quantum/rgblight.c ****             if (t->life == 0 && t->up) {
 3854               		.loc 1 1277 24 is_stmt 0 discriminator 4 view .LVU915
 3855 00c2 1C9F      		mul r17,r28
 3856 00c4 F001      		movw r30,r0
 3857 00c6 1D9F      		mul r17,r29
 3858 00c8 F00D      		add r31,r0
 3859 00ca 1124      		clr __zero_reg__
 3860 00cc E050      		subi r30,lo8(-(led_twinkle_state))
 3861 00ce F040      		sbci r31,hi8(-(led_twinkle_state))
1277:quantum/rgblight.c ****             if (t->life == 0 && t->up) {
 3862               		.loc 1 1277 56 discriminator 4 view .LVU916
 3863 00d0 9091 0000 		lds r25,rgblight_config+3
 3864 00d4 899F      		mul r24,r25
 3865 00d6 C001      		movw r24,r0
 3866 00d8 1124      		clr __zero_reg__
 3867               	.LVL254:
1277:quantum/rgblight.c ****             if (t->life == 0 && t->up) {
 3868               		.loc 1 1277 61 discriminator 4 view .LVU917
 3869 00da B601      		movw r22,r12
 3870 00dc 0E94 0000 		call __udivmodhi4
1277:quantum/rgblight.c ****             if (t->life == 0 && t->up) {
 3871               		.loc 1 1277 24 discriminator 4 view .LVU918
 3872 00e0 6283      		std Z+2,r22
1278:quantum/rgblight.c ****                 t->up   = false;
 3873               		.loc 1 1278 13 is_stmt 1 discriminator 4 view .LVU919
1278:quantum/rgblight.c ****                 t->up   = false;
 3874               		.loc 1 1278 16 is_stmt 0 discriminator 4 view .LVU920
 3875 00e2 2111      		cpse r18,__zero_reg__
 3876 00e4 00C0      		rjmp .L192
1278:quantum/rgblight.c ****                 t->up   = false;
 3877               		.loc 1 1278 30 discriminator 1 view .LVU921
 3878 00e6 3323      		tst r19
 3879 00e8 01F0      		breq .L192
1279:quantum/rgblight.c ****                 t->life = RGBLIGHT_EFFECT_TWINKLE_LIFE;
 3880               		.loc 1 1279 17 is_stmt 1 view .LVU922
1279:quantum/rgblight.c ****                 t->life = RGBLIGHT_EFFECT_TWINKLE_LIFE;
 3881               		.loc 1 1279 25 is_stmt 0 view .LVU923
 3882 00ea 1482      		std Z+4,__zero_reg__
1280:quantum/rgblight.c ****             }
 3883               		.loc 1 1280 17 is_stmt 1 view .LVU924
1280:quantum/rgblight.c ****             }
 3884               		.loc 1 1280 25 is_stmt 0 view .LVU925
 3885 00ec A382      		std Z+3,r10
 3886               	.L192:
1282:quantum/rgblight.c ****                 c->h = rgblight_config.hue;
 3887               		.loc 1 1282 13 is_stmt 1 view .LVU926
1282:quantum/rgblight.c ****                 c->h = rgblight_config.hue;
 3888               		.loc 1 1282 16 is_stmt 0 view .LVU927
 3889 00ee 22E0      		ldi r18,lo8(2)
 3890 00f0 2B15      		cp r18,r11
 3891 00f2 00F0      		brlo .L189
1283:quantum/rgblight.c ****                 c->s = rgblight_config.sat;
 3892               		.loc 1 1283 17 is_stmt 1 view .LVU928
1283:quantum/rgblight.c ****                 c->s = rgblight_config.sat;
 3893               		.loc 1 1283 22 is_stmt 0 view .LVU929
 3894 00f4 1C9F      		mul r17,r28
 3895 00f6 F001      		movw r30,r0
 3896 00f8 1D9F      		mul r17,r29
 3897 00fa F00D      		add r31,r0
 3898 00fc 1124      		clr __zero_reg__
 3899 00fe E050      		subi r30,lo8(-(led_twinkle_state))
 3900 0100 F040      		sbci r31,hi8(-(led_twinkle_state))
 3901 0102 8091 0000 		lds r24,rgblight_config+1
 3902 0106 8083      		st Z,r24
1284:quantum/rgblight.c ****             }
 3903               		.loc 1 1284 17 is_stmt 1 view .LVU930
1284:quantum/rgblight.c ****             }
 3904               		.loc 1 1284 22 is_stmt 0 view .LVU931
 3905 0108 8091 0000 		lds r24,rgblight_config+2
 3906 010c 8183      		std Z+1,r24
 3907 010e 00C0      		rjmp .L189
 3908               	.L190:
1284:quantum/rgblight.c ****             }
 3909               		.loc 1 1284 22 view .LVU932
 3910               	.LBE68:
1286:quantum/rgblight.c ****             // This LED is off, but was randomly selected to start brightening
 3911               		.loc 1 1286 16 is_stmt 1 view .LVU933
1286:quantum/rgblight.c ****             // This LED is off, but was randomly selected to start brightening
 3912               		.loc 1 1286 20 is_stmt 0 view .LVU934
 3913 0110 0E94 0000 		call rand
 3914               	.LVL255:
1286:quantum/rgblight.c ****             // This LED is off, but was randomly selected to start brightening
 3915               		.loc 1 1286 19 view .LVU935
 3916 0114 8230      		cpi r24,2
 3917 0116 9140      		sbci r25,1
 3918 0118 04F0      		brlt .+2
 3919 011a 00C0      		rjmp .L189
1288:quantum/rgblight.c ****             c->s    = random_color ? (rand() % (rgblight_config.sat / 2)) + (rgblight_config.sat / 
 3920               		.loc 1 1288 13 is_stmt 1 view .LVU936
1288:quantum/rgblight.c ****             c->s    = random_color ? (rand() % (rgblight_config.sat / 2)) + (rgblight_config.sat / 
 3921               		.loc 1 1288 21 is_stmt 0 view .LVU937
 3922 011c 82E0      		ldi r24,lo8(2)
 3923 011e 8B15      		cp r24,r11
 3924 0120 00F4      		brsh .L195
1288:quantum/rgblight.c ****             c->s    = random_color ? (rand() % (rgblight_config.sat / 2)) + (rgblight_config.sat / 
 3925               		.loc 1 1288 38 discriminator 1 view .LVU938
 3926 0122 0E94 0000 		call rand
 3927               	.LVL256:
1288:quantum/rgblight.c ****             c->s    = random_color ? (rand() % (rgblight_config.sat / 2)) + (rgblight_config.sat / 
 3928               		.loc 1 1288 45 discriminator 1 view .LVU939
 3929 0126 B701      		movw r22,r14
 3930 0128 0E94 0000 		call __divmodhi4
 3931               	.L196:
1288:quantum/rgblight.c ****             c->s    = random_color ? (rand() % (rgblight_config.sat / 2)) + (rgblight_config.sat / 
 3932               		.loc 1 1288 21 discriminator 4 view .LVU940
 3933 012c 1C9F      		mul r17,r28
 3934 012e F001      		movw r30,r0
 3935 0130 1D9F      		mul r17,r29
 3936 0132 F00D      		add r31,r0
 3937 0134 1124      		clr __zero_reg__
 3938 0136 E050      		subi r30,lo8(-(led_twinkle_state))
 3939 0138 F040      		sbci r31,hi8(-(led_twinkle_state))
 3940 013a 8083      		st Z,r24
1289:quantum/rgblight.c ****             c->v    = 0;
 3941               		.loc 1 1289 13 is_stmt 1 discriminator 4 view .LVU941
1289:quantum/rgblight.c ****             c->v    = 0;
 3942               		.loc 1 1289 21 is_stmt 0 discriminator 4 view .LVU942
 3943 013c 22E0      		ldi r18,lo8(2)
 3944 013e 2B15      		cp r18,r11
 3945 0140 00F4      		brsh .L197
1289:quantum/rgblight.c ****             c->v    = 0;
 3946               		.loc 1 1289 39 discriminator 1 view .LVU943
 3947 0142 0E94 0000 		call rand
 3948               	.LVL257:
1289:quantum/rgblight.c ****             c->v    = 0;
 3949               		.loc 1 1289 69 discriminator 1 view .LVU944
 3950 0146 2091 0000 		lds r18,rgblight_config+2
 3951 014a 2695      		lsr r18
 3952 014c 622F      		mov r22,r18
 3953 014e 70E0      		ldi r23,0
1289:quantum/rgblight.c ****             c->v    = 0;
 3954               		.loc 1 1289 46 discriminator 1 view .LVU945
 3955 0150 0E94 0000 		call __divmodhi4
1289:quantum/rgblight.c ****             c->v    = 0;
 3956               		.loc 1 1289 21 discriminator 1 view .LVU946
 3957 0154 280F      		add r18,r24
 3958               	.L198:
1289:quantum/rgblight.c ****             c->v    = 0;
 3959               		.loc 1 1289 21 discriminator 4 view .LVU947
 3960 0156 1C9F      		mul r17,r28
 3961 0158 F001      		movw r30,r0
 3962 015a 1D9F      		mul r17,r29
 3963 015c F00D      		add r31,r0
 3964 015e 1124      		clr __zero_reg__
 3965 0160 E050      		subi r30,lo8(-(led_twinkle_state))
 3966 0162 F040      		sbci r31,hi8(-(led_twinkle_state))
 3967 0164 2183      		std Z+1,r18
1290:quantum/rgblight.c ****             t->life = RGBLIGHT_EFFECT_TWINKLE_LIFE;
 3968               		.loc 1 1290 13 is_stmt 1 discriminator 4 view .LVU948
1290:quantum/rgblight.c ****             t->life = RGBLIGHT_EFFECT_TWINKLE_LIFE;
 3969               		.loc 1 1290 21 is_stmt 0 discriminator 4 view .LVU949
 3970 0166 1282      		std Z+2,__zero_reg__
1291:quantum/rgblight.c ****             t->up   = true;
 3971               		.loc 1 1291 13 is_stmt 1 discriminator 4 view .LVU950
1291:quantum/rgblight.c ****             t->up   = true;
 3972               		.loc 1 1291 21 is_stmt 0 discriminator 4 view .LVU951
 3973 0168 A382      		std Z+3,r10
1292:quantum/rgblight.c ****         } else {
 3974               		.loc 1 1292 13 is_stmt 1 discriminator 4 view .LVU952
1292:quantum/rgblight.c ****         } else {
 3975               		.loc 1 1292 21 is_stmt 0 discriminator 4 view .LVU953
 3976 016a 8482      		std Z+4,r8
 3977 016c 00C0      		rjmp .L189
 3978               	.L195:
1288:quantum/rgblight.c ****             c->s    = random_color ? (rand() % (rgblight_config.sat / 2)) + (rgblight_config.sat / 
 3979               		.loc 1 1288 21 discriminator 2 view .LVU954
 3980 016e 8091 0000 		lds r24,rgblight_config+1
 3981 0172 00C0      		rjmp .L196
 3982               	.L197:
1289:quantum/rgblight.c ****             c->v    = 0;
 3983               		.loc 1 1289 21 discriminator 2 view .LVU955
 3984 0174 2091 0000 		lds r18,rgblight_config+2
 3985 0178 00C0      		rjmp .L198
 3986               	.LBE70:
 3987               	.LBE71:
 3988               		.cfi_endproc
 3989               	.LFE181:
 3991               		.section	.text.rgblight_get_change_flags,"ax",@progbits
 3992               	.global	rgblight_get_change_flags
 3994               	rgblight_get_change_flags:
 3995               	.LFB162:
 761:quantum/rgblight.c **** 
 3996               		.loc 1 761 41 is_stmt 1 view -0
 3997               		.cfi_startproc
 3998               	/* prologue: function */
 3999               	/* frame size = 0 */
 4000               	/* stack size = 0 */
 4001               	.L__stack_usage = 0
 761:quantum/rgblight.c **** 
 4002               		.loc 1 761 43 view .LVU957
 761:quantum/rgblight.c **** 
 4003               		.loc 1 761 1 is_stmt 0 view .LVU958
 4004 0000 8091 0000 		lds r24,rgblight_status+2
 4005               	/* epilogue start */
 4006 0004 0895      		ret
 4007               		.cfi_endproc
 4008               	.LFE162:
 4010               		.section	.text.rgblight_clear_change_flags,"ax",@progbits
 4011               	.global	rgblight_clear_change_flags
 4013               	rgblight_clear_change_flags:
 4014               	.LFB163:
 763:quantum/rgblight.c **** 
 4015               		.loc 1 763 40 is_stmt 1 view -0
 4016               		.cfi_startproc
 4017               	/* prologue: function */
 4018               	/* frame size = 0 */
 4019               	/* stack size = 0 */
 4020               	.L__stack_usage = 0
 763:quantum/rgblight.c **** 
 4021               		.loc 1 763 42 view .LVU960
 763:quantum/rgblight.c **** 
 4022               		.loc 1 763 71 is_stmt 0 view .LVU961
 4023 0000 1092 0000 		sts rgblight_status+2,__zero_reg__
 4024               	/* epilogue start */
 763:quantum/rgblight.c **** 
 4025               		.loc 1 763 1 view .LVU962
 4026 0004 0895      		ret
 4027               		.cfi_endproc
 4028               	.LFE163:
 4030               		.section	.text.rgblight_get_syncinfo,"ax",@progbits
 4031               	.global	rgblight_get_syncinfo
 4033               	rgblight_get_syncinfo:
 4034               	.LVL258:
 4035               	.LFB164:
 765:quantum/rgblight.c ****     syncinfo->config = rgblight_config;
 4036               		.loc 1 765 59 is_stmt 1 view -0
 4037               		.cfi_startproc
 4038               	/* prologue: function */
 4039               	/* frame size = 0 */
 4040               	/* stack size = 0 */
 4041               	.L__stack_usage = 0
 766:quantum/rgblight.c ****     syncinfo->status = rgblight_status;
 4042               		.loc 1 766 5 view .LVU964
 766:quantum/rgblight.c ****     syncinfo->status = rgblight_status;
 4043               		.loc 1 766 22 is_stmt 0 view .LVU965
 4044 0000 25E0      		ldi r18,lo8(5)
 4045 0002 E0E0      		ldi r30,lo8(rgblight_config)
 4046 0004 F0E0      		ldi r31,hi8(rgblight_config)
 4047 0006 DC01      		movw r26,r24
 4048               		0:
 4049 0008 0190      		ld r0,Z+
 4050 000a 0D92      		st X+,r0
 4051 000c 2A95      		dec r18
 4052 000e 01F4      		brne 0b
 767:quantum/rgblight.c **** }
 4053               		.loc 1 767 5 is_stmt 1 view .LVU966
 767:quantum/rgblight.c **** }
 4054               		.loc 1 767 22 is_stmt 0 view .LVU967
 4055 0010 2091 0000 		lds r18,rgblight_status
 4056 0014 3091 0000 		lds r19,rgblight_status+1
 4057 0018 4091 0000 		lds r20,rgblight_status+2
 4058 001c FC01      		movw r30,r24
 4059 001e 2583      		std Z+5,r18
 4060 0020 3683      		std Z+6,r19
 4061 0022 4783      		std Z+7,r20
 4062               	/* epilogue start */
 768:quantum/rgblight.c **** 
 4063               		.loc 1 768 1 view .LVU968
 4064 0024 0895      		ret
 4065               		.cfi_endproc
 4066               	.LFE164:
 4068               		.section	.text.rgblight_timer_init,"ax",@progbits
 4069               	.global	rgblight_timer_init
 4071               	rgblight_timer_init:
 4072               	.LFB166:
 811:quantum/rgblight.c ****     // OLD!!!! Animation timer -- AVR Timer3
 4073               		.loc 1 811 32 is_stmt 1 view -0
 4074               		.cfi_startproc
 4075               	/* prologue: function */
 4076               	/* frame size = 0 */
 4077               	/* stack size = 0 */
 4078               	.L__stack_usage = 0
 828:quantum/rgblight.c ****     RGBLIGHT_SPLIT_SET_CHANGE_TIMER_ENABLE;
 4079               		.loc 1 828 5 view .LVU970
 828:quantum/rgblight.c ****     RGBLIGHT_SPLIT_SET_CHANGE_TIMER_ENABLE;
 4080               		.loc 1 828 35 is_stmt 0 view .LVU971
 4081 0000 E0E0      		ldi r30,lo8(rgblight_status)
 4082 0002 F0E0      		ldi r31,hi8(rgblight_status)
 4083 0004 1182      		std Z+1,__zero_reg__
 829:quantum/rgblight.c **** }
 4084               		.loc 1 829 5 is_stmt 1 view .LVU972
 4085 0006 8281      		ldd r24,Z+2
 4086 0008 8460      		ori r24,lo8(4)
 4087 000a 8283      		std Z+2,r24
 4088               	/* epilogue start */
 830:quantum/rgblight.c **** void rgblight_timer_enable(void) {
 4089               		.loc 1 830 1 is_stmt 0 view .LVU973
 4090 000c 0895      		ret
 4091               		.cfi_endproc
 4092               	.LFE166:
 4094               		.section	.text.rgblight_disable_noeeprom,"ax",@progbits
 4095               	.global	rgblight_disable_noeeprom
 4097               	rgblight_disable_noeeprom:
 4098               	.LFB116:
 364:quantum/rgblight.c ****     rgblight_config.enable = 0;
 4099               		.loc 1 364 38 is_stmt 1 view -0
 4100               		.cfi_startproc
 4101               	/* prologue: function */
 4102               	/* frame size = 0 */
 4103               	/* stack size = 0 */
 4104               	.L__stack_usage = 0
 365:quantum/rgblight.c ****     dprintf("rgblight disable [NOEEPROM]: rgblight_config.enable = %u\n", rgblight_config.enable);
 4105               		.loc 1 365 5 view .LVU975
 365:quantum/rgblight.c ****     dprintf("rgblight disable [NOEEPROM]: rgblight_config.enable = %u\n", rgblight_config.enable);
 4106               		.loc 1 365 28 is_stmt 0 view .LVU976
 4107 0000 E0E0      		ldi r30,lo8(rgblight_config)
 4108 0002 F0E0      		ldi r31,hi8(rgblight_config)
 4109 0004 8081      		ld r24,Z
 4110 0006 8E7F      		andi r24,lo8(~(1<<0))
 4111 0008 8083      		st Z,r24
 366:quantum/rgblight.c ****     rgblight_timer_disable();
 4112               		.loc 1 366 98 is_stmt 1 view .LVU977
 367:quantum/rgblight.c ****     RGBLIGHT_SPLIT_SET_CHANGE_MODE;
 4113               		.loc 1 367 5 view .LVU978
 4114 000a 0E94 0000 		call rgblight_timer_init
 4115               	.LVL259:
 368:quantum/rgblight.c ****     wait_ms(50);
 4116               		.loc 1 368 5 view .LVU979
 4117 000e E0E0      		ldi r30,lo8(rgblight_status)
 4118 0010 F0E0      		ldi r31,hi8(rgblight_status)
 4119 0012 8281      		ldd r24,Z+2
 4120 0014 8160      		ori r24,lo8(1)
 4121 0016 8283      		std Z+2,r24
 369:quantum/rgblight.c ****     rgblight_set();
 4122               		.loc 1 369 5 view .LVU980
 4123               	.LVL260:
 4124               	.LBB72:
 4125               	.LBI72:
 166:/usr/local/Cellar/avr-gcc@8/8.4.0_2/avr/include/util/delay.h **** {
 4126               		.loc 3 166 1 view .LVU981
 4127               	.LBB73:
 168:/usr/local/Cellar/avr-gcc@8/8.4.0_2/avr/include/util/delay.h **** #if __HAS_DELAY_CYCLES && defined(__OPTIMIZE__) && \
 4128               		.loc 3 168 2 view .LVU982
 172:/usr/local/Cellar/avr-gcc@8/8.4.0_2/avr/include/util/delay.h **** 	extern void __builtin_avr_delay_cycles(unsigned long);
 4129               		.loc 3 172 2 view .LVU983
 173:/usr/local/Cellar/avr-gcc@8/8.4.0_2/avr/include/util/delay.h **** 	__tmp = ((F_CPU) / 1e3) * __ms;
 4130               		.loc 3 173 2 view .LVU984
 174:/usr/local/Cellar/avr-gcc@8/8.4.0_2/avr/include/util/delay.h **** 
 4131               		.loc 3 174 2 view .LVU985
 184:/usr/local/Cellar/avr-gcc@8/8.4.0_2/avr/include/util/delay.h **** 	#endif
 4132               		.loc 3 184 3 view .LVU986
 4133               		.loc 3 187 2 view .LVU987
 4134 0018 2FEF      		ldi r18,lo8(159999)
 4135 001a 80E7      		ldi r24,hi8(159999)
 4136 001c 92E0      		ldi r25,hlo8(159999)
 4137 001e 2150      	1:	subi r18,1
 4138 0020 8040      		sbci r24,0
 4139 0022 9040      		sbci r25,0
 4140 0024 01F4      		brne 1b
 4141 0026 00C0      		rjmp .
 4142 0028 0000      		nop
 4143               	.LVL261:
 4144               		.loc 3 187 2 is_stmt 0 view .LVU988
 4145               	.LBE73:
 4146               	.LBE72:
 370:quantum/rgblight.c **** }
 4147               		.loc 1 370 5 is_stmt 1 view .LVU989
 4148 002a 0C94 0000 		jmp rgblight_set
 4149               	.LVL262:
 4150               		.cfi_endproc
 4151               	.LFE116:
 4153               		.section	.text.rgblight_disable,"ax",@progbits
 4154               	.global	rgblight_disable
 4156               	rgblight_disable:
 4157               	.LFB115:
 354:quantum/rgblight.c ****     rgblight_config.enable = 0;
 4158               		.loc 1 354 29 view -0
 4159               		.cfi_startproc
 4160               	/* prologue: function */
 4161               	/* frame size = 0 */
 4162               	/* stack size = 0 */
 4163               	.L__stack_usage = 0
 355:quantum/rgblight.c ****     eeconfig_update_rgblight(rgblight_config.raw);
 4164               		.loc 1 355 5 view .LVU991
 355:quantum/rgblight.c ****     eeconfig_update_rgblight(rgblight_config.raw);
 4165               		.loc 1 355 28 is_stmt 0 view .LVU992
 4166 0000 E0E0      		ldi r30,lo8(rgblight_config)
 4167 0002 F0E0      		ldi r31,hi8(rgblight_config)
 4168 0004 8081      		ld r24,Z
 4169 0006 8E7F      		andi r24,lo8(~(1<<0))
 4170 0008 8083      		st Z,r24
 356:quantum/rgblight.c ****     dprintf("rgblight disable [EEPROM]: rgblight_config.enable = %u\n", rgblight_config.enable);
 4171               		.loc 1 356 5 is_stmt 1 view .LVU993
 4172 000a 6081      		ld r22,Z
 4173 000c 7181      		ldd r23,Z+1
 4174 000e 8281      		ldd r24,Z+2
 4175 0010 9381      		ldd r25,Z+3
 4176 0012 0E94 0000 		call eeconfig_update_rgblight
 4177               	.LVL263:
 357:quantum/rgblight.c ****     rgblight_timer_disable();
 4178               		.loc 1 357 96 view .LVU994
 358:quantum/rgblight.c ****     RGBLIGHT_SPLIT_SET_CHANGE_MODE;
 4179               		.loc 1 358 5 view .LVU995
 4180 0016 0E94 0000 		call rgblight_timer_init
 4181               	.LVL264:
 359:quantum/rgblight.c ****     wait_ms(50);
 4182               		.loc 1 359 5 view .LVU996
 4183 001a E0E0      		ldi r30,lo8(rgblight_status)
 4184 001c F0E0      		ldi r31,hi8(rgblight_status)
 4185 001e 8281      		ldd r24,Z+2
 4186 0020 8160      		ori r24,lo8(1)
 4187 0022 8283      		std Z+2,r24
 360:quantum/rgblight.c ****     rgblight_set();
 4188               		.loc 1 360 5 view .LVU997
 4189               	.LVL265:
 4190               	.LBB74:
 4191               	.LBI74:
 166:/usr/local/Cellar/avr-gcc@8/8.4.0_2/avr/include/util/delay.h **** {
 4192               		.loc 3 166 1 view .LVU998
 4193               	.LBB75:
 168:/usr/local/Cellar/avr-gcc@8/8.4.0_2/avr/include/util/delay.h **** #if __HAS_DELAY_CYCLES && defined(__OPTIMIZE__) && \
 4194               		.loc 3 168 2 view .LVU999
 172:/usr/local/Cellar/avr-gcc@8/8.4.0_2/avr/include/util/delay.h **** 	extern void __builtin_avr_delay_cycles(unsigned long);
 4195               		.loc 3 172 2 view .LVU1000
 173:/usr/local/Cellar/avr-gcc@8/8.4.0_2/avr/include/util/delay.h **** 	__tmp = ((F_CPU) / 1e3) * __ms;
 4196               		.loc 3 173 2 view .LVU1001
 174:/usr/local/Cellar/avr-gcc@8/8.4.0_2/avr/include/util/delay.h **** 
 4197               		.loc 3 174 2 view .LVU1002
 184:/usr/local/Cellar/avr-gcc@8/8.4.0_2/avr/include/util/delay.h **** 	#endif
 4198               		.loc 3 184 3 view .LVU1003
 4199               		.loc 3 187 2 view .LVU1004
 4200 0024 2FEF      		ldi r18,lo8(159999)
 4201 0026 80E7      		ldi r24,hi8(159999)
 4202 0028 92E0      		ldi r25,hlo8(159999)
 4203 002a 2150      	1:	subi r18,1
 4204 002c 8040      		sbci r24,0
 4205 002e 9040      		sbci r25,0
 4206 0030 01F4      		brne 1b
 4207 0032 00C0      		rjmp .
 4208 0034 0000      		nop
 4209               	.LVL266:
 4210               		.loc 3 187 2 is_stmt 0 view .LVU1005
 4211               	.LBE75:
 4212               	.LBE74:
 361:quantum/rgblight.c **** }
 4213               		.loc 1 361 5 is_stmt 1 view .LVU1006
 4214 0036 0C94 0000 		jmp rgblight_set
 4215               	.LVL267:
 4216               		.cfi_endproc
 4217               	.LFE115:
 4219               		.section	.text.rgblight_timer_enable,"ax",@progbits
 4220               	.global	rgblight_timer_enable
 4222               	rgblight_timer_enable:
 4223               	.LFB167:
 831:quantum/rgblight.c ****     if (!is_static_effect(rgblight_config.mode)) {
 4224               		.loc 1 831 34 view -0
 4225               		.cfi_startproc
 4226               	/* prologue: function */
 4227               	/* frame size = 0 */
 4228               	/* stack size = 0 */
 4229               	.L__stack_usage = 0
 832:quantum/rgblight.c ****         rgblight_status.timer_enabled = true;
 4230               		.loc 1 832 5 view .LVU1008
 4231               	.LVL268:
 4232               	.LBB78:
 4233               	.LBI78:
  84:quantum/rgblight.c **** 
 4234               		.loc 1 84 19 view .LVU1009
 4235               	.LBB79:
  84:quantum/rgblight.c **** 
 4236               		.loc 1 84 52 view .LVU1010
 4237               	.LBE79:
 4238               	.LBE78:
 832:quantum/rgblight.c ****         rgblight_status.timer_enabled = true;
 4239               		.loc 1 832 42 is_stmt 0 view .LVU1011
 4240 0000 6091 0000 		lds r22,rgblight_config
 4241 0004 6695      		lsr r22
 4242               	.LBB81:
 4243               	.LBB80:
  84:quantum/rgblight.c **** 
 4244               		.loc 1 84 59 view .LVU1012
 4245 0006 70E0      		ldi r23,0
 4246 0008 4BE0      		ldi r20,lo8(11)
 4247 000a 50E0      		ldi r21,0
 4248 000c 80E0      		ldi r24,lo8(static_effect_table)
 4249 000e 90E0      		ldi r25,hi8(static_effect_table)
 4250 0010 0E94 0000 		call memchr
 4251               	.LVL269:
  84:quantum/rgblight.c **** 
 4252               		.loc 1 84 59 view .LVU1013
 4253               	.LBE80:
 4254               	.LBE81:
 832:quantum/rgblight.c ****         rgblight_status.timer_enabled = true;
 4255               		.loc 1 832 8 view .LVU1014
 4256 0014 892B      		or r24,r25
 4257 0016 01F4      		brne .L211
 833:quantum/rgblight.c ****     }
 4258               		.loc 1 833 9 is_stmt 1 view .LVU1015
 833:quantum/rgblight.c ****     }
 4259               		.loc 1 833 39 is_stmt 0 view .LVU1016
 4260 0018 81E0      		ldi r24,lo8(1)
 4261 001a 8093 0000 		sts rgblight_status+1,r24
 4262               	.L211:
 835:quantum/rgblight.c ****     RGBLIGHT_SPLIT_SET_CHANGE_TIMER_ENABLE;
 4263               		.loc 1 835 5 is_stmt 1 view .LVU1017
 835:quantum/rgblight.c ****     RGBLIGHT_SPLIT_SET_CHANGE_TIMER_ENABLE;
 4264               		.loc 1 835 35 is_stmt 0 view .LVU1018
 4265 001e 0E94 0000 		call timer_read
 4266               	.LVL270:
 835:quantum/rgblight.c ****     RGBLIGHT_SPLIT_SET_CHANGE_TIMER_ENABLE;
 4267               		.loc 1 835 33 view .LVU1019
 4268 0022 9093 0000 		sts animation_status+1,r25
 4269 0026 8093 0000 		sts animation_status,r24
 836:quantum/rgblight.c ****     dprintf("rgblight timer enabled.\n");
 4270               		.loc 1 836 5 is_stmt 1 view .LVU1020
 4271 002a 8091 0000 		lds r24,rgblight_status+2
 4272 002e 8460      		ori r24,lo8(4)
 4273 0030 8093 0000 		sts rgblight_status+2,r24
 837:quantum/rgblight.c **** }
 4274               		.loc 1 837 41 view .LVU1021
 4275               	/* epilogue start */
 838:quantum/rgblight.c **** void rgblight_timer_disable(void) {
 4276               		.loc 1 838 1 is_stmt 0 view .LVU1022
 4277 0034 0895      		ret
 4278               		.cfi_endproc
 4279               	.LFE167:
 4281               		.section	.text.rgblight_mode_eeprom_helper,"ax",@progbits
 4282               	.global	rgblight_mode_eeprom_helper
 4284               	rgblight_mode_eeprom_helper:
 4285               	.LVL271:
 4286               	.LFB108:
 289:quantum/rgblight.c ****     if (!rgblight_config.enable) {
 4287               		.loc 1 289 70 is_stmt 1 view -0
 4288               		.cfi_startproc
 4289               	/* prologue: function */
 4290               	/* frame size = 0 */
 4291               	/* stack size = 0 */
 4292               	.L__stack_usage = 0
 290:quantum/rgblight.c ****         return;
 4293               		.loc 1 290 5 view .LVU1024
 290:quantum/rgblight.c ****         return;
 4294               		.loc 1 290 25 is_stmt 0 view .LVU1025
 4295 0000 9091 0000 		lds r25,rgblight_config
 290:quantum/rgblight.c ****         return;
 4296               		.loc 1 290 8 view .LVU1026
 4297 0004 90FF      		sbrs r25,0
 4298 0006 00C0      		rjmp .L212
 293:quantum/rgblight.c ****         rgblight_config.mode = RGBLIGHT_MODE_STATIC_LIGHT;
 4299               		.loc 1 293 5 is_stmt 1 view .LVU1027
 4300 0008 9170      		andi r25,lo8(1)
 293:quantum/rgblight.c ****         rgblight_config.mode = RGBLIGHT_MODE_STATIC_LIGHT;
 4301               		.loc 1 293 8 is_stmt 0 view .LVU1028
 4302 000a 8111      		cpse r24,__zero_reg__
 4303 000c 00C0      		rjmp .L214
 294:quantum/rgblight.c ****     } else if (mode > RGBLIGHT_MODES) {
 4304               		.loc 1 294 9 is_stmt 1 view .LVU1029
 294:quantum/rgblight.c ****     } else if (mode > RGBLIGHT_MODES) {
 4305               		.loc 1 294 30 is_stmt 0 view .LVU1030
 4306 000e 9260      		ori r25,lo8(2)
 4307               	.LVL272:
 4308               	.L223:
 298:quantum/rgblight.c ****     }
 4309               		.loc 1 298 30 view .LVU1031
 4310 0010 9093 0000 		sts rgblight_config,r25
 300:quantum/rgblight.c ****     if (write_to_eeprom) {
 4311               		.loc 1 300 5 is_stmt 1 view .LVU1032
 4312 0014 8091 0000 		lds r24,rgblight_status+2
 4313 0018 8160      		ori r24,lo8(1)
 4314 001a 8093 0000 		sts rgblight_status+2,r24
 301:quantum/rgblight.c ****         eeconfig_update_rgblight(rgblight_config.raw);
 4315               		.loc 1 301 5 view .LVU1033
 301:quantum/rgblight.c ****         eeconfig_update_rgblight(rgblight_config.raw);
 4316               		.loc 1 301 8 is_stmt 0 view .LVU1034
 4317 001e 6623      		tst r22
 4318 0020 01F0      		breq .L217
 302:quantum/rgblight.c ****         dprintf("rgblight mode [EEPROM]: %u\n", rgblight_config.mode);
 4319               		.loc 1 302 9 is_stmt 1 view .LVU1035
 4320 0022 6091 0000 		lds r22,rgblight_config
 4321 0026 7091 0000 		lds r23,rgblight_config+1
 4322 002a 8091 0000 		lds r24,rgblight_config+2
 4323 002e 9091 0000 		lds r25,rgblight_config+3
 4324               	.LVL273:
 302:quantum/rgblight.c ****         dprintf("rgblight mode [EEPROM]: %u\n", rgblight_config.mode);
 4325               		.loc 1 302 9 is_stmt 0 view .LVU1036
 4326 0032 0E94 0000 		call eeconfig_update_rgblight
 4327               	.LVL274:
 303:quantum/rgblight.c ****     } else {
 4328               		.loc 1 303 70 is_stmt 1 view .LVU1037
 4329               	.L217:
 305:quantum/rgblight.c ****     }
 4330               		.loc 1 305 72 view .LVU1038
 307:quantum/rgblight.c ****         rgblight_timer_disable();
 4331               		.loc 1 307 5 view .LVU1039
 4332               	.LBB84:
 4333               	.LBI84:
  84:quantum/rgblight.c **** 
 4334               		.loc 1 84 19 view .LVU1040
 4335               	.LBB85:
  84:quantum/rgblight.c **** 
 4336               		.loc 1 84 52 view .LVU1041
 4337               	.LBE85:
 4338               	.LBE84:
 307:quantum/rgblight.c ****         rgblight_timer_disable();
 4339               		.loc 1 307 41 is_stmt 0 view .LVU1042
 4340 0036 6091 0000 		lds r22,rgblight_config
 4341 003a 6695      		lsr r22
 4342               	.LBB87:
 4343               	.LBB86:
  84:quantum/rgblight.c **** 
 4344               		.loc 1 84 59 view .LVU1043
 4345 003c 70E0      		ldi r23,0
 4346 003e 4BE0      		ldi r20,lo8(11)
 4347 0040 50E0      		ldi r21,0
 4348 0042 80E0      		ldi r24,lo8(static_effect_table)
 4349 0044 90E0      		ldi r25,hi8(static_effect_table)
 4350 0046 0E94 0000 		call memchr
 4351               	.LVL275:
  84:quantum/rgblight.c **** 
 4352               		.loc 1 84 59 view .LVU1044
 4353               	.LBE86:
 4354               	.LBE87:
 307:quantum/rgblight.c ****         rgblight_timer_disable();
 4355               		.loc 1 307 8 view .LVU1045
 4356 004a 892B      		or r24,r25
 4357 004c 01F0      		breq .L218
 308:quantum/rgblight.c ****     } else {
 4358               		.loc 1 308 9 is_stmt 1 view .LVU1046
 4359 004e 0E94 0000 		call rgblight_timer_init
 4360               	.LVL276:
 4361               	.L219:
 313:quantum/rgblight.c **** #endif
 4362               		.loc 1 313 5 view .LVU1047
 313:quantum/rgblight.c **** #endif
 4363               		.loc 1 313 30 is_stmt 0 view .LVU1048
 4364 0052 81E0      		ldi r24,lo8(1)
 4365 0054 8093 0000 		sts animation_status+3,r24
 315:quantum/rgblight.c **** }
 4366               		.loc 1 315 5 is_stmt 1 view .LVU1049
 4367 0058 4091 0000 		lds r20,rgblight_config+3
 4368 005c 6091 0000 		lds r22,rgblight_config+2
 4369 0060 8091 0000 		lds r24,rgblight_config+1
 4370 0064 0C94 0000 		jmp rgblight_sethsv_noeeprom
 4371               	.LVL277:
 4372               	.L214:
 295:quantum/rgblight.c ****         rgblight_config.mode = RGBLIGHT_MODES;
 4373               		.loc 1 295 12 view .LVU1050
 295:quantum/rgblight.c ****         rgblight_config.mode = RGBLIGHT_MODES;
 4374               		.loc 1 295 15 is_stmt 0 view .LVU1051
 4375 0068 8B32      		cpi r24,lo8(43)
 4376 006a 00F0      		brlo .L216
 296:quantum/rgblight.c ****     } else {
 4377               		.loc 1 296 9 is_stmt 1 view .LVU1052
 296:quantum/rgblight.c ****     } else {
 4378               		.loc 1 296 30 is_stmt 0 view .LVU1053
 4379 006c 9465      		ori r25,lo8(84)
 4380 006e 00C0      		rjmp .L223
 4381               	.L216:
 298:quantum/rgblight.c ****     }
 4382               		.loc 1 298 9 is_stmt 1 view .LVU1054
 298:quantum/rgblight.c ****     }
 4383               		.loc 1 298 30 is_stmt 0 view .LVU1055
 4384 0070 880F      		lsl r24
 4385               	.LVL278:
 298:quantum/rgblight.c ****     }
 4386               		.loc 1 298 30 view .LVU1056
 4387 0072 982B      		or r25,r24
 4388 0074 00C0      		rjmp .L223
 4389               	.LVL279:
 4390               	.L218:
 310:quantum/rgblight.c ****     }
 4391               		.loc 1 310 9 is_stmt 1 view .LVU1057
 4392 0076 0E94 0000 		call rgblight_timer_enable
 4393               	.LVL280:
 4394 007a 00C0      		rjmp .L219
 4395               	.LVL281:
 4396               	.L212:
 4397               	/* epilogue start */
 316:quantum/rgblight.c **** 
 4398               		.loc 1 316 1 is_stmt 0 view .LVU1058
 4399 007c 0895      		ret
 4400               		.cfi_endproc
 4401               	.LFE108:
 4403               		.section	.text.rgblight_step_helper,"ax",@progbits
 4404               	.global	rgblight_step_helper
 4406               	rgblight_step_helper:
 4407               	.LVL282:
 4408               	.LFB101:
 260:quantum/rgblight.c ****     uint8_t mode = 0;
 4409               		.loc 1 260 49 is_stmt 1 view -0
 4410               		.cfi_startproc
 4411               	/* prologue: function */
 4412               	/* frame size = 0 */
 4413               	/* stack size = 0 */
 4414               	.L__stack_usage = 0
 260:quantum/rgblight.c ****     uint8_t mode = 0;
 4415               		.loc 1 260 49 is_stmt 0 view .LVU1060
 4416 0000 682F      		mov r22,r24
 261:quantum/rgblight.c ****     mode         = rgblight_config.mode + 1;
 4417               		.loc 1 261 5 is_stmt 1 view .LVU1061
 4418               	.LVL283:
 262:quantum/rgblight.c ****     if (mode > RGBLIGHT_MODES) {
 4419               		.loc 1 262 5 view .LVU1062
 262:quantum/rgblight.c ****     if (mode > RGBLIGHT_MODES) {
 4420               		.loc 1 262 35 is_stmt 0 view .LVU1063
 4421 0002 9091 0000 		lds r25,rgblight_config
 4422 0006 9695      		lsr r25
 262:quantum/rgblight.c ****     if (mode > RGBLIGHT_MODES) {
 4423               		.loc 1 262 18 view .LVU1064
 4424 0008 81E0      		ldi r24,lo8(1)
 4425               	.LVL284:
 262:quantum/rgblight.c ****     if (mode > RGBLIGHT_MODES) {
 4426               		.loc 1 262 18 view .LVU1065
 4427 000a 890F      		add r24,r25
 4428               	.LVL285:
 263:quantum/rgblight.c ****         mode = 1;
 4429               		.loc 1 263 5 is_stmt 1 view .LVU1066
 263:quantum/rgblight.c ****         mode = 1;
 4430               		.loc 1 263 8 is_stmt 0 view .LVU1067
 4431 000c 8B32      		cpi r24,lo8(43)
 4432 000e 00F0      		brlo .L225
 264:quantum/rgblight.c ****     }
 4433               		.loc 1 264 14 view .LVU1068
 4434 0010 81E0      		ldi r24,lo8(1)
 4435               	.LVL286:
 4436               	.L225:
 266:quantum/rgblight.c **** }
 4437               		.loc 1 266 5 is_stmt 1 view .LVU1069
 4438 0012 0C94 0000 		jmp rgblight_mode_eeprom_helper
 4439               	.LVL287:
 266:quantum/rgblight.c **** }
 4440               		.loc 1 266 5 is_stmt 0 view .LVU1070
 4441               		.cfi_endproc
 4442               	.LFE101:
 4444               		.section	.text.rgblight_step_noeeprom,"ax",@progbits
 4445               	.global	rgblight_step_noeeprom
 4447               	rgblight_step_noeeprom:
 4448               	.LFB102:
 268:quantum/rgblight.c **** void rgblight_step(void) { rgblight_step_helper(true); }
 4449               		.loc 1 268 35 is_stmt 1 view -0
 4450               		.cfi_startproc
 4451               	/* prologue: function */
 4452               	/* frame size = 0 */
 4453               	/* stack size = 0 */
 4454               	.L__stack_usage = 0
 268:quantum/rgblight.c **** void rgblight_step(void) { rgblight_step_helper(true); }
 4455               		.loc 1 268 37 view .LVU1072
 4456 0000 80E0      		ldi r24,0
 4457 0002 0C94 0000 		jmp rgblight_step_helper
 4458               	.LVL288:
 4459               		.cfi_endproc
 4460               	.LFE102:
 4462               		.section	.text.rgblight_step,"ax",@progbits
 4463               	.global	rgblight_step
 4465               	rgblight_step:
 4466               	.LFB103:
 269:quantum/rgblight.c **** void rgblight_step_reverse_helper(bool write_to_eeprom) {
 4467               		.loc 1 269 26 view -0
 4468               		.cfi_startproc
 4469               	/* prologue: function */
 4470               	/* frame size = 0 */
 4471               	/* stack size = 0 */
 4472               	.L__stack_usage = 0
 269:quantum/rgblight.c **** void rgblight_step_reverse_helper(bool write_to_eeprom) {
 4473               		.loc 1 269 28 view .LVU1074
 4474 0000 81E0      		ldi r24,lo8(1)
 4475 0002 0C94 0000 		jmp rgblight_step_helper
 4476               	.LVL289:
 4477               		.cfi_endproc
 4478               	.LFE103:
 4480               		.section	.text.rgblight_step_reverse_helper,"ax",@progbits
 4481               	.global	rgblight_step_reverse_helper
 4483               	rgblight_step_reverse_helper:
 4484               	.LVL290:
 4485               	.LFB104:
 270:quantum/rgblight.c ****     uint8_t mode = 0;
 4486               		.loc 1 270 57 view -0
 4487               		.cfi_startproc
 4488               	/* prologue: function */
 4489               	/* frame size = 0 */
 4490               	/* stack size = 0 */
 4491               	.L__stack_usage = 0
 270:quantum/rgblight.c ****     uint8_t mode = 0;
 4492               		.loc 1 270 57 is_stmt 0 view .LVU1076
 4493 0000 682F      		mov r22,r24
 271:quantum/rgblight.c ****     mode         = rgblight_config.mode - 1;
 4494               		.loc 1 271 5 is_stmt 1 view .LVU1077
 4495               	.LVL291:
 272:quantum/rgblight.c ****     if (mode < 1) {
 4496               		.loc 1 272 5 view .LVU1078
 272:quantum/rgblight.c ****     if (mode < 1) {
 4497               		.loc 1 272 35 is_stmt 0 view .LVU1079
 4498 0002 9091 0000 		lds r25,rgblight_config
 4499 0006 9695      		lsr r25
 272:quantum/rgblight.c ****     if (mode < 1) {
 4500               		.loc 1 272 18 view .LVU1080
 4501 0008 8FEF      		ldi r24,lo8(-1)
 4502               	.LVL292:
 272:quantum/rgblight.c ****     if (mode < 1) {
 4503               		.loc 1 272 18 view .LVU1081
 4504 000a 890F      		add r24,r25
 4505               	.LVL293:
 273:quantum/rgblight.c ****         mode = RGBLIGHT_MODES;
 4506               		.loc 1 273 5 is_stmt 1 view .LVU1082
 273:quantum/rgblight.c ****         mode = RGBLIGHT_MODES;
 4507               		.loc 1 273 8 is_stmt 0 view .LVU1083
 4508 000c 01F4      		brne .L229
 274:quantum/rgblight.c ****     }
 4509               		.loc 1 274 14 view .LVU1084
 4510 000e 8AE2      		ldi r24,lo8(42)
 4511               	.LVL294:
 4512               	.L229:
 276:quantum/rgblight.c **** }
 4513               		.loc 1 276 5 is_stmt 1 view .LVU1085
 4514 0010 0C94 0000 		jmp rgblight_mode_eeprom_helper
 4515               	.LVL295:
 276:quantum/rgblight.c **** }
 4516               		.loc 1 276 5 is_stmt 0 view .LVU1086
 4517               		.cfi_endproc
 4518               	.LFE104:
 4520               		.section	.text.rgblight_step_reverse_noeeprom,"ax",@progbits
 4521               	.global	rgblight_step_reverse_noeeprom
 4523               	rgblight_step_reverse_noeeprom:
 4524               	.LFB105:
 278:quantum/rgblight.c **** void rgblight_step_reverse(void) { rgblight_step_reverse_helper(true); }
 4525               		.loc 1 278 43 is_stmt 1 view -0
 4526               		.cfi_startproc
 4527               	/* prologue: function */
 4528               	/* frame size = 0 */
 4529               	/* stack size = 0 */
 4530               	.L__stack_usage = 0
 278:quantum/rgblight.c **** void rgblight_step_reverse(void) { rgblight_step_reverse_helper(true); }
 4531               		.loc 1 278 45 view .LVU1088
 4532 0000 80E0      		ldi r24,0
 4533 0002 0C94 0000 		jmp rgblight_step_reverse_helper
 4534               	.LVL296:
 4535               		.cfi_endproc
 4536               	.LFE105:
 4538               		.section	.text.rgblight_step_reverse,"ax",@progbits
 4539               	.global	rgblight_step_reverse
 4541               	rgblight_step_reverse:
 4542               	.LFB106:
 279:quantum/rgblight.c **** 
 4543               		.loc 1 279 34 view -0
 4544               		.cfi_startproc
 4545               	/* prologue: function */
 4546               	/* frame size = 0 */
 4547               	/* stack size = 0 */
 4548               	.L__stack_usage = 0
 279:quantum/rgblight.c **** 
 4549               		.loc 1 279 36 view .LVU1090
 4550 0000 81E0      		ldi r24,lo8(1)
 4551 0002 0C94 0000 		jmp rgblight_step_reverse_helper
 4552               	.LVL297:
 4553               		.cfi_endproc
 4554               	.LFE106:
 4556               		.section	.text.rgblight_mode,"ax",@progbits
 4557               	.global	rgblight_mode
 4559               	rgblight_mode:
 4560               	.LVL298:
 4561               	.LFB109:
 318:quantum/rgblight.c **** 
 4562               		.loc 1 318 34 view -0
 4563               		.cfi_startproc
 4564               	/* prologue: function */
 4565               	/* frame size = 0 */
 4566               	/* stack size = 0 */
 4567               	.L__stack_usage = 0
 318:quantum/rgblight.c **** 
 4568               		.loc 1 318 36 view .LVU1092
 4569 0000 61E0      		ldi r22,lo8(1)
 4570 0002 0C94 0000 		jmp rgblight_mode_eeprom_helper
 4571               	.LVL299:
 318:quantum/rgblight.c **** 
 4572               		.loc 1 318 36 is_stmt 0 view .LVU1093
 4573               		.cfi_endproc
 4574               	.LFE109:
 4576               		.section	.text.rgblight_increase,"ax",@progbits
 4577               	.global	rgblight_increase
 4579               	rgblight_increase:
 4580               	.LFB99:
 245:quantum/rgblight.c ****     uint8_t mode = 0;
 4581               		.loc 1 245 30 is_stmt 1 view -0
 4582               		.cfi_startproc
 4583               	/* prologue: function */
 4584               	/* frame size = 0 */
 4585               	/* stack size = 0 */
 4586               	.L__stack_usage = 0
 246:quantum/rgblight.c ****     if (rgblight_config.mode < RGBLIGHT_MODES) {
 4587               		.loc 1 246 5 view .LVU1095
 4588               	.LVL300:
 247:quantum/rgblight.c ****         mode = rgblight_config.mode + 1;
 4589               		.loc 1 247 5 view .LVU1096
 247:quantum/rgblight.c ****         mode = rgblight_config.mode + 1;
 4590               		.loc 1 247 24 is_stmt 0 view .LVU1097
 4591 0000 8091 0000 		lds r24,rgblight_config
 4592 0004 8695      		lsr r24
 247:quantum/rgblight.c ****         mode = rgblight_config.mode + 1;
 4593               		.loc 1 247 8 view .LVU1098
 4594 0006 8A32      		cpi r24,lo8(42)
 4595 0008 00F4      		brsh .L235
 248:quantum/rgblight.c ****     }
 4596               		.loc 1 248 9 is_stmt 1 view .LVU1099
 248:quantum/rgblight.c ****     }
 4597               		.loc 1 248 14 is_stmt 0 view .LVU1100
 4598 000a 8F5F      		subi r24,lo8(-(1))
 4599               	.LVL301:
 4600               	.L234:
 250:quantum/rgblight.c **** }
 4601               		.loc 1 250 5 is_stmt 1 view .LVU1101
 4602 000c 0C94 0000 		jmp rgblight_mode
 4603               	.LVL302:
 4604               	.L235:
 246:quantum/rgblight.c ****     if (rgblight_config.mode < RGBLIGHT_MODES) {
 4605               		.loc 1 246 13 is_stmt 0 view .LVU1102
 4606 0010 80E0      		ldi r24,0
 4607 0012 00C0      		rjmp .L234
 4608               		.cfi_endproc
 4609               	.LFE99:
 4611               		.section	.text.rgblight_decrease,"ax",@progbits
 4612               	.global	rgblight_decrease
 4614               	rgblight_decrease:
 4615               	.LFB100:
 252:quantum/rgblight.c ****     uint8_t mode = 0;
 4616               		.loc 1 252 30 is_stmt 1 view -0
 4617               		.cfi_startproc
 4618               	/* prologue: function */
 4619               	/* frame size = 0 */
 4620               	/* stack size = 0 */
 4621               	.L__stack_usage = 0
 253:quantum/rgblight.c ****     // Mode will never be < 1. If it ever is, eeprom needs to be initialized.
 4622               		.loc 1 253 5 view .LVU1104
 4623               	.LVL303:
 255:quantum/rgblight.c ****         mode = rgblight_config.mode - 1;
 4624               		.loc 1 255 5 view .LVU1105
 255:quantum/rgblight.c ****         mode = rgblight_config.mode - 1;
 4625               		.loc 1 255 24 is_stmt 0 view .LVU1106
 4626 0000 8091 0000 		lds r24,rgblight_config
 4627 0004 8695      		lsr r24
 255:quantum/rgblight.c ****         mode = rgblight_config.mode - 1;
 4628               		.loc 1 255 8 view .LVU1107
 4629 0006 8230      		cpi r24,lo8(2)
 4630 0008 00F0      		brlo .L238
 256:quantum/rgblight.c ****     }
 4631               		.loc 1 256 9 is_stmt 1 view .LVU1108
 256:quantum/rgblight.c ****     }
 4632               		.loc 1 256 14 is_stmt 0 view .LVU1109
 4633 000a 8150      		subi r24,lo8(-(-1))
 4634               	.LVL304:
 4635               	.L237:
 258:quantum/rgblight.c **** }
 4636               		.loc 1 258 5 is_stmt 1 view .LVU1110
 4637 000c 0C94 0000 		jmp rgblight_mode
 4638               	.LVL305:
 4639               	.L238:
 253:quantum/rgblight.c ****     // Mode will never be < 1. If it ever is, eeprom needs to be initialized.
 4640               		.loc 1 253 13 is_stmt 0 view .LVU1111
 4641 0010 80E0      		ldi r24,0
 4642 0012 00C0      		rjmp .L237
 4643               		.cfi_endproc
 4644               	.LFE100:
 4646               		.section	.text.rgblight_enable,"ax",@progbits
 4647               	.global	rgblight_enable
 4649               	rgblight_enable:
 4650               	.LFB113:
 340:quantum/rgblight.c ****     rgblight_config.enable = 1;
 4651               		.loc 1 340 28 is_stmt 1 view -0
 4652               		.cfi_startproc
 4653               	/* prologue: function */
 4654               	/* frame size = 0 */
 4655               	/* stack size = 0 */
 4656               	.L__stack_usage = 0
 341:quantum/rgblight.c ****     // No need to update EEPROM here. rgblight_mode() will do that, actually
 4657               		.loc 1 341 5 view .LVU1113
 341:quantum/rgblight.c ****     // No need to update EEPROM here. rgblight_mode() will do that, actually
 4658               		.loc 1 341 28 is_stmt 0 view .LVU1114
 4659 0000 E0E0      		ldi r30,lo8(rgblight_config)
 4660 0002 F0E0      		ldi r31,hi8(rgblight_config)
 4661 0004 8081      		ld r24,Z
 4662 0006 8160      		ori r24,lo8(1<<0)
 4663 0008 8083      		st Z,r24
 344:quantum/rgblight.c ****     rgblight_mode(rgblight_config.mode);
 4664               		.loc 1 344 95 is_stmt 1 view .LVU1115
 345:quantum/rgblight.c **** }
 4665               		.loc 1 345 5 view .LVU1116
 4666 000a 8695      		lsr r24
 4667 000c 0C94 0000 		jmp rgblight_mode
 4668               	.LVL306:
 4669               		.cfi_endproc
 4670               	.LFE113:
 4672               		.section	.text.rgblight_toggle,"ax",@progbits
 4673               	.global	rgblight_toggle
 4675               	rgblight_toggle:
 4676               	.LFB111:
 322:quantum/rgblight.c ****     dprintf("rgblight toggle [EEPROM]: rgblight_config.enable = %u\n", !rgblight_config.enable);
 4677               		.loc 1 322 28 view -0
 4678               		.cfi_startproc
 4679               	/* prologue: function */
 4680               	/* frame size = 0 */
 4681               	/* stack size = 0 */
 4682               	.L__stack_usage = 0
 323:quantum/rgblight.c ****     if (rgblight_config.enable) {
 4683               		.loc 1 323 96 view .LVU1118
 324:quantum/rgblight.c ****         rgblight_disable();
 4684               		.loc 1 324 5 view .LVU1119
 324:quantum/rgblight.c ****         rgblight_disable();
 4685               		.loc 1 324 9 is_stmt 0 view .LVU1120
 4686 0000 8091 0000 		lds r24,rgblight_config
 324:quantum/rgblight.c ****         rgblight_disable();
 4687               		.loc 1 324 8 view .LVU1121
 4688 0004 80FD      		sbrc r24,0
 325:quantum/rgblight.c ****     } else {
 4689               		.loc 1 325 9 is_stmt 1 view .LVU1122
 4690 0006 0C94 0000 		jmp rgblight_disable
 4691               	.LVL307:
 4692               	.L241:
 327:quantum/rgblight.c ****     }
 4693               		.loc 1 327 9 view .LVU1123
 4694 000a 0C94 0000 		jmp rgblight_enable
 4695               	.LVL308:
 4696               		.cfi_endproc
 4697               	.LFE111:
 4699               		.section	.text.rgblight_mode_noeeprom,"ax",@progbits
 4700               	.global	rgblight_mode_noeeprom
 4702               	rgblight_mode_noeeprom:
 4703               	.LVL309:
 4704               	.LFB110:
 320:quantum/rgblight.c **** 
 4705               		.loc 1 320 43 view -0
 4706               		.cfi_startproc
 4707               	/* prologue: function */
 4708               	/* frame size = 0 */
 4709               	/* stack size = 0 */
 4710               	.L__stack_usage = 0
 320:quantum/rgblight.c **** 
 4711               		.loc 1 320 45 view .LVU1125
 4712 0000 60E0      		ldi r22,0
 4713 0002 0C94 0000 		jmp rgblight_mode_eeprom_helper
 4714               	.LVL310:
 320:quantum/rgblight.c **** 
 4715               		.loc 1 320 45 is_stmt 0 view .LVU1126
 4716               		.cfi_endproc
 4717               	.LFE110:
 4719               		.section	.text.rgblight_init,"ax",@progbits
 4720               	.global	rgblight_init
 4722               	rgblight_init:
 4723               	.LFB96:
 197:quantum/rgblight.c ****     /* if already initialized, don't do it again.
 4724               		.loc 1 197 26 is_stmt 1 view -0
 4725               		.cfi_startproc
 4726               	/* prologue: function */
 4727               	/* frame size = 0 */
 4728               	/* stack size = 0 */
 4729               	.L__stack_usage = 0
 201:quantum/rgblight.c ****         return;
 4730               		.loc 1 201 5 view .LVU1128
 201:quantum/rgblight.c ****         return;
 4731               		.loc 1 201 8 is_stmt 0 view .LVU1129
 4732 0000 8091 0000 		lds r24,is_rgblight_initialized
 4733 0004 8111      		cpse r24,__zero_reg__
 4734 0006 00C0      		rjmp .L243
 205:quantum/rgblight.c ****     dprintf("rgblight_init start!\n");
 4735               		.loc 1 205 39 is_stmt 1 view .LVU1130
 206:quantum/rgblight.c ****     if (!eeconfig_is_enabled()) {
 4736               		.loc 1 206 38 view .LVU1131
 207:quantum/rgblight.c ****         dprintf("rgblight_init eeconfig is not enabled.\n");
 4737               		.loc 1 207 5 view .LVU1132
 207:quantum/rgblight.c ****         dprintf("rgblight_init eeconfig is not enabled.\n");
 4738               		.loc 1 207 10 is_stmt 0 view .LVU1133
 4739 0008 0E94 0000 		call eeconfig_is_enabled
 4740               	.LVL311:
 207:quantum/rgblight.c ****         dprintf("rgblight_init eeconfig is not enabled.\n");
 4741               		.loc 1 207 8 view .LVU1134
 4742 000c 8111      		cpse r24,__zero_reg__
 4743 000e 00C0      		rjmp .L245
 208:quantum/rgblight.c ****         eeconfig_init();
 4744               		.loc 1 208 60 is_stmt 1 view .LVU1135
 209:quantum/rgblight.c ****         eeconfig_update_rgblight_default();
 4745               		.loc 1 209 9 view .LVU1136
 4746 0010 0E94 0000 		call eeconfig_init
 4747               	.LVL312:
 210:quantum/rgblight.c ****     }
 4748               		.loc 1 210 9 view .LVU1137
 4749 0014 0E94 0000 		call eeconfig_update_rgblight_default
 4750               	.LVL313:
 4751               	.L245:
 212:quantum/rgblight.c ****     RGBLIGHT_SPLIT_SET_CHANGE_MODEHSVS;
 4752               		.loc 1 212 5 view .LVU1138
 212:quantum/rgblight.c ****     RGBLIGHT_SPLIT_SET_CHANGE_MODEHSVS;
 4753               		.loc 1 212 27 is_stmt 0 view .LVU1139
 4754 0018 0E94 0000 		call eeconfig_read_rgblight
 4755               	.LVL314:
 212:quantum/rgblight.c ****     RGBLIGHT_SPLIT_SET_CHANGE_MODEHSVS;
 4756               		.loc 1 212 25 view .LVU1140
 4757 001c 6093 0000 		sts rgblight_config,r22
 4758 0020 7093 0000 		sts rgblight_config+1,r23
 4759 0024 8093 0000 		sts rgblight_config+2,r24
 4760 0028 9093 0000 		sts rgblight_config+3,r25
 213:quantum/rgblight.c ****     if (!rgblight_config.mode) {
 4761               		.loc 1 213 5 is_stmt 1 view .LVU1141
 4762 002c 8091 0000 		lds r24,rgblight_status+2
 4763 0030 8360      		ori r24,lo8(3)
 4764 0032 8093 0000 		sts rgblight_status+2,r24
 214:quantum/rgblight.c ****         dprintf("rgblight_init rgblight_config.mode = 0. Write default values to EEPROM.\n");
 4765               		.loc 1 214 5 view .LVU1142
 214:quantum/rgblight.c ****         dprintf("rgblight_init rgblight_config.mode = 0. Write default values to EEPROM.\n");
 4766               		.loc 1 214 9 is_stmt 0 view .LVU1143
 4767 0036 6E7F      		andi r22,lo8(-2)
 214:quantum/rgblight.c ****         dprintf("rgblight_init rgblight_config.mode = 0. Write default values to EEPROM.\n");
 4768               		.loc 1 214 8 view .LVU1144
 4769 0038 01F4      		brne .L246
 215:quantum/rgblight.c ****         eeconfig_update_rgblight_default();
 4770               		.loc 1 215 93 is_stmt 1 view .LVU1145
 216:quantum/rgblight.c ****         rgblight_config.raw = eeconfig_read_rgblight();
 4771               		.loc 1 216 9 view .LVU1146
 4772 003a 0E94 0000 		call eeconfig_update_rgblight_default
 4773               	.LVL315:
 217:quantum/rgblight.c ****     }
 4774               		.loc 1 217 9 view .LVU1147
 217:quantum/rgblight.c ****     }
 4775               		.loc 1 217 31 is_stmt 0 view .LVU1148
 4776 003e 0E94 0000 		call eeconfig_read_rgblight
 4777               	.LVL316:
 217:quantum/rgblight.c ****     }
 4778               		.loc 1 217 29 view .LVU1149
 4779 0042 6093 0000 		sts rgblight_config,r22
 4780 0046 7093 0000 		sts rgblight_config+1,r23
 4781 004a 8093 0000 		sts rgblight_config+2,r24
 4782 004e 9093 0000 		sts rgblight_config+3,r25
 4783               	.L246:
 219:quantum/rgblight.c **** 
 4784               		.loc 1 219 5 is_stmt 1 view .LVU1150
 4785 0052 0E94 0000 		call rgblight_check_config
 4786               	.LVL317:
 221:quantum/rgblight.c **** 
 4787               		.loc 1 221 5 view .LVU1151
 223:quantum/rgblight.c **** 
 4788               		.loc 1 223 5 view .LVU1152
 4789 0056 0E94 0000 		call rgblight_timer_init
 4790               	.LVL318:
 225:quantum/rgblight.c ****         rgblight_mode_noeeprom(rgblight_config.mode);
 4791               		.loc 1 225 5 view .LVU1153
 225:quantum/rgblight.c ****         rgblight_mode_noeeprom(rgblight_config.mode);
 4792               		.loc 1 225 9 is_stmt 0 view .LVU1154
 4793 005a 8091 0000 		lds r24,rgblight_config
 225:quantum/rgblight.c ****         rgblight_mode_noeeprom(rgblight_config.mode);
 4794               		.loc 1 225 8 view .LVU1155
 4795 005e 80FF      		sbrs r24,0
 4796 0060 00C0      		rjmp .L247
 226:quantum/rgblight.c ****     }
 4797               		.loc 1 226 9 is_stmt 1 view .LVU1156
 4798 0062 8695      		lsr r24
 4799 0064 0E94 0000 		call rgblight_mode_noeeprom
 4800               	.LVL319:
 4801               	.L247:
 229:quantum/rgblight.c **** }
 4802               		.loc 1 229 5 view .LVU1157
 229:quantum/rgblight.c **** }
 4803               		.loc 1 229 29 is_stmt 0 view .LVU1158
 4804 0068 81E0      		ldi r24,lo8(1)
 4805 006a 8093 0000 		sts is_rgblight_initialized,r24
 4806               	.L243:
 4807               	/* epilogue start */
 230:quantum/rgblight.c **** 
 4808               		.loc 1 230 1 view .LVU1159
 4809 006e 0895      		ret
 4810               		.cfi_endproc
 4811               	.LFE96:
 4813               		.section	.text.rgblight_enable_noeeprom,"ax",@progbits
 4814               	.global	rgblight_enable_noeeprom
 4816               	rgblight_enable_noeeprom:
 4817               	.LFB114:
 348:quantum/rgblight.c ****     rgblight_config.enable = 1;
 4818               		.loc 1 348 37 is_stmt 1 view -0
 4819               		.cfi_startproc
 4820               	/* prologue: function */
 4821               	/* frame size = 0 */
 4822               	/* stack size = 0 */
 4823               	.L__stack_usage = 0
 349:quantum/rgblight.c ****     dprintf("rgblight enable [NOEEPROM]: rgblight_config.enable = %u\n", rgblight_config.enable);
 4824               		.loc 1 349 5 view .LVU1161
 349:quantum/rgblight.c ****     dprintf("rgblight enable [NOEEPROM]: rgblight_config.enable = %u\n", rgblight_config.enable);
 4825               		.loc 1 349 28 is_stmt 0 view .LVU1162
 4826 0000 E0E0      		ldi r30,lo8(rgblight_config)
 4827 0002 F0E0      		ldi r31,hi8(rgblight_config)
 4828 0004 8081      		ld r24,Z
 4829 0006 8160      		ori r24,lo8(1<<0)
 4830 0008 8083      		st Z,r24
 350:quantum/rgblight.c ****     rgblight_mode_noeeprom(rgblight_config.mode);
 4831               		.loc 1 350 97 is_stmt 1 view .LVU1163
 351:quantum/rgblight.c **** }
 4832               		.loc 1 351 5 view .LVU1164
 4833 000a 8695      		lsr r24
 4834 000c 0C94 0000 		jmp rgblight_mode_noeeprom
 4835               	.LVL320:
 4836               		.cfi_endproc
 4837               	.LFE114:
 4839               		.section	.text.rgblight_toggle_noeeprom,"ax",@progbits
 4840               	.global	rgblight_toggle_noeeprom
 4842               	rgblight_toggle_noeeprom:
 4843               	.LFB112:
 331:quantum/rgblight.c ****     dprintf("rgblight toggle [NOEEPROM]: rgblight_config.enable = %u\n", !rgblight_config.enable);
 4844               		.loc 1 331 37 view -0
 4845               		.cfi_startproc
 4846               	/* prologue: function */
 4847               	/* frame size = 0 */
 4848               	/* stack size = 0 */
 4849               	.L__stack_usage = 0
 332:quantum/rgblight.c ****     if (rgblight_config.enable) {
 4850               		.loc 1 332 98 view .LVU1166
 333:quantum/rgblight.c ****         rgblight_disable_noeeprom();
 4851               		.loc 1 333 5 view .LVU1167
 333:quantum/rgblight.c ****         rgblight_disable_noeeprom();
 4852               		.loc 1 333 9 is_stmt 0 view .LVU1168
 4853 0000 8091 0000 		lds r24,rgblight_config
 333:quantum/rgblight.c ****         rgblight_disable_noeeprom();
 4854               		.loc 1 333 8 view .LVU1169
 4855 0004 80FD      		sbrc r24,0
 334:quantum/rgblight.c ****     } else {
 4856               		.loc 1 334 9 is_stmt 1 view .LVU1170
 4857 0006 0C94 0000 		jmp rgblight_disable_noeeprom
 4858               	.LVL321:
 4859               	.L253:
 336:quantum/rgblight.c ****     }
 4860               		.loc 1 336 9 view .LVU1171
 4861 000a 0C94 0000 		jmp rgblight_enable_noeeprom
 4862               	.LVL322:
 4863               		.cfi_endproc
 4864               	.LFE112:
 4866               		.section	.text.rgblight_update_dword,"ax",@progbits
 4867               	.global	rgblight_update_dword
 4869               	rgblight_update_dword:
 4870               	.LVL323:
 4871               	.LFB98:
 234:quantum/rgblight.c ****     RGBLIGHT_SPLIT_SET_CHANGE_MODEHSVS;
 4872               		.loc 1 234 44 view -0
 4873               		.cfi_startproc
 4874               	/* prologue: function */
 4875               	/* frame size = 0 */
 4876               	/* stack size = 0 */
 4877               	.L__stack_usage = 0
 235:quantum/rgblight.c ****     rgblight_config.raw = dword;
 4878               		.loc 1 235 5 view .LVU1173
 4879 0000 2091 0000 		lds r18,rgblight_status+2
 4880 0004 2360      		ori r18,lo8(3)
 4881 0006 2093 0000 		sts rgblight_status+2,r18
 236:quantum/rgblight.c ****     if (rgblight_config.enable)
 4882               		.loc 1 236 5 view .LVU1174
 236:quantum/rgblight.c ****     if (rgblight_config.enable)
 4883               		.loc 1 236 25 is_stmt 0 view .LVU1175
 4884 000a 6093 0000 		sts rgblight_config,r22
 4885 000e 7093 0000 		sts rgblight_config+1,r23
 4886 0012 8093 0000 		sts rgblight_config+2,r24
 4887 0016 9093 0000 		sts rgblight_config+3,r25
 237:quantum/rgblight.c ****         rgblight_mode_noeeprom(rgblight_config.mode);
 4888               		.loc 1 237 5 is_stmt 1 view .LVU1176
 237:quantum/rgblight.c ****         rgblight_mode_noeeprom(rgblight_config.mode);
 4889               		.loc 1 237 8 is_stmt 0 view .LVU1177
 4890 001a 60FF      		sbrs r22,0
 4891 001c 00C0      		rjmp .L255
 238:quantum/rgblight.c ****     else {
 4892               		.loc 1 238 9 is_stmt 1 view .LVU1178
 4893 001e 862F      		mov r24,r22
 4894 0020 8695      		lsr r24
 4895 0022 0C94 0000 		jmp rgblight_mode_noeeprom
 4896               	.LVL324:
 4897               	.L255:
 240:quantum/rgblight.c ****         rgblight_set();
 4898               		.loc 1 240 9 view .LVU1179
 4899 0026 0E94 0000 		call rgblight_timer_init
 4900               	.LVL325:
 241:quantum/rgblight.c ****     }
 4901               		.loc 1 241 9 view .LVU1180
 4902 002a 0C94 0000 		jmp rgblight_set
 4903               	.LVL326:
 4904               		.cfi_endproc
 4905               	.LFE98:
 4907               		.section	.text.rgblight_update_sync,"ax",@progbits
 4908               	.global	rgblight_update_sync
 4910               	rgblight_update_sync:
 4911               	.LVL327:
 4912               	.LFB165:
 771:quantum/rgblight.c **** #    ifdef RGBLIGHT_LAYERS
 4913               		.loc 1 771 80 view -0
 4914               		.cfi_startproc
 771:quantum/rgblight.c **** #    ifdef RGBLIGHT_LAYERS
 4915               		.loc 1 771 80 is_stmt 0 view .LVU1182
 4916 0000 1F93      		push r17
 4917               	.LCFI95:
 4918               		.cfi_def_cfa_offset 3
 4919               		.cfi_offset 17, -2
 4920 0002 CF93      		push r28
 4921               	.LCFI96:
 4922               		.cfi_def_cfa_offset 4
 4923               		.cfi_offset 28, -3
 4924 0004 DF93      		push r29
 4925               	.LCFI97:
 4926               		.cfi_def_cfa_offset 5
 4927               		.cfi_offset 29, -4
 4928               	/* prologue: function */
 4929               	/* frame size = 0 */
 4930               	/* stack size = 3 */
 4931               	.L__stack_usage = 3
 4932 0006 EC01      		movw r28,r24
 4933 0008 162F      		mov r17,r22
 777:quantum/rgblight.c ****         if (syncinfo->config.enable) {
 4934               		.loc 1 777 5 is_stmt 1 view .LVU1183
 777:quantum/rgblight.c ****         if (syncinfo->config.enable) {
 4935               		.loc 1 777 8 is_stmt 0 view .LVU1184
 4936 000a 8F81      		ldd r24,Y+7
 4937               	.LVL328:
 777:quantum/rgblight.c ****         if (syncinfo->config.enable) {
 4938               		.loc 1 777 8 view .LVU1185
 4939 000c 80FF      		sbrs r24,0
 4940 000e 00C0      		rjmp .L257
 778:quantum/rgblight.c ****             rgblight_config.enable = 1;  // == rgblight_enable_noeeprom();
 4941               		.loc 1 778 9 is_stmt 1 view .LVU1186
 778:quantum/rgblight.c ****             rgblight_config.enable = 1;  // == rgblight_enable_noeeprom();
 4942               		.loc 1 778 13 is_stmt 0 view .LVU1187
 4943 0010 8881      		ld r24,Y
 778:quantum/rgblight.c ****             rgblight_config.enable = 1;  // == rgblight_enable_noeeprom();
 4944               		.loc 1 778 12 view .LVU1188
 4945 0012 80FF      		sbrs r24,0
 4946 0014 00C0      		rjmp .L258
 779:quantum/rgblight.c ****             rgblight_mode_eeprom_helper(syncinfo->config.mode, write_to_eeprom);
 4947               		.loc 1 779 13 is_stmt 1 view .LVU1189
 779:quantum/rgblight.c ****             rgblight_mode_eeprom_helper(syncinfo->config.mode, write_to_eeprom);
 4948               		.loc 1 779 36 is_stmt 0 view .LVU1190
 4949 0016 8091 0000 		lds r24,rgblight_config
 4950 001a 8160      		ori r24,lo8(1<<0)
 4951 001c 8093 0000 		sts rgblight_config,r24
 780:quantum/rgblight.c ****         } else {
 4952               		.loc 1 780 13 is_stmt 1 view .LVU1191
 780:quantum/rgblight.c ****         } else {
 4953               		.loc 1 780 57 is_stmt 0 view .LVU1192
 4954 0020 8881      		ld r24,Y
 780:quantum/rgblight.c ****         } else {
 4955               		.loc 1 780 13 view .LVU1193
 4956 0022 8695      		lsr r24
 4957 0024 0E94 0000 		call rgblight_mode_eeprom_helper
 4958               	.LVL329:
 4959               	.L257:
 785:quantum/rgblight.c ****         rgblight_sethsv_eeprom_helper(syncinfo->config.hue, syncinfo->config.sat, syncinfo->config.
 4960               		.loc 1 785 5 is_stmt 1 view .LVU1194
 785:quantum/rgblight.c ****         rgblight_sethsv_eeprom_helper(syncinfo->config.hue, syncinfo->config.sat, syncinfo->config.
 4961               		.loc 1 785 8 is_stmt 0 view .LVU1195
 4962 0028 8F81      		ldd r24,Y+7
 4963 002a 81FF      		sbrs r24,1
 4964 002c 00C0      		rjmp .L259
 786:quantum/rgblight.c ****         // rgblight_config.speed = config->speed; // NEED???
 4965               		.loc 1 786 9 is_stmt 1 view .LVU1196
 4966 002e 212F      		mov r18,r17
 4967 0030 4B81      		ldd r20,Y+3
 4968 0032 6A81      		ldd r22,Y+2
 4969 0034 8981      		ldd r24,Y+1
 4970 0036 0E94 0000 		call rgblight_sethsv_eeprom_helper
 4971               	.LVL330:
 4972               	.L259:
 790:quantum/rgblight.c ****         if (syncinfo->status.timer_enabled) {
 4973               		.loc 1 790 5 view .LVU1197
 790:quantum/rgblight.c ****         if (syncinfo->status.timer_enabled) {
 4974               		.loc 1 790 8 is_stmt 0 view .LVU1198
 4975 003a 8F81      		ldd r24,Y+7
 4976 003c 82FF      		sbrs r24,2
 4977 003e 00C0      		rjmp .L260
 791:quantum/rgblight.c ****             rgblight_timer_enable();
 4978               		.loc 1 791 9 is_stmt 1 view .LVU1199
 791:quantum/rgblight.c ****             rgblight_timer_enable();
 4979               		.loc 1 791 12 is_stmt 0 view .LVU1200
 4980 0040 8E81      		ldd r24,Y+6
 4981 0042 8823      		tst r24
 4982 0044 01F0      		breq .L261
 792:quantum/rgblight.c ****         } else {
 4983               		.loc 1 792 13 is_stmt 1 view .LVU1201
 4984 0046 0E94 0000 		call rgblight_timer_enable
 4985               	.LVL331:
 4986               	.L260:
 798:quantum/rgblight.c ****         animation_status.restart = true;
 4987               		.loc 1 798 5 view .LVU1202
 798:quantum/rgblight.c ****         animation_status.restart = true;
 4988               		.loc 1 798 8 is_stmt 0 view .LVU1203
 4989 004a 8F81      		ldd r24,Y+7
 4990 004c 83FF      		sbrs r24,3
 4991 004e 00C0      		rjmp .L256
 799:quantum/rgblight.c ****     }
 4992               		.loc 1 799 9 is_stmt 1 view .LVU1204
 799:quantum/rgblight.c ****     }
 4993               		.loc 1 799 34 is_stmt 0 view .LVU1205
 4994 0050 81E0      		ldi r24,lo8(1)
 4995 0052 8093 0000 		sts animation_status+3,r24
 4996               	.L256:
 4997               	/* epilogue start */
 803:quantum/rgblight.c **** #endif /* RGBLIGHT_SPLIT */
 4998               		.loc 1 803 1 view .LVU1206
 4999 0056 DF91      		pop r29
 5000 0058 CF91      		pop r28
 5001               	.LVL332:
 803:quantum/rgblight.c **** #endif /* RGBLIGHT_SPLIT */
 5002               		.loc 1 803 1 view .LVU1207
 5003 005a 1F91      		pop r17
 5004               	.LVL333:
 803:quantum/rgblight.c **** #endif /* RGBLIGHT_SPLIT */
 5005               		.loc 1 803 1 view .LVU1208
 5006 005c 0895      		ret
 5007               	.LVL334:
 5008               	.L258:
 782:quantum/rgblight.c ****         }
 5009               		.loc 1 782 13 is_stmt 1 view .LVU1209
 5010 005e 0E94 0000 		call rgblight_disable_noeeprom
 5011               	.LVL335:
 5012 0062 00C0      		rjmp .L257
 5013               	.L261:
 794:quantum/rgblight.c ****         }
 5014               		.loc 1 794 13 view .LVU1210
 5015 0064 0E94 0000 		call rgblight_timer_init
 5016               	.LVL336:
 5017 0068 00C0      		rjmp .L260
 5018               		.cfi_endproc
 5019               	.LFE165:
 5021               		.section	.text.rgblight_timer_disable,"ax",@progbits
 5022               	.global	rgblight_timer_disable
 5024               	rgblight_timer_disable:
 5025               	.LFB184:
 5026               		.cfi_startproc
 5027               	/* prologue: function */
 5028               	/* frame size = 0 */
 5029               	/* stack size = 0 */
 5030               	.L__stack_usage = 0
 5031 0000 0C94 0000 		jmp rgblight_timer_init
 5032               		.cfi_endproc
 5033               	.LFE184:
 5035               		.section	.text.rgblight_timer_toggle,"ax",@progbits
 5036               	.global	rgblight_timer_toggle
 5038               	rgblight_timer_toggle:
 5039               	.LFB169:
 844:quantum/rgblight.c ****     dprintf("rgblight timer toggle.\n");
 5040               		.loc 1 844 34 view -0
 5041               		.cfi_startproc
 5042               	/* prologue: function */
 5043               	/* frame size = 0 */
 5044               	/* stack size = 0 */
 5045               	.L__stack_usage = 0
 845:quantum/rgblight.c ****     if (rgblight_status.timer_enabled) {
 5046               		.loc 1 845 40 view .LVU1212
 846:quantum/rgblight.c ****         rgblight_timer_disable();
 5047               		.loc 1 846 5 view .LVU1213
 846:quantum/rgblight.c ****         rgblight_timer_disable();
 5048               		.loc 1 846 8 is_stmt 0 view .LVU1214
 5049 0000 8091 0000 		lds r24,rgblight_status+1
 5050 0004 8111      		cpse r24,__zero_reg__
 847:quantum/rgblight.c ****     } else {
 5051               		.loc 1 847 9 is_stmt 1 view .LVU1215
 5052 0006 0C94 0000 		jmp rgblight_timer_init
 5053               	.LVL337:
 5054               	.L277:
 849:quantum/rgblight.c ****     }
 5055               		.loc 1 849 9 view .LVU1216
 5056 000a 0C94 0000 		jmp rgblight_timer_enable
 5057               	.LVL338:
 5058               		.cfi_endproc
 5059               	.LFE169:
 5061               		.section	.text.rgblight_show_solid_color,"ax",@progbits
 5062               	.global	rgblight_show_solid_color
 5064               	rgblight_show_solid_color:
 5065               	.LVL339:
 5066               	.LFB170:
 853:quantum/rgblight.c ****     rgblight_enable();
 5067               		.loc 1 853 65 view -0
 5068               		.cfi_startproc
 853:quantum/rgblight.c ****     rgblight_enable();
 5069               		.loc 1 853 65 is_stmt 0 view .LVU1218
 5070 0000 1F93      		push r17
 5071               	.LCFI98:
 5072               		.cfi_def_cfa_offset 3
 5073               		.cfi_offset 17, -2
 5074 0002 CF93      		push r28
 5075               	.LCFI99:
 5076               		.cfi_def_cfa_offset 4
 5077               		.cfi_offset 28, -3
 5078 0004 DF93      		push r29
 5079               	.LCFI100:
 5080               		.cfi_def_cfa_offset 5
 5081               		.cfi_offset 29, -4
 5082               	/* prologue: function */
 5083               	/* frame size = 0 */
 5084               	/* stack size = 3 */
 5085               	.L__stack_usage = 3
 5086 0006 C82F      		mov r28,r24
 5087 0008 D62F      		mov r29,r22
 5088 000a 142F      		mov r17,r20
 854:quantum/rgblight.c ****     rgblight_mode(RGBLIGHT_MODE_STATIC_LIGHT);
 5089               		.loc 1 854 5 is_stmt 1 view .LVU1219
 5090 000c 0E94 0000 		call rgblight_enable
 5091               	.LVL340:
 855:quantum/rgblight.c ****     rgblight_setrgb(r, g, b);
 5092               		.loc 1 855 5 view .LVU1220
 5093 0010 81E0      		ldi r24,lo8(1)
 5094 0012 0E94 0000 		call rgblight_mode
 5095               	.LVL341:
 856:quantum/rgblight.c **** }
 5096               		.loc 1 856 5 view .LVU1221
 5097 0016 412F      		mov r20,r17
 5098 0018 6D2F      		mov r22,r29
 5099 001a 8C2F      		mov r24,r28
 5100               	/* epilogue start */
 857:quantum/rgblight.c **** 
 5101               		.loc 1 857 1 is_stmt 0 view .LVU1222
 5102 001c DF91      		pop r29
 5103               	.LVL342:
 857:quantum/rgblight.c **** 
 5104               		.loc 1 857 1 view .LVU1223
 5105 001e CF91      		pop r28
 5106               	.LVL343:
 857:quantum/rgblight.c **** 
 5107               		.loc 1 857 1 view .LVU1224
 5108 0020 1F91      		pop r17
 5109               	.LVL344:
 856:quantum/rgblight.c **** }
 5110               		.loc 1 856 5 view .LVU1225
 5111 0022 0C94 0000 		jmp rgblight_setrgb
 5112               	.LVL345:
 856:quantum/rgblight.c **** }
 5113               		.loc 1 856 5 view .LVU1226
 5114               		.cfi_endproc
 5115               	.LFE170:
 5117               		.section	.text.rgblight_task,"ax",@progbits
 5118               	.global	rgblight_task
 5120               	rgblight_task:
 5121               	.LFB172:
 871:quantum/rgblight.c ****     if (rgblight_status.timer_enabled) {
 5122               		.loc 1 871 26 is_stmt 1 view -0
 5123               		.cfi_startproc
 5124 0000 EF92      		push r14
 5125               	.LCFI101:
 5126               		.cfi_def_cfa_offset 3
 5127               		.cfi_offset 14, -2
 5128 0002 FF92      		push r15
 5129               	.LCFI102:
 5130               		.cfi_def_cfa_offset 4
 5131               		.cfi_offset 15, -3
 5132 0004 0F93      		push r16
 5133               	.LCFI103:
 5134               		.cfi_def_cfa_offset 5
 5135               		.cfi_offset 16, -4
 5136 0006 1F93      		push r17
 5137               	.LCFI104:
 5138               		.cfi_def_cfa_offset 6
 5139               		.cfi_offset 17, -5
 5140 0008 CF93      		push r28
 5141               	.LCFI105:
 5142               		.cfi_def_cfa_offset 7
 5143               		.cfi_offset 28, -6
 5144 000a DF93      		push r29
 5145               	.LCFI106:
 5146               		.cfi_def_cfa_offset 8
 5147               		.cfi_offset 29, -7
 5148               	/* prologue: function */
 5149               	/* frame size = 0 */
 5150               	/* stack size = 6 */
 5151               	.L__stack_usage = 6
 872:quantum/rgblight.c ****         effect_func_t effect_func   = rgblight_effect_dummy;
 5152               		.loc 1 872 5 view .LVU1228
 872:quantum/rgblight.c ****         effect_func_t effect_func   = rgblight_effect_dummy;
 5153               		.loc 1 872 8 is_stmt 0 view .LVU1229
 5154 000c 8091 0000 		lds r24,rgblight_status+1
 5155 0010 8823      		tst r24
 5156 0012 01F4      		brne .+2
 5157 0014 00C0      		rjmp .L279
 5158               	.LBB109:
 873:quantum/rgblight.c ****         uint16_t      interval_time = 2000;  // dummy interval
 5159               		.loc 1 873 9 is_stmt 1 view .LVU1230
 5160               	.LVL346:
 874:quantum/rgblight.c ****         uint8_t       delta         = rgblight_config.mode - rgblight_status.base_mode;
 5161               		.loc 1 874 9 view .LVU1231
 875:quantum/rgblight.c ****         animation_status.delta      = delta;
 5162               		.loc 1 875 9 view .LVU1232
 875:quantum/rgblight.c ****         animation_status.delta      = delta;
 5163               		.loc 1 875 77 is_stmt 0 view .LVU1233
 5164 0016 8091 0000 		lds r24,rgblight_status
 875:quantum/rgblight.c ****         animation_status.delta      = delta;
 5165               		.loc 1 875 54 view .LVU1234
 5166 001a E091 0000 		lds r30,rgblight_config
 5167 001e E695      		lsr r30
 875:quantum/rgblight.c ****         animation_status.delta      = delta;
 5168               		.loc 1 875 23 view .LVU1235
 5169 0020 E81B      		sub r30,r24
 5170               	.LVL347:
 876:quantum/rgblight.c **** 
 5171               		.loc 1 876 9 is_stmt 1 view .LVU1236
 876:quantum/rgblight.c **** 
 5172               		.loc 1 876 37 is_stmt 0 view .LVU1237
 5173 0022 E093 0000 		sts animation_status+2,r30
 879:quantum/rgblight.c ****         }
 5174               		.loc 1 879 9 is_stmt 1 view .LVU1238
 882:quantum/rgblight.c ****             // breathing mode
 5175               		.loc 1 882 14 view .LVU1239
 882:quantum/rgblight.c ****             // breathing mode
 5176               		.loc 1 882 17 is_stmt 0 view .LVU1240
 5177 0026 8230      		cpi r24,lo8(2)
 5178 0028 01F0      		breq .+2
 5179 002a 00C0      		rjmp .L282
 884:quantum/rgblight.c ****             effect_func   = rgblight_effect_breathing;
 5180               		.loc 1 884 13 is_stmt 1 view .LVU1241
 5181               	.LVL348:
 5182               	.LBB110:
 5183               	.LBI110:
 582:quantum/rgblight.c ****     return
 5184               		.loc 1 582 16 view .LVU1242
 582:quantum/rgblight.c ****     return
 5185               		.loc 1 582 16 is_stmt 0 view .LVU1243
 5186               	.LBE110:
 5187               	.LBE109:
 583:quantum/rgblight.c **** #    ifdef VELOCIKEY_ENABLE
 5188               		.loc 1 583 5 is_stmt 1 view .LVU1244
 5189               	.LBB142:
 5190               	.LBB113:
 5191               	.LBB111:
 587:quantum/rgblight.c **** }
 5192               		.loc 1 587 29 view .LVU1245
 587:quantum/rgblight.c **** }
 5193               		.loc 1 587 29 view .LVU1246
 587:quantum/rgblight.c **** }
 5194               		.loc 1 587 29 view .LVU1247
 5195               	.LBE111:
 5196               	.LBE113:
 884:quantum/rgblight.c ****             effect_func   = rgblight_effect_breathing;
 5197               		.loc 1 884 29 is_stmt 0 view .LVU1248
 5198 002c F0E0      		ldi r31,0
 5199 002e E050      		subi r30,lo8(-(RGBLED_BREATHING_INTERVALS))
 5200 0030 F040      		sbci r31,hi8(-(RGBLED_BREATHING_INTERVALS))
 5201               	.LVL349:
 5202               	.LBB114:
 5203               	.LBB112:
 587:quantum/rgblight.c **** }
 5204               		.loc 1 587 29 view .LVU1249
 5205               	/* #APP */
 5206               	 ;  587 "quantum/rgblight.c" 1
 5207 0032 E491      		lpm r30, Z
 5208               		
 5209               	 ;  0 "" 2
 5210               	.LVL350:
 587:quantum/rgblight.c **** }
 5211               		.loc 1 587 29 is_stmt 1 view .LVU1250
 587:quantum/rgblight.c **** }
 5212               		.loc 1 587 29 is_stmt 0 view .LVU1251
 5213               	/* #NOAPP */
 5214               	.LBE112:
 5215               	.LBE114:
 884:quantum/rgblight.c ****             effect_func   = rgblight_effect_breathing;
 5216               		.loc 1 884 27 view .LVU1252
 5217 0034 CE2F      		mov r28,r30
 5218 0036 D0E0      		ldi r29,0
 5219               	.LVL351:
 885:quantum/rgblight.c ****         }
 5220               		.loc 1 885 13 is_stmt 1 view .LVU1253
 885:quantum/rgblight.c ****         }
 5221               		.loc 1 885 27 is_stmt 0 view .LVU1254
 5222 0038 00E0      		ldi r16,lo8(gs(rgblight_effect_breathing))
 5223 003a 10E0      		ldi r17,hi8(gs(rgblight_effect_breathing))
 5224               	.LVL352:
 5225               	.L283:
 942:quantum/rgblight.c ****             animation_status.restart    = false;
 5226               		.loc 1 942 9 is_stmt 1 view .LVU1255
 942:quantum/rgblight.c ****             animation_status.restart    = false;
 5227               		.loc 1 942 12 is_stmt 0 view .LVU1256
 5228 003c 8091 0000 		lds r24,animation_status+3
 5229 0040 8823      		tst r24
 5230 0042 01F0      		breq .L289
 943:quantum/rgblight.c ****             animation_status.last_timer = timer_read() - interval_time - 1;
 5231               		.loc 1 943 13 is_stmt 1 view .LVU1257
 943:quantum/rgblight.c ****             animation_status.last_timer = timer_read() - interval_time - 1;
 5232               		.loc 1 943 41 is_stmt 0 view .LVU1258
 5233 0044 1092 0000 		sts animation_status+3,__zero_reg__
 944:quantum/rgblight.c ****             animation_status.pos16      = 0;  // restart signal to local each effect
 5234               		.loc 1 944 13 is_stmt 1 view .LVU1259
 944:quantum/rgblight.c ****             animation_status.pos16      = 0;  // restart signal to local each effect
 5235               		.loc 1 944 43 is_stmt 0 view .LVU1260
 5236 0048 0E94 0000 		call timer_read
 5237               	.LVL353:
 944:quantum/rgblight.c ****             animation_status.pos16      = 0;  // restart signal to local each effect
 5238               		.loc 1 944 72 view .LVU1261
 5239 004c 9E01      		movw r18,r28
 5240 004e 2095      		com r18
 5241 0050 3095      		com r19
 5242 0052 820F      		add r24,r18
 5243 0054 931F      		adc r25,r19
 944:quantum/rgblight.c ****             animation_status.pos16      = 0;  // restart signal to local each effect
 5244               		.loc 1 944 41 view .LVU1262
 5245 0056 9093 0000 		sts animation_status+1,r25
 5246 005a 8093 0000 		sts animation_status,r24
 945:quantum/rgblight.c ****         }
 5247               		.loc 1 945 13 is_stmt 1 view .LVU1263
 945:quantum/rgblight.c ****         }
 5248               		.loc 1 945 41 is_stmt 0 view .LVU1264
 5249 005e 1092 0000 		sts animation_status+4+1,__zero_reg__
 5250 0062 1092 0000 		sts animation_status+4,__zero_reg__
 5251               	.L289:
 947:quantum/rgblight.c **** #    if defined(RGBLIGHT_SPLIT) && !defined(RGBLIGHT_SPLIT_NO_ANIMATION_SYNC)
 5252               		.loc 1 947 9 is_stmt 1 view .LVU1265
 947:quantum/rgblight.c **** #    if defined(RGBLIGHT_SPLIT) && !defined(RGBLIGHT_SPLIT_NO_ANIMATION_SYNC)
 5253               		.loc 1 947 13 is_stmt 0 view .LVU1266
 5254 0066 8091 0000 		lds r24,animation_status
 5255 006a 9091 0000 		lds r25,animation_status+1
 5256 006e 0E94 0000 		call timer_elapsed
 5257               	.LVL354:
 947:quantum/rgblight.c **** #    if defined(RGBLIGHT_SPLIT) && !defined(RGBLIGHT_SPLIT_NO_ANIMATION_SYNC)
 5258               		.loc 1 947 12 view .LVU1267
 5259 0072 8C17      		cp r24,r28
 5260 0074 9D07      		cpc r25,r29
 5261 0076 00F0      		brlo .L279
 5262               	.LBB115:
 949:quantum/rgblight.c ****             static bool     tick_flag         = false;
 5263               		.loc 1 949 13 is_stmt 1 view .LVU1268
 950:quantum/rgblight.c ****             uint16_t        oldpos16;
 5264               		.loc 1 950 13 view .LVU1269
 951:quantum/rgblight.c ****             if (tick_flag) {
 5265               		.loc 1 951 13 view .LVU1270
 952:quantum/rgblight.c ****                 tick_flag = false;
 5266               		.loc 1 952 13 view .LVU1271
 952:quantum/rgblight.c ****                 tick_flag = false;
 5267               		.loc 1 952 16 is_stmt 0 view .LVU1272
 5268 0078 8091 0000 		lds r24,tick_flag.3370
 5269 007c 8823      		tst r24
 5270 007e 01F0      		breq .L292
 953:quantum/rgblight.c ****                 if (timer_elapsed(report_last_timer) >= 30000) {
 5271               		.loc 1 953 17 is_stmt 1 view .LVU1273
 953:quantum/rgblight.c ****                 if (timer_elapsed(report_last_timer) >= 30000) {
 5272               		.loc 1 953 27 is_stmt 0 view .LVU1274
 5273 0080 1092 0000 		sts tick_flag.3370,__zero_reg__
 954:quantum/rgblight.c ****                     report_last_timer = timer_read();
 5274               		.loc 1 954 17 is_stmt 1 view .LVU1275
 954:quantum/rgblight.c ****                     report_last_timer = timer_read();
 5275               		.loc 1 954 21 is_stmt 0 view .LVU1276
 5276 0084 8091 0000 		lds r24,report_last_timer.3369
 5277 0088 9091 0000 		lds r25,report_last_timer.3369+1
 5278 008c 0E94 0000 		call timer_elapsed
 5279               	.LVL355:
 954:quantum/rgblight.c ****                     report_last_timer = timer_read();
 5280               		.loc 1 954 20 view .LVU1277
 5281 0090 8033      		cpi r24,48
 5282 0092 9547      		sbci r25,117
 5283 0094 00F0      		brlo .L292
 955:quantum/rgblight.c ****                     dprintf("rgblight animation tick report to slave\n");
 5284               		.loc 1 955 21 is_stmt 1 view .LVU1278
 955:quantum/rgblight.c ****                     dprintf("rgblight animation tick report to slave\n");
 5285               		.loc 1 955 41 is_stmt 0 view .LVU1279
 5286 0096 0E94 0000 		call timer_read
 5287               	.LVL356:
 955:quantum/rgblight.c ****                     dprintf("rgblight animation tick report to slave\n");
 5288               		.loc 1 955 39 view .LVU1280
 5289 009a 9093 0000 		sts report_last_timer.3369+1,r25
 5290 009e 8093 0000 		sts report_last_timer.3369,r24
 956:quantum/rgblight.c ****                     RGBLIGHT_SPLIT_ANIMATION_TICK;
 5291               		.loc 1 956 73 is_stmt 1 view .LVU1281
 957:quantum/rgblight.c ****                 }
 5292               		.loc 1 957 21 view .LVU1282
 5293 00a2 8091 0000 		lds r24,rgblight_status+2
 5294 00a6 8860      		ori r24,lo8(8)
 5295 00a8 8093 0000 		sts rgblight_status+2,r24
 5296               	.L292:
 960:quantum/rgblight.c **** #    endif
 5297               		.loc 1 960 13 view .LVU1283
 960:quantum/rgblight.c **** #    endif
 5298               		.loc 1 960 22 is_stmt 0 view .LVU1284
 5299 00ac E090 0000 		lds r14,animation_status+4
 5300 00b0 F090 0000 		lds r15,animation_status+4+1
 5301               	.LVL357:
 962:quantum/rgblight.c ****             effect_func(&animation_status);
 5302               		.loc 1 962 13 is_stmt 1 view .LVU1285
 962:quantum/rgblight.c ****             effect_func(&animation_status);
 5303               		.loc 1 962 41 is_stmt 0 view .LVU1286
 5304 00b4 E091 0000 		lds r30,animation_status
 5305 00b8 F091 0000 		lds r31,animation_status+1
 5306 00bc CE0F      		add r28,r30
 5307 00be DF1F      		adc r29,r31
 5308               	.LVL358:
 962:quantum/rgblight.c ****             effect_func(&animation_status);
 5309               		.loc 1 962 41 view .LVU1287
 5310 00c0 D093 0000 		sts animation_status+1,r29
 5311 00c4 C093 0000 		sts animation_status,r28
 963:quantum/rgblight.c **** #    if defined(RGBLIGHT_SPLIT) && !defined(RGBLIGHT_SPLIT_NO_ANIMATION_SYNC)
 5312               		.loc 1 963 13 is_stmt 1 view .LVU1288
 5313 00c8 80E0      		ldi r24,lo8(animation_status)
 5314 00ca 90E0      		ldi r25,hi8(animation_status)
 5315 00cc F801      		movw r30,r16
 5316 00ce 0995      		icall
 5317               	.LVL359:
 965:quantum/rgblight.c ****                 tick_flag = true;
 5318               		.loc 1 965 13 view .LVU1289
 965:quantum/rgblight.c ****                 tick_flag = true;
 5319               		.loc 1 965 16 is_stmt 0 view .LVU1290
 5320 00d0 8091 0000 		lds r24,animation_status+4
 5321 00d4 9091 0000 		lds r25,animation_status+4+1
 5322 00d8 892B      		or r24,r25
 5323 00da 01F4      		brne .L279
 965:quantum/rgblight.c ****                 tick_flag = true;
 5324               		.loc 1 965 45 discriminator 1 view .LVU1291
 5325 00dc EF28      		or r14,r15
 5326 00de 01F0      		breq .L279
 966:quantum/rgblight.c ****             }
 5327               		.loc 1 966 17 is_stmt 1 view .LVU1292
 966:quantum/rgblight.c ****             }
 5328               		.loc 1 966 27 is_stmt 0 view .LVU1293
 5329 00e0 81E0      		ldi r24,lo8(1)
 5330 00e2 8093 0000 		sts tick_flag.3370,r24
 5331               	.LVL360:
 5332               	.L279:
 5333               	/* epilogue start */
 966:quantum/rgblight.c ****             }
 5334               		.loc 1 966 27 view .LVU1294
 5335               	.LBE115:
 5336               	.LBE142:
 975:quantum/rgblight.c **** 
 5337               		.loc 1 975 1 view .LVU1295
 5338 00e6 DF91      		pop r29
 5339 00e8 CF91      		pop r28
 5340 00ea 1F91      		pop r17
 5341 00ec 0F91      		pop r16
 5342 00ee FF90      		pop r15
 5343 00f0 EF90      		pop r14
 5344 00f2 0895      		ret
 5345               	.LVL361:
 5346               	.L282:
 5347               	.LBB143:
 889:quantum/rgblight.c ****             // rainbow mood mode
 5348               		.loc 1 889 14 is_stmt 1 view .LVU1296
 889:quantum/rgblight.c ****             // rainbow mood mode
 5349               		.loc 1 889 17 is_stmt 0 view .LVU1297
 5350 00f4 8630      		cpi r24,lo8(6)
 5351 00f6 01F4      		brne .L284
 891:quantum/rgblight.c ****             effect_func   = rgblight_effect_rainbow_mood;
 5352               		.loc 1 891 13 is_stmt 1 view .LVU1298
 5353               	.LVL362:
 5354               	.LBB116:
 5355               	.LBI116:
 582:quantum/rgblight.c ****     return
 5356               		.loc 1 582 16 view .LVU1299
 582:quantum/rgblight.c ****     return
 5357               		.loc 1 582 16 is_stmt 0 view .LVU1300
 5358               	.LBE116:
 5359               	.LBE143:
 583:quantum/rgblight.c **** #    ifdef VELOCIKEY_ENABLE
 5360               		.loc 1 583 5 is_stmt 1 view .LVU1301
 5361               	.LBB144:
 5362               	.LBB119:
 5363               	.LBB117:
 587:quantum/rgblight.c **** }
 5364               		.loc 1 587 29 view .LVU1302
 587:quantum/rgblight.c **** }
 5365               		.loc 1 587 29 view .LVU1303
 587:quantum/rgblight.c **** }
 5366               		.loc 1 587 29 view .LVU1304
 5367               	.LBE117:
 5368               	.LBE119:
 891:quantum/rgblight.c ****             effect_func   = rgblight_effect_rainbow_mood;
 5369               		.loc 1 891 29 is_stmt 0 view .LVU1305
 5370 00f8 F0E0      		ldi r31,0
 5371 00fa E050      		subi r30,lo8(-(RGBLED_RAINBOW_MOOD_INTERVALS))
 5372 00fc F040      		sbci r31,hi8(-(RGBLED_RAINBOW_MOOD_INTERVALS))
 5373               	.LVL363:
 5374               	.LBB120:
 5375               	.LBB118:
 587:quantum/rgblight.c **** }
 5376               		.loc 1 587 29 view .LVU1306
 5377               	/* #APP */
 5378               	 ;  587 "quantum/rgblight.c" 1
 5379 00fe E491      		lpm r30, Z
 5380               		
 5381               	 ;  0 "" 2
 5382               	.LVL364:
 587:quantum/rgblight.c **** }
 5383               		.loc 1 587 29 is_stmt 1 view .LVU1307
 587:quantum/rgblight.c **** }
 5384               		.loc 1 587 29 is_stmt 0 view .LVU1308
 5385               	/* #NOAPP */
 5386               	.LBE118:
 5387               	.LBE120:
 891:quantum/rgblight.c ****             effect_func   = rgblight_effect_rainbow_mood;
 5388               		.loc 1 891 27 view .LVU1309
 5389 0100 CE2F      		mov r28,r30
 5390 0102 D0E0      		ldi r29,0
 5391               	.LVL365:
 892:quantum/rgblight.c ****         }
 5392               		.loc 1 892 13 is_stmt 1 view .LVU1310
 892:quantum/rgblight.c ****         }
 5393               		.loc 1 892 27 is_stmt 0 view .LVU1311
 5394 0104 00E0      		ldi r16,lo8(gs(rgblight_effect_rainbow_mood))
 5395 0106 10E0      		ldi r17,hi8(gs(rgblight_effect_rainbow_mood))
 5396 0108 00C0      		rjmp .L283
 5397               	.LVL366:
 5398               	.L284:
 896:quantum/rgblight.c ****             // rainbow swirl mode
 5399               		.loc 1 896 14 is_stmt 1 view .LVU1312
 896:quantum/rgblight.c ****             // rainbow swirl mode
 5400               		.loc 1 896 17 is_stmt 0 view .LVU1313
 5401 010a 8930      		cpi r24,lo8(9)
 5402 010c 01F4      		brne .L285
 898:quantum/rgblight.c ****             effect_func   = rgblight_effect_rainbow_swirl;
 5403               		.loc 1 898 13 is_stmt 1 view .LVU1314
 5404               	.LVL367:
 5405               	.LBB121:
 5406               	.LBI121:
 582:quantum/rgblight.c ****     return
 5407               		.loc 1 582 16 view .LVU1315
 582:quantum/rgblight.c ****     return
 5408               		.loc 1 582 16 is_stmt 0 view .LVU1316
 5409               	.LBE121:
 5410               	.LBE144:
 583:quantum/rgblight.c **** #    ifdef VELOCIKEY_ENABLE
 5411               		.loc 1 583 5 is_stmt 1 view .LVU1317
 5412               	.LBB145:
 5413               	.LBB124:
 5414               	.LBB122:
 587:quantum/rgblight.c **** }
 5415               		.loc 1 587 29 view .LVU1318
 587:quantum/rgblight.c **** }
 5416               		.loc 1 587 29 view .LVU1319
 587:quantum/rgblight.c **** }
 5417               		.loc 1 587 29 view .LVU1320
 5418               	.LBE122:
 5419               	.LBE124:
 898:quantum/rgblight.c ****             effect_func   = rgblight_effect_rainbow_swirl;
 5420               		.loc 1 898 85 is_stmt 0 view .LVU1321
 5421 010e E695      		lsr r30
 5422               	.LVL368:
 898:quantum/rgblight.c ****             effect_func   = rgblight_effect_rainbow_swirl;
 5423               		.loc 1 898 29 view .LVU1322
 5424 0110 F0E0      		ldi r31,0
 5425 0112 E050      		subi r30,lo8(-(RGBLED_RAINBOW_SWIRL_INTERVALS))
 5426 0114 F040      		sbci r31,hi8(-(RGBLED_RAINBOW_SWIRL_INTERVALS))
 5427               	.LBB125:
 5428               	.LBB123:
 587:quantum/rgblight.c **** }
 5429               		.loc 1 587 29 view .LVU1323
 5430               	/* #APP */
 5431               	 ;  587 "quantum/rgblight.c" 1
 5432 0116 E491      		lpm r30, Z
 5433               		
 5434               	 ;  0 "" 2
 5435               	.LVL369:
 587:quantum/rgblight.c **** }
 5436               		.loc 1 587 29 is_stmt 1 view .LVU1324
 587:quantum/rgblight.c **** }
 5437               		.loc 1 587 29 is_stmt 0 view .LVU1325
 5438               	/* #NOAPP */
 5439               	.LBE123:
 5440               	.LBE125:
 898:quantum/rgblight.c ****             effect_func   = rgblight_effect_rainbow_swirl;
 5441               		.loc 1 898 27 view .LVU1326
 5442 0118 CE2F      		mov r28,r30
 5443 011a D0E0      		ldi r29,0
 5444               	.LVL370:
 899:quantum/rgblight.c ****         }
 5445               		.loc 1 899 13 is_stmt 1 view .LVU1327
 899:quantum/rgblight.c ****         }
 5446               		.loc 1 899 27 is_stmt 0 view .LVU1328
 5447 011c 00E0      		ldi r16,lo8(gs(rgblight_effect_rainbow_swirl))
 5448 011e 10E0      		ldi r17,hi8(gs(rgblight_effect_rainbow_swirl))
 5449 0120 00C0      		rjmp .L283
 5450               	.LVL371:
 5451               	.L285:
 903:quantum/rgblight.c ****             // snake mode
 5452               		.loc 1 903 14 is_stmt 1 view .LVU1329
 903:quantum/rgblight.c ****             // snake mode
 5453               		.loc 1 903 17 is_stmt 0 view .LVU1330
 5454 0122 8F30      		cpi r24,lo8(15)
 5455 0124 01F4      		brne .L286
 905:quantum/rgblight.c ****             effect_func   = rgblight_effect_snake;
 5456               		.loc 1 905 13 is_stmt 1 view .LVU1331
 5457               	.LVL372:
 5458               	.LBB126:
 5459               	.LBI126:
 582:quantum/rgblight.c ****     return
 5460               		.loc 1 582 16 view .LVU1332
 582:quantum/rgblight.c ****     return
 5461               		.loc 1 582 16 is_stmt 0 view .LVU1333
 5462               	.LBE126:
 5463               	.LBE145:
 583:quantum/rgblight.c **** #    ifdef VELOCIKEY_ENABLE
 5464               		.loc 1 583 5 is_stmt 1 view .LVU1334
 5465               	.LBB146:
 5466               	.LBB129:
 5467               	.LBB127:
 587:quantum/rgblight.c **** }
 5468               		.loc 1 587 29 view .LVU1335
 587:quantum/rgblight.c **** }
 5469               		.loc 1 587 29 view .LVU1336
 587:quantum/rgblight.c **** }
 5470               		.loc 1 587 29 view .LVU1337
 5471               	.LBE127:
 5472               	.LBE129:
 905:quantum/rgblight.c ****             effect_func   = rgblight_effect_snake;
 5473               		.loc 1 905 77 is_stmt 0 view .LVU1338
 5474 0126 E695      		lsr r30
 5475               	.LVL373:
 905:quantum/rgblight.c ****             effect_func   = rgblight_effect_snake;
 5476               		.loc 1 905 29 view .LVU1339
 5477 0128 F0E0      		ldi r31,0
 5478 012a E050      		subi r30,lo8(-(RGBLED_SNAKE_INTERVALS))
 5479 012c F040      		sbci r31,hi8(-(RGBLED_SNAKE_INTERVALS))
 5480               	.LBB130:
 5481               	.LBB128:
 587:quantum/rgblight.c **** }
 5482               		.loc 1 587 29 view .LVU1340
 5483               	/* #APP */
 5484               	 ;  587 "quantum/rgblight.c" 1
 5485 012e E491      		lpm r30, Z
 5486               		
 5487               	 ;  0 "" 2
 5488               	.LVL374:
 587:quantum/rgblight.c **** }
 5489               		.loc 1 587 29 is_stmt 1 view .LVU1341
 587:quantum/rgblight.c **** }
 5490               		.loc 1 587 29 is_stmt 0 view .LVU1342
 5491               	/* #NOAPP */
 5492               	.LBE128:
 5493               	.LBE130:
 905:quantum/rgblight.c ****             effect_func   = rgblight_effect_snake;
 5494               		.loc 1 905 27 view .LVU1343
 5495 0130 CE2F      		mov r28,r30
 5496 0132 D0E0      		ldi r29,0
 5497               	.LVL375:
 906:quantum/rgblight.c ****         }
 5498               		.loc 1 906 13 is_stmt 1 view .LVU1344
 906:quantum/rgblight.c ****         }
 5499               		.loc 1 906 27 is_stmt 0 view .LVU1345
 5500 0134 00E0      		ldi r16,lo8(gs(rgblight_effect_snake))
 5501 0136 10E0      		ldi r17,hi8(gs(rgblight_effect_snake))
 5502 0138 00C0      		rjmp .L283
 5503               	.LVL376:
 5504               	.L286:
 910:quantum/rgblight.c ****             // knight mode
 5505               		.loc 1 910 14 is_stmt 1 view .LVU1346
 910:quantum/rgblight.c ****             // knight mode
 5506               		.loc 1 910 17 is_stmt 0 view .LVU1347
 5507 013a 8531      		cpi r24,lo8(21)
 5508 013c 01F4      		brne .L287
 912:quantum/rgblight.c ****             effect_func   = rgblight_effect_knight;
 5509               		.loc 1 912 13 is_stmt 1 view .LVU1348
 5510               	.LVL377:
 5511               	.LBB131:
 5512               	.LBI131:
 582:quantum/rgblight.c ****     return
 5513               		.loc 1 582 16 view .LVU1349
 582:quantum/rgblight.c ****     return
 5514               		.loc 1 582 16 is_stmt 0 view .LVU1350
 5515               	.LBE131:
 5516               	.LBE146:
 583:quantum/rgblight.c **** #    ifdef VELOCIKEY_ENABLE
 5517               		.loc 1 583 5 is_stmt 1 view .LVU1351
 5518               	.LBB147:
 5519               	.LBB134:
 5520               	.LBB132:
 587:quantum/rgblight.c **** }
 5521               		.loc 1 587 29 view .LVU1352
 587:quantum/rgblight.c **** }
 5522               		.loc 1 587 29 view .LVU1353
 587:quantum/rgblight.c **** }
 5523               		.loc 1 587 29 view .LVU1354
 5524               	.LBE132:
 5525               	.LBE134:
 912:quantum/rgblight.c ****             effect_func   = rgblight_effect_knight;
 5526               		.loc 1 912 29 is_stmt 0 view .LVU1355
 5527 013e F0E0      		ldi r31,0
 5528 0140 E050      		subi r30,lo8(-(RGBLED_KNIGHT_INTERVALS))
 5529 0142 F040      		sbci r31,hi8(-(RGBLED_KNIGHT_INTERVALS))
 5530               	.LVL378:
 5531               	.LBB135:
 5532               	.LBB133:
 587:quantum/rgblight.c **** }
 5533               		.loc 1 587 29 view .LVU1356
 5534               	/* #APP */
 5535               	 ;  587 "quantum/rgblight.c" 1
 5536 0144 E491      		lpm r30, Z
 5537               		
 5538               	 ;  0 "" 2
 5539               	.LVL379:
 587:quantum/rgblight.c **** }
 5540               		.loc 1 587 29 is_stmt 1 view .LVU1357
 587:quantum/rgblight.c **** }
 5541               		.loc 1 587 29 is_stmt 0 view .LVU1358
 5542               	/* #NOAPP */
 5543               	.LBE133:
 5544               	.LBE135:
 912:quantum/rgblight.c ****             effect_func   = rgblight_effect_knight;
 5545               		.loc 1 912 27 view .LVU1359
 5546 0146 CE2F      		mov r28,r30
 5547 0148 D0E0      		ldi r29,0
 5548               	.LVL380:
 913:quantum/rgblight.c ****         }
 5549               		.loc 1 913 13 is_stmt 1 view .LVU1360
 913:quantum/rgblight.c ****         }
 5550               		.loc 1 913 27 is_stmt 0 view .LVU1361
 5551 014a 00E0      		ldi r16,lo8(gs(rgblight_effect_knight))
 5552 014c 10E0      		ldi r17,hi8(gs(rgblight_effect_knight))
 5553 014e 00C0      		rjmp .L283
 5554               	.LVL381:
 5555               	.L287:
 917:quantum/rgblight.c ****             // christmas mode
 5556               		.loc 1 917 14 is_stmt 1 view .LVU1362
 919:quantum/rgblight.c ****             effect_func   = (effect_func_t)rgblight_effect_christmas;
 5557               		.loc 1 919 27 is_stmt 0 view .LVU1363
 5558 0150 C8E2      		ldi r28,lo8(40)
 5559 0152 D0E0      		ldi r29,0
 920:quantum/rgblight.c ****         }
 5560               		.loc 1 920 27 view .LVU1364
 5561 0154 00E0      		ldi r16,lo8(gs(rgblight_effect_christmas))
 5562 0156 10E0      		ldi r17,hi8(gs(rgblight_effect_christmas))
 917:quantum/rgblight.c ****             // christmas mode
 5563               		.loc 1 917 17 view .LVU1365
 5564 0158 8831      		cpi r24,lo8(24)
 5565 015a 01F4      		brne .+2
 5566 015c 00C0      		rjmp .L283
 924:quantum/rgblight.c ****             // RGB test mode
 5567               		.loc 1 924 14 is_stmt 1 view .LVU1366
 924:quantum/rgblight.c ****             // RGB test mode
 5568               		.loc 1 924 17 is_stmt 0 view .LVU1367
 5569 015e 8332      		cpi r24,lo8(35)
 5570 0160 01F4      		brne .L288
 926:quantum/rgblight.c ****             effect_func   = (effect_func_t)rgblight_effect_rgbtest;
 5571               		.loc 1 926 13 is_stmt 1 view .LVU1368
 5572               	.LBB136:
 926:quantum/rgblight.c ****             effect_func   = (effect_func_t)rgblight_effect_rgbtest;
 5573               		.loc 1 926 29 view .LVU1369
 5574               	.LVL382:
 926:quantum/rgblight.c ****             effect_func   = (effect_func_t)rgblight_effect_rgbtest;
 5575               		.loc 1 926 29 view .LVU1370
 926:quantum/rgblight.c ****             effect_func   = (effect_func_t)rgblight_effect_rgbtest;
 5576               		.loc 1 926 29 view .LVU1371
 5577 0162 E0E0      		ldi r30,lo8(RGBLED_RGBTEST_INTERVALS)
 5578 0164 F0E0      		ldi r31,hi8(RGBLED_RGBTEST_INTERVALS)
 5579               	.LVL383:
 926:quantum/rgblight.c ****             effect_func   = (effect_func_t)rgblight_effect_rgbtest;
 5580               		.loc 1 926 29 is_stmt 0 view .LVU1372
 5581               	/* #APP */
 5582               	 ;  926 "quantum/rgblight.c" 1
 5583 0166 C591      		lpm r28, Z+
 5584 0168 D491      		lpm r29, Z
 5585               		
 5586               	 ;  0 "" 2
 5587               	.LVL384:
 926:quantum/rgblight.c ****             effect_func   = (effect_func_t)rgblight_effect_rgbtest;
 5588               		.loc 1 926 29 is_stmt 1 view .LVU1373
 926:quantum/rgblight.c ****             effect_func   = (effect_func_t)rgblight_effect_rgbtest;
 5589               		.loc 1 926 29 is_stmt 0 view .LVU1374
 5590               	/* #NOAPP */
 5591               	.LBE136:
 927:quantum/rgblight.c ****         }
 5592               		.loc 1 927 13 is_stmt 1 view .LVU1375
 927:quantum/rgblight.c ****         }
 5593               		.loc 1 927 27 is_stmt 0 view .LVU1376
 5594 016a 00E0      		ldi r16,lo8(gs(rgblight_effect_rgbtest))
 5595 016c 10E0      		ldi r17,hi8(gs(rgblight_effect_rgbtest))
 5596 016e 00C0      		rjmp .L283
 5597               	.LVL385:
 5598               	.L288:
 931:quantum/rgblight.c ****             interval_time = 500;
 5599               		.loc 1 931 14 is_stmt 1 view .LVU1377
 932:quantum/rgblight.c ****             effect_func   = (effect_func_t)rgblight_effect_alternating;
 5600               		.loc 1 932 27 is_stmt 0 view .LVU1378
 5601 0170 C4EF      		ldi r28,lo8(-12)
 5602 0172 D1E0      		ldi r29,lo8(1)
 933:quantum/rgblight.c ****         }
 5603               		.loc 1 933 27 view .LVU1379
 5604 0174 00E0      		ldi r16,lo8(gs(rgblight_effect_alternating))
 5605 0176 10E0      		ldi r17,hi8(gs(rgblight_effect_alternating))
 931:quantum/rgblight.c ****             interval_time = 500;
 5606               		.loc 1 931 17 view .LVU1380
 5607 0178 8432      		cpi r24,lo8(36)
 5608 017a 01F4      		brne .+2
 5609 017c 00C0      		rjmp .L283
 937:quantum/rgblight.c ****             interval_time = get_interval_time(&RGBLED_TWINKLE_INTERVALS[delta % 3], 5, 50);
 5610               		.loc 1 937 14 is_stmt 1 view .LVU1381
 874:quantum/rgblight.c ****         uint8_t       delta         = rgblight_config.mode - rgblight_status.base_mode;
 5611               		.loc 1 874 23 is_stmt 0 view .LVU1382
 5612 017e C0ED      		ldi r28,lo8(-48)
 5613 0180 D7E0      		ldi r29,lo8(7)
 873:quantum/rgblight.c ****         uint16_t      interval_time = 2000;  // dummy interval
 5614               		.loc 1 873 23 view .LVU1383
 5615 0182 00E0      		ldi r16,lo8(gs(rgblight_effect_dummy))
 5616 0184 10E0      		ldi r17,hi8(gs(rgblight_effect_dummy))
 937:quantum/rgblight.c ****             interval_time = get_interval_time(&RGBLED_TWINKLE_INTERVALS[delta % 3], 5, 50);
 5617               		.loc 1 937 17 view .LVU1384
 5618 0186 8532      		cpi r24,lo8(37)
 5619 0188 01F0      		breq .+2
 5620 018a 00C0      		rjmp .L283
 938:quantum/rgblight.c ****             effect_func   = (effect_func_t)rgblight_effect_twinkle;
 5621               		.loc 1 938 13 is_stmt 1 view .LVU1385
 5622               	.LVL386:
 5623               	.LBB137:
 5624               	.LBI137:
 582:quantum/rgblight.c ****     return
 5625               		.loc 1 582 16 view .LVU1386
 582:quantum/rgblight.c ****     return
 5626               		.loc 1 582 16 is_stmt 0 view .LVU1387
 5627               	.LBE137:
 5628               	.LBE147:
 583:quantum/rgblight.c **** #    ifdef VELOCIKEY_ENABLE
 5629               		.loc 1 583 5 is_stmt 1 view .LVU1388
 5630               	.LBB148:
 5631               	.LBB140:
 5632               	.LBB138:
 587:quantum/rgblight.c **** }
 5633               		.loc 1 587 29 view .LVU1389
 587:quantum/rgblight.c **** }
 5634               		.loc 1 587 29 view .LVU1390
 587:quantum/rgblight.c **** }
 5635               		.loc 1 587 29 view .LVU1391
 5636               	.LBE138:
 5637               	.LBE140:
 938:quantum/rgblight.c ****             effect_func   = (effect_func_t)rgblight_effect_twinkle;
 5638               		.loc 1 938 79 is_stmt 0 view .LVU1392
 5639 018c 8E2F      		mov r24,r30
 5640 018e 63E0      		ldi r22,lo8(3)
 5641 0190 0E94 0000 		call __udivmodqi4
 938:quantum/rgblight.c ****             effect_func   = (effect_func_t)rgblight_effect_twinkle;
 5642               		.loc 1 938 29 view .LVU1393
 5643 0194 E92F      		mov r30,r25
 5644               	.LVL387:
 938:quantum/rgblight.c ****             effect_func   = (effect_func_t)rgblight_effect_twinkle;
 5645               		.loc 1 938 29 view .LVU1394
 5646 0196 F0E0      		ldi r31,0
 5647 0198 E050      		subi r30,lo8(-(RGBLED_TWINKLE_INTERVALS))
 5648 019a F040      		sbci r31,hi8(-(RGBLED_TWINKLE_INTERVALS))
 5649               	.LBB141:
 5650               	.LBB139:
 587:quantum/rgblight.c **** }
 5651               		.loc 1 587 29 view .LVU1395
 5652               	/* #APP */
 5653               	 ;  587 "quantum/rgblight.c" 1
 5654 019c E491      		lpm r30, Z
 5655               		
 5656               	 ;  0 "" 2
 5657               	.LVL388:
 587:quantum/rgblight.c **** }
 5658               		.loc 1 587 29 is_stmt 1 view .LVU1396
 587:quantum/rgblight.c **** }
 5659               		.loc 1 587 29 is_stmt 0 view .LVU1397
 5660               	/* #NOAPP */
 5661               	.LBE139:
 5662               	.LBE141:
 938:quantum/rgblight.c ****             effect_func   = (effect_func_t)rgblight_effect_twinkle;
 5663               		.loc 1 938 27 view .LVU1398
 5664 019e CE2F      		mov r28,r30
 5665 01a0 D0E0      		ldi r29,0
 5666               	.LVL389:
 939:quantum/rgblight.c ****         }
 5667               		.loc 1 939 13 is_stmt 1 view .LVU1399
 939:quantum/rgblight.c ****         }
 5668               		.loc 1 939 27 is_stmt 0 view .LVU1400
 5669 01a2 00E0      		ldi r16,lo8(gs(rgblight_effect_twinkle))
 5670 01a4 10E0      		ldi r17,hi8(gs(rgblight_effect_twinkle))
 5671 01a6 00C0      		rjmp .L283
 5672               	.LBE148:
 5673               		.cfi_endproc
 5674               	.LFE172:
 5676               		.section	.bss.maxval.3444,"aw",@nobits
 5679               	maxval.3444:
 5680 0000 00        		.zero	1
 5681               		.section	.data.increment.3429,"aw"
 5684               	increment.3429:
 5685 0000 01        		.byte	1
 5686               		.section	.data.increment.3417,"aw"
 5689               	increment.3417:
 5690 0000 01        		.byte	1
 5691               		.section	.data.high_bound.3416,"aw"
 5694               	high_bound.3416:
 5695 0000 02        		.byte	2
 5696               		.section	.bss.low_bound.3415,"aw",@nobits
 5699               	low_bound.3415:
 5700 0000 00        		.zero	1
 5701               		.section	.bss.pos.3399,"aw",@nobits
 5704               	pos.3399:
 5705 0000 00        		.zero	1
 5706               		.section	.bss.report_last_timer.3369,"aw",@nobits
 5709               	report_last_timer.3369:
 5710 0000 0000      		.zero	2
 5711               		.section	.bss.tick_flag.3370,"aw",@nobits
 5714               	tick_flag.3370:
 5715 0000 00        		.zero	1
 5716               		.section	.bss.led_twinkle_state,"aw",@nobits
 5719               	led_twinkle_state:
 5720 0000 0000 0000 		.zero	135
 5720      0000 0000 
 5720      0000 0000 
 5720      0000 0000 
 5720      0000 0000 
 5721               		.weak	RGBLED_TWINKLE_INTERVALS
 5722               		.section	.progmem.data.RGBLED_TWINKLE_INTERVALS,"a"
 5725               	RGBLED_TWINKLE_INTERVALS:
 5726 0000 32        		.byte	50
 5727 0001 19        		.byte	25
 5728 0002 0A        		.byte	10
 5729               		.weak	RGBLED_RGBTEST_INTERVALS
 5730               		.section	.progmem.data.RGBLED_RGBTEST_INTERVALS,"a"
 5733               	RGBLED_RGBTEST_INTERVALS:
 5734 0000 0004      		.word	1024
 5735               		.weak	RGBLED_KNIGHT_INTERVALS
 5736               		.section	.progmem.data.RGBLED_KNIGHT_INTERVALS,"a"
 5739               	RGBLED_KNIGHT_INTERVALS:
 5740 0000 7F        		.byte	127
 5741 0001 3F        		.byte	63
 5742 0002 1F        		.byte	31
 5743               		.weak	RGBLED_SNAKE_INTERVALS
 5744               		.section	.progmem.data.RGBLED_SNAKE_INTERVALS,"a"
 5747               	RGBLED_SNAKE_INTERVALS:
 5748 0000 64        		.byte	100
 5749 0001 32        		.byte	50
 5750 0002 14        		.byte	20
 5751               		.weak	RGBLED_RAINBOW_SWIRL_INTERVALS
 5752               		.section	.progmem.data.RGBLED_RAINBOW_SWIRL_INTERVALS,"a"
 5755               	RGBLED_RAINBOW_SWIRL_INTERVALS:
 5756 0000 64        		.byte	100
 5757 0001 32        		.byte	50
 5758 0002 14        		.byte	20
 5759               		.weak	RGBLED_RAINBOW_MOOD_INTERVALS
 5760               		.section	.progmem.data.RGBLED_RAINBOW_MOOD_INTERVALS,"a"
 5763               	RGBLED_RAINBOW_MOOD_INTERVALS:
 5764 0000 78        		.byte	120
 5765 0001 3C        		.byte	60
 5766 0002 1E        		.byte	30
 5767               		.weak	RGBLED_BREATHING_INTERVALS
 5768               		.section	.progmem.data.RGBLED_BREATHING_INTERVALS,"a"
 5771               	RGBLED_BREATHING_INTERVALS:
 5772 0000 1E        		.byte	30
 5773 0001 14        		.byte	20
 5774 0002 0A        		.byte	10
 5775 0003 05        		.byte	5
 5776               	.global	rgblight_effect_breathe_table
 5777               		.section	.progmem.data.rgblight_effect_breathe_table,"a"
 5780               	rgblight_effect_breathe_table:
 5781 0000 22        		.byte	34
 5782 0001 23        		.byte	35
 5783 0002 25        		.byte	37
 5784 0003 26        		.byte	38
 5785 0004 28        		.byte	40
 5786 0005 29        		.byte	41
 5787 0006 2A        		.byte	42
 5788 0007 2C        		.byte	44
 5789 0008 2D        		.byte	45
 5790 0009 2F        		.byte	47
 5791 000a 30        		.byte	48
 5792 000b 32        		.byte	50
 5793 000c 33        		.byte	51
 5794 000d 35        		.byte	53
 5795 000e 36        		.byte	54
 5796 000f 38        		.byte	56
 5797 0010 3A        		.byte	58
 5798 0011 3B        		.byte	59
 5799 0012 3D        		.byte	61
 5800 0013 3E        		.byte	62
 5801 0014 40        		.byte	64
 5802 0015 42        		.byte	66
 5803 0016 43        		.byte	67
 5804 0017 45        		.byte	69
 5805 0018 47        		.byte	71
 5806 0019 49        		.byte	73
 5807 001a 4A        		.byte	74
 5808 001b 4C        		.byte	76
 5809 001c 4E        		.byte	78
 5810 001d 50        		.byte	80
 5811 001e 51        		.byte	81
 5812 001f 53        		.byte	83
 5813 0020 55        		.byte	85
 5814 0021 57        		.byte	87
 5815 0022 59        		.byte	89
 5816 0023 5A        		.byte	90
 5817 0024 5C        		.byte	92
 5818 0025 5E        		.byte	94
 5819 0026 60        		.byte	96
 5820 0027 62        		.byte	98
 5821 0028 64        		.byte	100
 5822 0029 66        		.byte	102
 5823 002a 68        		.byte	104
 5824 002b 69        		.byte	105
 5825 002c 6B        		.byte	107
 5826 002d 6D        		.byte	109
 5827 002e 6F        		.byte	111
 5828 002f 71        		.byte	113
 5829 0030 73        		.byte	115
 5830 0031 75        		.byte	117
 5831 0032 77        		.byte	119
 5832 0033 79        		.byte	121
 5833 0034 7B        		.byte	123
 5834 0035 7D        		.byte	125
 5835 0036 7F        		.byte	127
 5836 0037 81        		.byte	-127
 5837 0038 83        		.byte	-125
 5838 0039 85        		.byte	-123
 5839 003a 87        		.byte	-121
 5840 003b 89        		.byte	-119
 5841 003c 8A        		.byte	-118
 5842 003d 8C        		.byte	-116
 5843 003e 8E        		.byte	-114
 5844 003f 90        		.byte	-112
 5845 0040 92        		.byte	-110
 5846 0041 94        		.byte	-108
 5847 0042 96        		.byte	-106
 5848 0043 98        		.byte	-104
 5849 0044 9A        		.byte	-102
 5850 0045 9C        		.byte	-100
 5851 0046 9E        		.byte	-98
 5852 0047 9F        		.byte	-97
 5853 0048 A1        		.byte	-95
 5854 0049 A3        		.byte	-93
 5855 004a A5        		.byte	-91
 5856 004b A7        		.byte	-89
 5857 004c A8        		.byte	-88
 5858 004d AA        		.byte	-86
 5859 004e AC        		.byte	-84
 5860 004f AE        		.byte	-82
 5861 0050 AF        		.byte	-81
 5862 0051 B1        		.byte	-79
 5863 0052 B3        		.byte	-77
 5864 0053 B4        		.byte	-76
 5865 0054 B6        		.byte	-74
 5866 0055 B8        		.byte	-72
 5867 0056 B9        		.byte	-71
 5868 0057 BB        		.byte	-69
 5869 0058 BC        		.byte	-68
 5870 0059 BE        		.byte	-66
 5871 005a BF        		.byte	-65
 5872 005b C1        		.byte	-63
 5873 005c C2        		.byte	-62
 5874 005d C3        		.byte	-61
 5875 005e C5        		.byte	-59
 5876 005f C6        		.byte	-58
 5877 0060 C7        		.byte	-57
 5878 0061 C9        		.byte	-55
 5879 0062 CA        		.byte	-54
 5880 0063 CB        		.byte	-53
 5881 0064 CC        		.byte	-52
 5882 0065 CD        		.byte	-51
 5883 0066 CE        		.byte	-50
 5884 0067 D0        		.byte	-48
 5885 0068 D1        		.byte	-47
 5886 0069 D2        		.byte	-46
 5887 006a D2        		.byte	-46
 5888 006b D3        		.byte	-45
 5889 006c D4        		.byte	-44
 5890 006d D5        		.byte	-43
 5891 006e D6        		.byte	-42
 5892 006f D7        		.byte	-41
 5893 0070 D7        		.byte	-41
 5894 0071 D8        		.byte	-40
 5895 0072 D9        		.byte	-39
 5896 0073 D9        		.byte	-39
 5897 0074 DA        		.byte	-38
 5898 0075 DA        		.byte	-38
 5899 0076 DB        		.byte	-37
 5900 0077 DB        		.byte	-37
 5901 0078 DB        		.byte	-37
 5902 0079 DC        		.byte	-36
 5903 007a DC        		.byte	-36
 5904 007b DC        		.byte	-36
 5905 007c DC        		.byte	-36
 5906 007d DC        		.byte	-36
 5907 007e DD        		.byte	-35
 5908 007f DD        		.byte	-35
 5909 0080 DD        		.byte	-35
 5910 0081 DD        		.byte	-35
 5911 0082 DC        		.byte	-36
 5912 0083 DC        		.byte	-36
 5913 0084 DC        		.byte	-36
 5914 0085 DC        		.byte	-36
 5915 0086 DC        		.byte	-36
 5916 0087 DB        		.byte	-37
 5917 0088 DB        		.byte	-37
 5918 0089 DB        		.byte	-37
 5919 008a DA        		.byte	-38
 5920 008b DA        		.byte	-38
 5921 008c D9        		.byte	-39
 5922 008d D9        		.byte	-39
 5923 008e D8        		.byte	-40
 5924 008f D7        		.byte	-41
 5925 0090 D7        		.byte	-41
 5926 0091 D6        		.byte	-42
 5927 0092 D5        		.byte	-43
 5928 0093 D4        		.byte	-44
 5929 0094 D3        		.byte	-45
 5930 0095 D2        		.byte	-46
 5931 0096 D2        		.byte	-46
 5932 0097 D1        		.byte	-47
 5933 0098 D0        		.byte	-48
 5934 0099 CE        		.byte	-50
 5935 009a CD        		.byte	-51
 5936 009b CC        		.byte	-52
 5937 009c CB        		.byte	-53
 5938 009d CA        		.byte	-54
 5939 009e C9        		.byte	-55
 5940 009f C7        		.byte	-57
 5941 00a0 C6        		.byte	-58
 5942 00a1 C5        		.byte	-59
 5943 00a2 C3        		.byte	-61
 5944 00a3 C2        		.byte	-62
 5945 00a4 C1        		.byte	-63
 5946 00a5 BF        		.byte	-65
 5947 00a6 BE        		.byte	-66
 5948 00a7 BC        		.byte	-68
 5949 00a8 BB        		.byte	-69
 5950 00a9 B9        		.byte	-71
 5951 00aa B8        		.byte	-72
 5952 00ab B6        		.byte	-74
 5953 00ac B4        		.byte	-76
 5954 00ad B3        		.byte	-77
 5955 00ae B1        		.byte	-79
 5956 00af AF        		.byte	-81
 5957 00b0 AE        		.byte	-82
 5958 00b1 AC        		.byte	-84
 5959 00b2 AA        		.byte	-86
 5960 00b3 A8        		.byte	-88
 5961 00b4 A7        		.byte	-89
 5962 00b5 A5        		.byte	-91
 5963 00b6 A3        		.byte	-93
 5964 00b7 A1        		.byte	-95
 5965 00b8 9F        		.byte	-97
 5966 00b9 9E        		.byte	-98
 5967 00ba 9C        		.byte	-100
 5968 00bb 9A        		.byte	-102
 5969 00bc 98        		.byte	-104
 5970 00bd 96        		.byte	-106
 5971 00be 94        		.byte	-108
 5972 00bf 92        		.byte	-110
 5973 00c0 90        		.byte	-112
 5974 00c1 8E        		.byte	-114
 5975 00c2 8C        		.byte	-116
 5976 00c3 8A        		.byte	-118
 5977 00c4 89        		.byte	-119
 5978 00c5 87        		.byte	-121
 5979 00c6 85        		.byte	-123
 5980 00c7 83        		.byte	-125
 5981 00c8 81        		.byte	-127
 5982 00c9 7F        		.byte	127
 5983 00ca 7D        		.byte	125
 5984 00cb 7B        		.byte	123
 5985 00cc 79        		.byte	121
 5986 00cd 77        		.byte	119
 5987 00ce 75        		.byte	117
 5988 00cf 73        		.byte	115
 5989 00d0 71        		.byte	113
 5990 00d1 6F        		.byte	111
 5991 00d2 6D        		.byte	109
 5992 00d3 6B        		.byte	107
 5993 00d4 69        		.byte	105
 5994 00d5 68        		.byte	104
 5995 00d6 66        		.byte	102
 5996 00d7 64        		.byte	100
 5997 00d8 62        		.byte	98
 5998 00d9 60        		.byte	96
 5999 00da 5E        		.byte	94
 6000 00db 5C        		.byte	92
 6001 00dc 5A        		.byte	90
 6002 00dd 59        		.byte	89
 6003 00de 57        		.byte	87
 6004 00df 55        		.byte	85
 6005 00e0 53        		.byte	83
 6006 00e1 51        		.byte	81
 6007 00e2 50        		.byte	80
 6008 00e3 4E        		.byte	78
 6009 00e4 4C        		.byte	76
 6010 00e5 4A        		.byte	74
 6011 00e6 49        		.byte	73
 6012 00e7 47        		.byte	71
 6013 00e8 45        		.byte	69
 6014 00e9 43        		.byte	67
 6015 00ea 42        		.byte	66
 6016 00eb 40        		.byte	64
 6017 00ec 3E        		.byte	62
 6018 00ed 3D        		.byte	61
 6019 00ee 3B        		.byte	59
 6020 00ef 3A        		.byte	58
 6021 00f0 38        		.byte	56
 6022 00f1 36        		.byte	54
 6023 00f2 35        		.byte	53
 6024 00f3 33        		.byte	51
 6025 00f4 32        		.byte	50
 6026 00f5 30        		.byte	48
 6027 00f6 2F        		.byte	47
 6028 00f7 2D        		.byte	45
 6029 00f8 2C        		.byte	44
 6030 00f9 2A        		.byte	42
 6031 00fa 29        		.byte	41
 6032 00fb 28        		.byte	40
 6033 00fc 26        		.byte	38
 6034 00fd 25        		.byte	37
 6035 00fe 23        		.byte	35
 6036 00ff 22        		.byte	34
 6037               	.global	rgblight_ranges
 6038               		.section	.data.rgblight_ranges,"aw"
 6041               	rgblight_ranges:
 6042 0000 00        		.byte	0
 6043 0001 1B        		.byte	27
 6044 0002 00        		.byte	0
 6045 0003 1B        		.byte	27
 6046 0004 1B        		.byte	27
 6047               		.comm	led,81,1
 6048               	.global	animation_status
 6049               		.section	.bss.animation_status,"aw",@nobits
 6052               	animation_status:
 6053 0000 0000 0000 		.zero	6
 6053      0000 
 6054               	.global	is_rgblight_initialized
 6055               		.section	.bss.is_rgblight_initialized,"aw",@nobits
 6058               	is_rgblight_initialized:
 6059 0000 00        		.zero	1
 6060               	.global	rgblight_status
 6061               		.section	.bss.rgblight_status,"aw",@nobits
 6064               	rgblight_status:
 6065 0000 0000 00   		.zero	3
 6066               		.comm	rgblight_config,5,1
 6067               		.weak	RGBLED_GRADIENT_RANGES
 6068               		.section	.progmem.data.RGBLED_GRADIENT_RANGES,"a"
 6071               	RGBLED_GRADIENT_RANGES:
 6072 0000 FF        		.byte	-1
 6073 0001 AA        		.byte	-86
 6074 0002 7F        		.byte	127
 6075 0003 55        		.byte	85
 6076 0004 40        		.byte	64
 6077               		.section	.rodata.mode_base_table,"a"
 6080               	mode_base_table:
 6081 0000 00        		.byte	0
 6082 0001 01        		.byte	1
 6083 0002 02        		.byte	2
 6084 0003 02        		.byte	2
 6085 0004 02        		.byte	2
 6086 0005 02        		.byte	2
 6087 0006 06        		.byte	6
 6088 0007 06        		.byte	6
 6089 0008 06        		.byte	6
 6090 0009 09        		.byte	9
 6091 000a 09        		.byte	9
 6092 000b 09        		.byte	9
 6093 000c 09        		.byte	9
 6094 000d 09        		.byte	9
 6095 000e 09        		.byte	9
 6096 000f 0F        		.byte	15
 6097 0010 0F        		.byte	15
 6098 0011 0F        		.byte	15
 6099 0012 0F        		.byte	15
 6100 0013 0F        		.byte	15
 6101 0014 0F        		.byte	15
 6102 0015 15        		.byte	21
 6103 0016 15        		.byte	21
 6104 0017 15        		.byte	21
 6105 0018 18        		.byte	24
 6106 0019 19        		.byte	25
 6107 001a 19        		.byte	25
 6108 001b 19        		.byte	25
 6109 001c 19        		.byte	25
 6110 001d 19        		.byte	25
 6111 001e 19        		.byte	25
 6112 001f 19        		.byte	25
 6113 0020 19        		.byte	25
 6114 0021 19        		.byte	25
 6115 0022 19        		.byte	25
 6116 0023 23        		.byte	35
 6117 0024 24        		.byte	36
 6118 0025 25        		.byte	37
 6119 0026 25        		.byte	37
 6120 0027 25        		.byte	37
 6121 0028 25        		.byte	37
 6122 0029 25        		.byte	37
 6123 002a 25        		.byte	37
 6124               		.section	.data.static_effect_table,"aw"
 6127               	static_effect_table:
 6128 0000 01        		.byte	1
 6129 0001 19        		.byte	25
 6130 0002 1A        		.byte	26
 6131 0003 1B        		.byte	27
 6132 0004 1C        		.byte	28
 6133 0005 1D        		.byte	29
 6134 0006 1E        		.byte	30
 6135 0007 1F        		.byte	31
 6136 0008 20        		.byte	32
 6137 0009 21        		.byte	33
 6138 000a 22        		.byte	34
 6139               		.text
 6140               	.Letext0:
 6141               		.file 4 "/usr/local/Cellar/avr-gcc@8/8.4.0_2/avr/include/stdint.h"
 6142               		.file 5 "/usr/local/Cellar/avr-gcc@8/8.4.0_2/lib/avr-gcc/8/gcc/avr/8.4.0/include/stddef.h"
 6143               		.file 6 "/usr/local/Cellar/avr-gcc@8/8.4.0_2/avr/include/stdlib.h"
 6144               		.file 7 "tmk_core/common/timer.h"
 6145               		.file 8 "./quantum/color.h"
 6146               		.file 9 "quantum/rgblight.h"
 6147               		.file 10 "tmk_core/common/debug.h"
 6148               		.file 11 "quantum/led_tables.h"
 6149               		.file 12 "./lib/lib8tion/random8.h"
 6150               		.file 13 "./lib/lib8tion/trig8.h"
 6151               		.file 14 "quantum/rgblight_breathe_table.h"
 6152               		.file 15 "/usr/local/Cellar/avr-gcc@8/8.4.0_2/avr/include/string.h"
 6153               		.file 16 "drivers/ws2812.h"
 6154               		.file 17 "tmk_core/common/eeconfig.h"
 6155               		.file 18 "/usr/local/Cellar/avr-gcc@8/8.4.0_2/avr/include/avr/eeprom.h"
DEFINED SYMBOLS
                            *ABS*:0000000000000000 rgblight.c
/var/folders/xk/fjkh8m297bb3lq7fwx2mh0vh0000gq/T//cch8KZiZ.s:2      *ABS*:000000000000003e __SP_H__
/var/folders/xk/fjkh8m297bb3lq7fwx2mh0vh0000gq/T//cch8KZiZ.s:3      *ABS*:000000000000003d __SP_L__
/var/folders/xk/fjkh8m297bb3lq7fwx2mh0vh0000gq/T//cch8KZiZ.s:4      *ABS*:000000000000003f __SREG__
/var/folders/xk/fjkh8m297bb3lq7fwx2mh0vh0000gq/T//cch8KZiZ.s:5      *ABS*:0000000000000000 __tmp_reg__
/var/folders/xk/fjkh8m297bb3lq7fwx2mh0vh0000gq/T//cch8KZiZ.s:6      *ABS*:0000000000000001 __zero_reg__
/var/folders/xk/fjkh8m297bb3lq7fwx2mh0vh0000gq/T//cch8KZiZ.s:12     .text.rgblight_effect_dummy:0000000000000000 rgblight_effect_dummy
/var/folders/xk/fjkh8m297bb3lq7fwx2mh0vh0000gq/T//cch8KZiZ.s:16     .text.rgblight_effect_dummy:0000000000000000 .Loc.0
/var/folders/xk/fjkh8m297bb3lq7fwx2mh0vh0000gq/T//cch8KZiZ.s:17     .text.rgblight_effect_dummy:0000000000000000 L0
/var/folders/xk/fjkh8m297bb3lq7fwx2mh0vh0000gq/T//cch8KZiZ.s:22     .text.rgblight_effect_dummy:0000000000000000 .Loc.1
/var/folders/xk/fjkh8m297bb3lq7fwx2mh0vh0000gq/T//cch8KZiZ.s:25     .text.rgblight_effect_dummy:0000000000000002 L0
/var/folders/xk/fjkh8m297bb3lq7fwx2mh0vh0000gq/T//cch8KZiZ.s:31     .text.rgblight_set_clipping_range:0000000000000000 rgblight_set_clipping_range
/var/folders/xk/fjkh8m297bb3lq7fwx2mh0vh0000gq/T//cch8KZiZ.s:34     .text.rgblight_set_clipping_range:0000000000000000 .Loc.2
/var/folders/xk/fjkh8m297bb3lq7fwx2mh0vh0000gq/T//cch8KZiZ.s:35     .text.rgblight_set_clipping_range:0000000000000000 L0
/var/folders/xk/fjkh8m297bb3lq7fwx2mh0vh0000gq/T//cch8KZiZ.s:40     .text.rgblight_set_clipping_range:0000000000000000 .Loc.3
/var/folders/xk/fjkh8m297bb3lq7fwx2mh0vh0000gq/T//cch8KZiZ.s:41     .text.rgblight_set_clipping_range:0000000000000000 .Loc.4
/var/folders/xk/fjkh8m297bb3lq7fwx2mh0vh0000gq/T//cch8KZiZ.s:6041   .data.rgblight_ranges:0000000000000000 rgblight_ranges
/var/folders/xk/fjkh8m297bb3lq7fwx2mh0vh0000gq/T//cch8KZiZ.s:45     .text.rgblight_set_clipping_range:0000000000000006 .Loc.5
/var/folders/xk/fjkh8m297bb3lq7fwx2mh0vh0000gq/T//cch8KZiZ.s:46     .text.rgblight_set_clipping_range:0000000000000006 .Loc.6
/var/folders/xk/fjkh8m297bb3lq7fwx2mh0vh0000gq/T//cch8KZiZ.s:49     .text.rgblight_set_clipping_range:0000000000000008 .Loc.7
/var/folders/xk/fjkh8m297bb3lq7fwx2mh0vh0000gq/T//cch8KZiZ.s:51     .text.rgblight_set_clipping_range:000000000000000a L0
/var/folders/xk/fjkh8m297bb3lq7fwx2mh0vh0000gq/T//cch8KZiZ.s:57     .text.rgblight_set_effect_range:0000000000000000 rgblight_set_effect_range
/var/folders/xk/fjkh8m297bb3lq7fwx2mh0vh0000gq/T//cch8KZiZ.s:60     .text.rgblight_set_effect_range:0000000000000000 .Loc.8
/var/folders/xk/fjkh8m297bb3lq7fwx2mh0vh0000gq/T//cch8KZiZ.s:61     .text.rgblight_set_effect_range:0000000000000000 L0
/var/folders/xk/fjkh8m297bb3lq7fwx2mh0vh0000gq/T//cch8KZiZ.s:66     .text.rgblight_set_effect_range:0000000000000000 .Loc.9
/var/folders/xk/fjkh8m297bb3lq7fwx2mh0vh0000gq/T//cch8KZiZ.s:67     .text.rgblight_set_effect_range:0000000000000000 .Loc.10
/var/folders/xk/fjkh8m297bb3lq7fwx2mh0vh0000gq/T//cch8KZiZ.s:70     .text.rgblight_set_effect_range:0000000000000004 .Loc.11
/var/folders/xk/fjkh8m297bb3lq7fwx2mh0vh0000gq/T//cch8KZiZ.s:71     .text.rgblight_set_effect_range:0000000000000004 .Loc.12
/var/folders/xk/fjkh8m297bb3lq7fwx2mh0vh0000gq/T//cch8KZiZ.s:76     .text.rgblight_set_effect_range:000000000000000c .Loc.13
/var/folders/xk/fjkh8m297bb3lq7fwx2mh0vh0000gq/T//cch8KZiZ.s:80     .text.rgblight_set_effect_range:0000000000000012 .Loc.14
/var/folders/xk/fjkh8m297bb3lq7fwx2mh0vh0000gq/T//cch8KZiZ.s:81     .text.rgblight_set_effect_range:0000000000000012 .Loc.15
/var/folders/xk/fjkh8m297bb3lq7fwx2mh0vh0000gq/T//cch8KZiZ.s:83     .text.rgblight_set_effect_range:0000000000000016 .Loc.16
/var/folders/xk/fjkh8m297bb3lq7fwx2mh0vh0000gq/T//cch8KZiZ.s:84     .text.rgblight_set_effect_range:0000000000000016 .Loc.17
/var/folders/xk/fjkh8m297bb3lq7fwx2mh0vh0000gq/T//cch8KZiZ.s:87     .text.rgblight_set_effect_range:0000000000000018 .Loc.18
/var/folders/xk/fjkh8m297bb3lq7fwx2mh0vh0000gq/T//cch8KZiZ.s:89     .text.rgblight_set_effect_range:000000000000001c .Loc.19
/var/folders/xk/fjkh8m297bb3lq7fwx2mh0vh0000gq/T//cch8KZiZ.s:90     .text.rgblight_set_effect_range:000000000000001c .Loc.20
/var/folders/xk/fjkh8m297bb3lq7fwx2mh0vh0000gq/T//cch8KZiZ.s:95     .text.rgblight_set_effect_range:0000000000000020 .Loc.21
/var/folders/xk/fjkh8m297bb3lq7fwx2mh0vh0000gq/T//cch8KZiZ.s:97     .text.rgblight_set_effect_range:0000000000000022 L0
/var/folders/xk/fjkh8m297bb3lq7fwx2mh0vh0000gq/T//cch8KZiZ.s:103    .text.rgblight_hsv_to_rgb:0000000000000000 rgblight_hsv_to_rgb
/var/folders/xk/fjkh8m297bb3lq7fwx2mh0vh0000gq/T//cch8KZiZ.s:106    .text.rgblight_hsv_to_rgb:0000000000000000 .Loc.22
/var/folders/xk/fjkh8m297bb3lq7fwx2mh0vh0000gq/T//cch8KZiZ.s:107    .text.rgblight_hsv_to_rgb:0000000000000000 L0
/var/folders/xk/fjkh8m297bb3lq7fwx2mh0vh0000gq/T//cch8KZiZ.s:112    .text.rgblight_hsv_to_rgb:0000000000000000 .Loc.23
/var/folders/xk/fjkh8m297bb3lq7fwx2mh0vh0000gq/T//cch8KZiZ.s:113    .text.rgblight_hsv_to_rgb:0000000000000000 .Loc.24
/var/folders/xk/fjkh8m297bb3lq7fwx2mh0vh0000gq/T//cch8KZiZ.s:116    .text.rgblight_hsv_to_rgb:0000000000000004 .Loc.25
/var/folders/xk/fjkh8m297bb3lq7fwx2mh0vh0000gq/T//cch8KZiZ.s:117    .text.rgblight_hsv_to_rgb:0000000000000004 L0
/var/folders/xk/fjkh8m297bb3lq7fwx2mh0vh0000gq/T//cch8KZiZ.s:123    .text.sethsv_raw:0000000000000000 sethsv_raw
/var/folders/xk/fjkh8m297bb3lq7fwx2mh0vh0000gq/T//cch8KZiZ.s:126    .text.sethsv_raw:0000000000000000 .Loc.26
/var/folders/xk/fjkh8m297bb3lq7fwx2mh0vh0000gq/T//cch8KZiZ.s:127    .text.sethsv_raw:0000000000000000 L0
/var/folders/xk/fjkh8m297bb3lq7fwx2mh0vh0000gq/T//cch8KZiZ.s:128    .text.sethsv_raw:0000000000000000 .Loc.27
/var/folders/xk/fjkh8m297bb3lq7fwx2mh0vh0000gq/T//cch8KZiZ.s:143    .text.sethsv_raw:0000000000000008 .Loc.28
/var/folders/xk/fjkh8m297bb3lq7fwx2mh0vh0000gq/T//cch8KZiZ.s:144    .text.sethsv_raw:0000000000000008 .Loc.29
/var/folders/xk/fjkh8m297bb3lq7fwx2mh0vh0000gq/T//cch8KZiZ.s:145    .text.sethsv_raw:0000000000000008 .Loc.30
/var/folders/xk/fjkh8m297bb3lq7fwx2mh0vh0000gq/T//cch8KZiZ.s:148    .text.sethsv_raw:000000000000000a .Loc.31
/var/folders/xk/fjkh8m297bb3lq7fwx2mh0vh0000gq/T//cch8KZiZ.s:151    .text.sethsv_raw:000000000000000c .Loc.32
/var/folders/xk/fjkh8m297bb3lq7fwx2mh0vh0000gq/T//cch8KZiZ.s:154    .text.sethsv_raw:0000000000000010 .Loc.33
/var/folders/xk/fjkh8m297bb3lq7fwx2mh0vh0000gq/T//cch8KZiZ.s:157    .text.sethsv_raw:0000000000000010 .Loc.34
/var/folders/xk/fjkh8m297bb3lq7fwx2mh0vh0000gq/T//cch8KZiZ.s:159    .text.sethsv_raw:0000000000000010 .Loc.35
/var/folders/xk/fjkh8m297bb3lq7fwx2mh0vh0000gq/T//cch8KZiZ.s:160    .text.sethsv_raw:0000000000000010 .Loc.36
/var/folders/xk/fjkh8m297bb3lq7fwx2mh0vh0000gq/T//cch8KZiZ.s:162    .text.sethsv_raw:0000000000000012 .Loc.37
/var/folders/xk/fjkh8m297bb3lq7fwx2mh0vh0000gq/T//cch8KZiZ.s:163    .text.sethsv_raw:0000000000000012 .Loc.38
/var/folders/xk/fjkh8m297bb3lq7fwx2mh0vh0000gq/T//cch8KZiZ.s:165    .text.sethsv_raw:0000000000000014 .Loc.39
/var/folders/xk/fjkh8m297bb3lq7fwx2mh0vh0000gq/T//cch8KZiZ.s:166    .text.sethsv_raw:0000000000000014 .Loc.40
/var/folders/xk/fjkh8m297bb3lq7fwx2mh0vh0000gq/T//cch8KZiZ.s:170    .text.sethsv_raw:0000000000000016 .Loc.41
/var/folders/xk/fjkh8m297bb3lq7fwx2mh0vh0000gq/T//cch8KZiZ.s:173    .text.sethsv_raw:0000000000000016 .Loc.42
/var/folders/xk/fjkh8m297bb3lq7fwx2mh0vh0000gq/T//cch8KZiZ.s:177    .text.sethsv_raw:000000000000001a .Loc.43
/var/folders/xk/fjkh8m297bb3lq7fwx2mh0vh0000gq/T//cch8KZiZ.s:179    .text.sethsv_raw:000000000000001c L0
/var/folders/xk/fjkh8m297bb3lq7fwx2mh0vh0000gq/T//cch8KZiZ.s:185    .text.sethsv:0000000000000000 sethsv
/var/folders/xk/fjkh8m297bb3lq7fwx2mh0vh0000gq/T//cch8KZiZ.s:188    .text.sethsv:0000000000000000 .Loc.44
/var/folders/xk/fjkh8m297bb3lq7fwx2mh0vh0000gq/T//cch8KZiZ.s:189    .text.sethsv:0000000000000000 L0
/var/folders/xk/fjkh8m297bb3lq7fwx2mh0vh0000gq/T//cch8KZiZ.s:194    .text.sethsv:0000000000000000 .Loc.45
/var/folders/xk/fjkh8m297bb3lq7fwx2mh0vh0000gq/T//cch8KZiZ.s:200    .text.sethsv:0000000000000006 .Loc.46
/var/folders/xk/fjkh8m297bb3lq7fwx2mh0vh0000gq/T//cch8KZiZ.s:203    .text.sethsv:000000000000000a .Loc.47
/var/folders/xk/fjkh8m297bb3lq7fwx2mh0vh0000gq/T//cch8KZiZ.s:204    .text.sethsv:000000000000000a L0
/var/folders/xk/fjkh8m297bb3lq7fwx2mh0vh0000gq/T//cch8KZiZ.s:210    .text.setrgb:0000000000000000 setrgb
/var/folders/xk/fjkh8m297bb3lq7fwx2mh0vh0000gq/T//cch8KZiZ.s:213    .text.setrgb:0000000000000000 .Loc.48
/var/folders/xk/fjkh8m297bb3lq7fwx2mh0vh0000gq/T//cch8KZiZ.s:214    .text.setrgb:0000000000000000 L0
/var/folders/xk/fjkh8m297bb3lq7fwx2mh0vh0000gq/T//cch8KZiZ.s:219    .text.setrgb:0000000000000000 .Loc.49
/var/folders/xk/fjkh8m297bb3lq7fwx2mh0vh0000gq/T//cch8KZiZ.s:221    .text.setrgb:0000000000000002 .Loc.50
/var/folders/xk/fjkh8m297bb3lq7fwx2mh0vh0000gq/T//cch8KZiZ.s:222    .text.setrgb:0000000000000002 .Loc.51
/var/folders/xk/fjkh8m297bb3lq7fwx2mh0vh0000gq/T//cch8KZiZ.s:224    .text.setrgb:0000000000000004 .Loc.52
/var/folders/xk/fjkh8m297bb3lq7fwx2mh0vh0000gq/T//cch8KZiZ.s:225    .text.setrgb:0000000000000004 .Loc.53
/var/folders/xk/fjkh8m297bb3lq7fwx2mh0vh0000gq/T//cch8KZiZ.s:227    .text.setrgb:0000000000000006 .Loc.54
/var/folders/xk/fjkh8m297bb3lq7fwx2mh0vh0000gq/T//cch8KZiZ.s:228    .text.setrgb:0000000000000006 .Loc.55
/var/folders/xk/fjkh8m297bb3lq7fwx2mh0vh0000gq/T//cch8KZiZ.s:231    .text.setrgb:0000000000000008 .Loc.56
/var/folders/xk/fjkh8m297bb3lq7fwx2mh0vh0000gq/T//cch8KZiZ.s:233    .text.setrgb:000000000000000a L0
/var/folders/xk/fjkh8m297bb3lq7fwx2mh0vh0000gq/T//cch8KZiZ.s:239    .text.rgblight_check_config:0000000000000000 rgblight_check_config
/var/folders/xk/fjkh8m297bb3lq7fwx2mh0vh0000gq/T//cch8KZiZ.s:241    .text.rgblight_check_config:0000000000000000 .Loc.57
/var/folders/xk/fjkh8m297bb3lq7fwx2mh0vh0000gq/T//cch8KZiZ.s:242    .text.rgblight_check_config:0000000000000000 L0
/var/folders/xk/fjkh8m297bb3lq7fwx2mh0vh0000gq/T//cch8KZiZ.s:247    .text.rgblight_check_config:0000000000000000 .Loc.58
/var/folders/xk/fjkh8m297bb3lq7fwx2mh0vh0000gq/T//cch8KZiZ.s:248    .text.rgblight_check_config:0000000000000000 .Loc.59
                            *COM*:0000000000000005 rgblight_config
/var/folders/xk/fjkh8m297bb3lq7fwx2mh0vh0000gq/T//cch8KZiZ.s:252    .text.rgblight_check_config:0000000000000008 .Loc.60
/var/folders/xk/fjkh8m297bb3lq7fwx2mh0vh0000gq/T//cch8KZiZ.s:254    .text.rgblight_check_config:000000000000000a .Loc.61
/var/folders/xk/fjkh8m297bb3lq7fwx2mh0vh0000gq/T//cch8KZiZ.s:255    .text.rgblight_check_config:000000000000000a .Loc.62
/var/folders/xk/fjkh8m297bb3lq7fwx2mh0vh0000gq/T//cch8KZiZ.s:259    .text.rgblight_check_config:000000000000000e .Loc.63
/var/folders/xk/fjkh8m297bb3lq7fwx2mh0vh0000gq/T//cch8KZiZ.s:262    .text.rgblight_check_config:0000000000000012 .Loc.64
/var/folders/xk/fjkh8m297bb3lq7fwx2mh0vh0000gq/T//cch8KZiZ.s:263    .text.rgblight_check_config:0000000000000012 .Loc.65
/var/folders/xk/fjkh8m297bb3lq7fwx2mh0vh0000gq/T//cch8KZiZ.s:267    .text.rgblight_check_config:000000000000001a .Loc.66
/var/folders/xk/fjkh8m297bb3lq7fwx2mh0vh0000gq/T//cch8KZiZ.s:268    .text.rgblight_check_config:000000000000001a .Loc.67
/var/folders/xk/fjkh8m297bb3lq7fwx2mh0vh0000gq/T//cch8KZiZ.s:273    .text.rgblight_check_config:0000000000000020 .Loc.68
/var/folders/xk/fjkh8m297bb3lq7fwx2mh0vh0000gq/T//cch8KZiZ.s:276    .text.rgblight_check_config:0000000000000022 .Loc.69
/var/folders/xk/fjkh8m297bb3lq7fwx2mh0vh0000gq/T//cch8KZiZ.s:277    .text.rgblight_check_config:0000000000000022 .Loc.70
/var/folders/xk/fjkh8m297bb3lq7fwx2mh0vh0000gq/T//cch8KZiZ.s:280    .text.rgblight_check_config:0000000000000026 .Loc.71
/var/folders/xk/fjkh8m297bb3lq7fwx2mh0vh0000gq/T//cch8KZiZ.s:281    .text.rgblight_check_config:0000000000000026 .Loc.72
/var/folders/xk/fjkh8m297bb3lq7fwx2mh0vh0000gq/T//cch8KZiZ.s:285    .text.rgblight_check_config:000000000000002c L0
/var/folders/xk/fjkh8m297bb3lq7fwx2mh0vh0000gq/T//cch8KZiZ.s:291    .text.eeconfig_read_rgblight:0000000000000000 eeconfig_read_rgblight
/var/folders/xk/fjkh8m297bb3lq7fwx2mh0vh0000gq/T//cch8KZiZ.s:293    .text.eeconfig_read_rgblight:0000000000000000 .Loc.73
/var/folders/xk/fjkh8m297bb3lq7fwx2mh0vh0000gq/T//cch8KZiZ.s:294    .text.eeconfig_read_rgblight:0000000000000000 L0
/var/folders/xk/fjkh8m297bb3lq7fwx2mh0vh0000gq/T//cch8KZiZ.s:299    .text.eeconfig_read_rgblight:0000000000000000 .Loc.74
/var/folders/xk/fjkh8m297bb3lq7fwx2mh0vh0000gq/T//cch8KZiZ.s:300    .text.eeconfig_read_rgblight:0000000000000000 .Loc.75
/var/folders/xk/fjkh8m297bb3lq7fwx2mh0vh0000gq/T//cch8KZiZ.s:305    .text.eeconfig_read_rgblight:0000000000000008 L0
/var/folders/xk/fjkh8m297bb3lq7fwx2mh0vh0000gq/T//cch8KZiZ.s:311    .text.eeconfig_update_rgblight:0000000000000000 eeconfig_update_rgblight
/var/folders/xk/fjkh8m297bb3lq7fwx2mh0vh0000gq/T//cch8KZiZ.s:314    .text.eeconfig_update_rgblight:0000000000000000 .Loc.76
/var/folders/xk/fjkh8m297bb3lq7fwx2mh0vh0000gq/T//cch8KZiZ.s:315    .text.eeconfig_update_rgblight:0000000000000000 L0
/var/folders/xk/fjkh8m297bb3lq7fwx2mh0vh0000gq/T//cch8KZiZ.s:316    .text.eeconfig_update_rgblight:0000000000000000 .Loc.77
/var/folders/xk/fjkh8m297bb3lq7fwx2mh0vh0000gq/T//cch8KZiZ.s:339    .text.eeconfig_update_rgblight:000000000000000c .Loc.78
/var/folders/xk/fjkh8m297bb3lq7fwx2mh0vh0000gq/T//cch8KZiZ.s:342    .text.eeconfig_update_rgblight:0000000000000010 .Loc.79
/var/folders/xk/fjkh8m297bb3lq7fwx2mh0vh0000gq/T//cch8KZiZ.s:348    .text.eeconfig_update_rgblight:0000000000000018 .Loc.80
/var/folders/xk/fjkh8m297bb3lq7fwx2mh0vh0000gq/T//cch8KZiZ.s:353    .text.eeconfig_update_rgblight:0000000000000020 .Loc.81
/var/folders/xk/fjkh8m297bb3lq7fwx2mh0vh0000gq/T//cch8KZiZ.s:356    .text.eeconfig_update_rgblight:0000000000000024 L0
/var/folders/xk/fjkh8m297bb3lq7fwx2mh0vh0000gq/T//cch8KZiZ.s:362    .text.eeconfig_update_rgblight_current:0000000000000000 eeconfig_update_rgblight_current
/var/folders/xk/fjkh8m297bb3lq7fwx2mh0vh0000gq/T//cch8KZiZ.s:364    .text.eeconfig_update_rgblight_current:0000000000000000 .Loc.82
/var/folders/xk/fjkh8m297bb3lq7fwx2mh0vh0000gq/T//cch8KZiZ.s:365    .text.eeconfig_update_rgblight_current:0000000000000000 L0
/var/folders/xk/fjkh8m297bb3lq7fwx2mh0vh0000gq/T//cch8KZiZ.s:370    .text.eeconfig_update_rgblight_current:0000000000000000 .Loc.83
/var/folders/xk/fjkh8m297bb3lq7fwx2mh0vh0000gq/T//cch8KZiZ.s:377    .text.eeconfig_update_rgblight_current:0000000000000014 L0
/var/folders/xk/fjkh8m297bb3lq7fwx2mh0vh0000gq/T//cch8KZiZ.s:383    .text.eeconfig_update_rgblight_default:0000000000000000 eeconfig_update_rgblight_default
/var/folders/xk/fjkh8m297bb3lq7fwx2mh0vh0000gq/T//cch8KZiZ.s:385    .text.eeconfig_update_rgblight_default:0000000000000000 .Loc.84
/var/folders/xk/fjkh8m297bb3lq7fwx2mh0vh0000gq/T//cch8KZiZ.s:386    .text.eeconfig_update_rgblight_default:0000000000000000 L0
/var/folders/xk/fjkh8m297bb3lq7fwx2mh0vh0000gq/T//cch8KZiZ.s:391    .text.eeconfig_update_rgblight_default:0000000000000000 .Loc.85
/var/folders/xk/fjkh8m297bb3lq7fwx2mh0vh0000gq/T//cch8KZiZ.s:392    .text.eeconfig_update_rgblight_default:0000000000000000 .Loc.86
/var/folders/xk/fjkh8m297bb3lq7fwx2mh0vh0000gq/T//cch8KZiZ.s:393    .text.eeconfig_update_rgblight_default:0000000000000000 .Loc.87
/var/folders/xk/fjkh8m297bb3lq7fwx2mh0vh0000gq/T//cch8KZiZ.s:394    .text.eeconfig_update_rgblight_default:0000000000000000 .Loc.88
/var/folders/xk/fjkh8m297bb3lq7fwx2mh0vh0000gq/T//cch8KZiZ.s:395    .text.eeconfig_update_rgblight_default:0000000000000000 .Loc.89
/var/folders/xk/fjkh8m297bb3lq7fwx2mh0vh0000gq/T//cch8KZiZ.s:396    .text.eeconfig_update_rgblight_default:0000000000000000 .Loc.90
/var/folders/xk/fjkh8m297bb3lq7fwx2mh0vh0000gq/T//cch8KZiZ.s:397    .text.eeconfig_update_rgblight_default:0000000000000000 .Loc.91
/var/folders/xk/fjkh8m297bb3lq7fwx2mh0vh0000gq/T//cch8KZiZ.s:402    .text.eeconfig_update_rgblight_default:0000000000000008 .Loc.92
/var/folders/xk/fjkh8m297bb3lq7fwx2mh0vh0000gq/T//cch8KZiZ.s:404    .text.eeconfig_update_rgblight_default:000000000000000a .Loc.93
/var/folders/xk/fjkh8m297bb3lq7fwx2mh0vh0000gq/T//cch8KZiZ.s:407    .text.eeconfig_update_rgblight_default:000000000000000e .Loc.94
/var/folders/xk/fjkh8m297bb3lq7fwx2mh0vh0000gq/T//cch8KZiZ.s:410    .text.eeconfig_update_rgblight_default:0000000000000012 .Loc.95
/var/folders/xk/fjkh8m297bb3lq7fwx2mh0vh0000gq/T//cch8KZiZ.s:412    .text.eeconfig_update_rgblight_default:0000000000000014 .Loc.96
/var/folders/xk/fjkh8m297bb3lq7fwx2mh0vh0000gq/T//cch8KZiZ.s:6064   .bss.rgblight_status:0000000000000000 rgblight_status
/var/folders/xk/fjkh8m297bb3lq7fwx2mh0vh0000gq/T//cch8KZiZ.s:421    .text.eeconfig_update_rgblight_default:0000000000000024 .Loc.97
/var/folders/xk/fjkh8m297bb3lq7fwx2mh0vh0000gq/T//cch8KZiZ.s:428    .text.eeconfig_update_rgblight_default:0000000000000030 L0
/var/folders/xk/fjkh8m297bb3lq7fwx2mh0vh0000gq/T//cch8KZiZ.s:434    .text.eeconfig_debug_rgblight:0000000000000000 eeconfig_debug_rgblight
/var/folders/xk/fjkh8m297bb3lq7fwx2mh0vh0000gq/T//cch8KZiZ.s:436    .text.eeconfig_debug_rgblight:0000000000000000 .Loc.98
/var/folders/xk/fjkh8m297bb3lq7fwx2mh0vh0000gq/T//cch8KZiZ.s:437    .text.eeconfig_debug_rgblight:0000000000000000 L0
/var/folders/xk/fjkh8m297bb3lq7fwx2mh0vh0000gq/T//cch8KZiZ.s:442    .text.eeconfig_debug_rgblight:0000000000000000 .Loc.99
/var/folders/xk/fjkh8m297bb3lq7fwx2mh0vh0000gq/T//cch8KZiZ.s:443    .text.eeconfig_debug_rgblight:0000000000000000 .Loc.100
/var/folders/xk/fjkh8m297bb3lq7fwx2mh0vh0000gq/T//cch8KZiZ.s:444    .text.eeconfig_debug_rgblight:0000000000000000 .Loc.101
/var/folders/xk/fjkh8m297bb3lq7fwx2mh0vh0000gq/T//cch8KZiZ.s:445    .text.eeconfig_debug_rgblight:0000000000000000 .Loc.102
/var/folders/xk/fjkh8m297bb3lq7fwx2mh0vh0000gq/T//cch8KZiZ.s:446    .text.eeconfig_debug_rgblight:0000000000000000 .Loc.103
/var/folders/xk/fjkh8m297bb3lq7fwx2mh0vh0000gq/T//cch8KZiZ.s:447    .text.eeconfig_debug_rgblight:0000000000000000 .Loc.104
/var/folders/xk/fjkh8m297bb3lq7fwx2mh0vh0000gq/T//cch8KZiZ.s:448    .text.eeconfig_debug_rgblight:0000000000000000 .Loc.105
/var/folders/xk/fjkh8m297bb3lq7fwx2mh0vh0000gq/T//cch8KZiZ.s:450    .text.eeconfig_debug_rgblight:0000000000000000 .Loc.106
/var/folders/xk/fjkh8m297bb3lq7fwx2mh0vh0000gq/T//cch8KZiZ.s:452    .text.eeconfig_debug_rgblight:0000000000000002 L0
/var/folders/xk/fjkh8m297bb3lq7fwx2mh0vh0000gq/T//cch8KZiZ.s:458    .text.rgblight_read_dword:0000000000000000 rgblight_read_dword
/var/folders/xk/fjkh8m297bb3lq7fwx2mh0vh0000gq/T//cch8KZiZ.s:460    .text.rgblight_read_dword:0000000000000000 .Loc.107
/var/folders/xk/fjkh8m297bb3lq7fwx2mh0vh0000gq/T//cch8KZiZ.s:461    .text.rgblight_read_dword:0000000000000000 L0
/var/folders/xk/fjkh8m297bb3lq7fwx2mh0vh0000gq/T//cch8KZiZ.s:466    .text.rgblight_read_dword:0000000000000000 .Loc.108
/var/folders/xk/fjkh8m297bb3lq7fwx2mh0vh0000gq/T//cch8KZiZ.s:467    .text.rgblight_read_dword:0000000000000000 .Loc.109
/var/folders/xk/fjkh8m297bb3lq7fwx2mh0vh0000gq/T//cch8KZiZ.s:473    .text.rgblight_read_dword:0000000000000010 .Loc.110
/var/folders/xk/fjkh8m297bb3lq7fwx2mh0vh0000gq/T//cch8KZiZ.s:475    .text.rgblight_read_dword:0000000000000012 L0
/var/folders/xk/fjkh8m297bb3lq7fwx2mh0vh0000gq/T//cch8KZiZ.s:481    .text.rgblight_get_mode:0000000000000000 rgblight_get_mode
/var/folders/xk/fjkh8m297bb3lq7fwx2mh0vh0000gq/T//cch8KZiZ.s:483    .text.rgblight_get_mode:0000000000000000 .Loc.111
/var/folders/xk/fjkh8m297bb3lq7fwx2mh0vh0000gq/T//cch8KZiZ.s:484    .text.rgblight_get_mode:0000000000000000 L0
/var/folders/xk/fjkh8m297bb3lq7fwx2mh0vh0000gq/T//cch8KZiZ.s:489    .text.rgblight_get_mode:0000000000000000 .Loc.112
/var/folders/xk/fjkh8m297bb3lq7fwx2mh0vh0000gq/T//cch8KZiZ.s:490    .text.rgblight_get_mode:0000000000000000 .Loc.113
/var/folders/xk/fjkh8m297bb3lq7fwx2mh0vh0000gq/T//cch8KZiZ.s:492    .text.rgblight_get_mode:0000000000000004 .Loc.114
/var/folders/xk/fjkh8m297bb3lq7fwx2mh0vh0000gq/T//cch8KZiZ.s:495    .text.rgblight_get_mode:0000000000000008 .Loc.115
/var/folders/xk/fjkh8m297bb3lq7fwx2mh0vh0000gq/T//cch8KZiZ.s:496    .text.rgblight_get_mode:0000000000000008 .Loc.116
/var/folders/xk/fjkh8m297bb3lq7fwx2mh0vh0000gq/T//cch8KZiZ.s:500    .text.rgblight_get_mode:000000000000000c .Loc.117
/var/folders/xk/fjkh8m297bb3lq7fwx2mh0vh0000gq/T//cch8KZiZ.s:503    .text.rgblight_get_mode:000000000000000e .Loc.118
/var/folders/xk/fjkh8m297bb3lq7fwx2mh0vh0000gq/T//cch8KZiZ.s:505    .text.rgblight_get_mode:0000000000000010 L0
/var/folders/xk/fjkh8m297bb3lq7fwx2mh0vh0000gq/T//cch8KZiZ.s:511    .text.rgblight_is_enabled:0000000000000000 rgblight_is_enabled
/var/folders/xk/fjkh8m297bb3lq7fwx2mh0vh0000gq/T//cch8KZiZ.s:513    .text.rgblight_is_enabled:0000000000000000 .Loc.119
/var/folders/xk/fjkh8m297bb3lq7fwx2mh0vh0000gq/T//cch8KZiZ.s:514    .text.rgblight_is_enabled:0000000000000000 L0
/var/folders/xk/fjkh8m297bb3lq7fwx2mh0vh0000gq/T//cch8KZiZ.s:519    .text.rgblight_is_enabled:0000000000000000 .Loc.120
/var/folders/xk/fjkh8m297bb3lq7fwx2mh0vh0000gq/T//cch8KZiZ.s:520    .text.rgblight_is_enabled:0000000000000000 .Loc.121
/var/folders/xk/fjkh8m297bb3lq7fwx2mh0vh0000gq/T//cch8KZiZ.s:522    .text.rgblight_is_enabled:0000000000000004 .Loc.122
/var/folders/xk/fjkh8m297bb3lq7fwx2mh0vh0000gq/T//cch8KZiZ.s:526    .text.rgblight_is_enabled:0000000000000008 L0
/var/folders/xk/fjkh8m297bb3lq7fwx2mh0vh0000gq/T//cch8KZiZ.s:532    .text.rgblight_increase_speed_helper:0000000000000000 rgblight_increase_speed_helper
/var/folders/xk/fjkh8m297bb3lq7fwx2mh0vh0000gq/T//cch8KZiZ.s:535    .text.rgblight_increase_speed_helper:0000000000000000 .Loc.123
/var/folders/xk/fjkh8m297bb3lq7fwx2mh0vh0000gq/T//cch8KZiZ.s:536    .text.rgblight_increase_speed_helper:0000000000000000 L0
/var/folders/xk/fjkh8m297bb3lq7fwx2mh0vh0000gq/T//cch8KZiZ.s:541    .text.rgblight_increase_speed_helper:0000000000000000 .Loc.124
/var/folders/xk/fjkh8m297bb3lq7fwx2mh0vh0000gq/T//cch8KZiZ.s:542    .text.rgblight_increase_speed_helper:0000000000000000 .Loc.125
/var/folders/xk/fjkh8m297bb3lq7fwx2mh0vh0000gq/T//cch8KZiZ.s:544    .text.rgblight_increase_speed_helper:0000000000000004 .Loc.126
/var/folders/xk/fjkh8m297bb3lq7fwx2mh0vh0000gq/T//cch8KZiZ.s:547    .text.rgblight_increase_speed_helper:0000000000000008 .Loc.127
/var/folders/xk/fjkh8m297bb3lq7fwx2mh0vh0000gq/T//cch8KZiZ.s:548    .text.rgblight_increase_speed_helper:0000000000000008 .Loc.128
/var/folders/xk/fjkh8m297bb3lq7fwx2mh0vh0000gq/T//cch8KZiZ.s:552    .text.rgblight_increase_speed_helper:000000000000000e .Loc.129
/var/folders/xk/fjkh8m297bb3lq7fwx2mh0vh0000gq/T//cch8KZiZ.s:553    .text.rgblight_increase_speed_helper:000000000000000e .Loc.130
/var/folders/xk/fjkh8m297bb3lq7fwx2mh0vh0000gq/T//cch8KZiZ.s:556    .text.rgblight_increase_speed_helper:0000000000000012 .Loc.131
/var/folders/xk/fjkh8m297bb3lq7fwx2mh0vh0000gq/T//cch8KZiZ.s:565    .text.rgblight_increase_speed_helper:0000000000000026 .Loc.132
/var/folders/xk/fjkh8m297bb3lq7fwx2mh0vh0000gq/T//cch8KZiZ.s:567    .text.rgblight_increase_speed_helper:0000000000000028 L0
/var/folders/xk/fjkh8m297bb3lq7fwx2mh0vh0000gq/T//cch8KZiZ.s:573    .text.rgblight_increase_speed:0000000000000000 rgblight_increase_speed
/var/folders/xk/fjkh8m297bb3lq7fwx2mh0vh0000gq/T//cch8KZiZ.s:575    .text.rgblight_increase_speed:0000000000000000 .Loc.133
/var/folders/xk/fjkh8m297bb3lq7fwx2mh0vh0000gq/T//cch8KZiZ.s:576    .text.rgblight_increase_speed:0000000000000000 L0
/var/folders/xk/fjkh8m297bb3lq7fwx2mh0vh0000gq/T//cch8KZiZ.s:581    .text.rgblight_increase_speed:0000000000000000 .Loc.134
/var/folders/xk/fjkh8m297bb3lq7fwx2mh0vh0000gq/T//cch8KZiZ.s:585    .text.rgblight_increase_speed:0000000000000006 L0
/var/folders/xk/fjkh8m297bb3lq7fwx2mh0vh0000gq/T//cch8KZiZ.s:591    .text.rgblight_increase_speed_noeeprom:0000000000000000 rgblight_increase_speed_noeeprom
/var/folders/xk/fjkh8m297bb3lq7fwx2mh0vh0000gq/T//cch8KZiZ.s:593    .text.rgblight_increase_speed_noeeprom:0000000000000000 .Loc.135
/var/folders/xk/fjkh8m297bb3lq7fwx2mh0vh0000gq/T//cch8KZiZ.s:594    .text.rgblight_increase_speed_noeeprom:0000000000000000 L0
/var/folders/xk/fjkh8m297bb3lq7fwx2mh0vh0000gq/T//cch8KZiZ.s:599    .text.rgblight_increase_speed_noeeprom:0000000000000000 .Loc.136
/var/folders/xk/fjkh8m297bb3lq7fwx2mh0vh0000gq/T//cch8KZiZ.s:603    .text.rgblight_increase_speed_noeeprom:0000000000000006 L0
/var/folders/xk/fjkh8m297bb3lq7fwx2mh0vh0000gq/T//cch8KZiZ.s:609    .text.rgblight_decrease_speed_helper:0000000000000000 rgblight_decrease_speed_helper
/var/folders/xk/fjkh8m297bb3lq7fwx2mh0vh0000gq/T//cch8KZiZ.s:612    .text.rgblight_decrease_speed_helper:0000000000000000 .Loc.137
/var/folders/xk/fjkh8m297bb3lq7fwx2mh0vh0000gq/T//cch8KZiZ.s:613    .text.rgblight_decrease_speed_helper:0000000000000000 L0
/var/folders/xk/fjkh8m297bb3lq7fwx2mh0vh0000gq/T//cch8KZiZ.s:618    .text.rgblight_decrease_speed_helper:0000000000000000 .Loc.138
/var/folders/xk/fjkh8m297bb3lq7fwx2mh0vh0000gq/T//cch8KZiZ.s:619    .text.rgblight_decrease_speed_helper:0000000000000000 .Loc.139
/var/folders/xk/fjkh8m297bb3lq7fwx2mh0vh0000gq/T//cch8KZiZ.s:621    .text.rgblight_decrease_speed_helper:0000000000000004 .Loc.140
/var/folders/xk/fjkh8m297bb3lq7fwx2mh0vh0000gq/T//cch8KZiZ.s:624    .text.rgblight_decrease_speed_helper:0000000000000008 .Loc.141
/var/folders/xk/fjkh8m297bb3lq7fwx2mh0vh0000gq/T//cch8KZiZ.s:625    .text.rgblight_decrease_speed_helper:0000000000000008 .Loc.142
/var/folders/xk/fjkh8m297bb3lq7fwx2mh0vh0000gq/T//cch8KZiZ.s:629    .text.rgblight_decrease_speed_helper:000000000000000e .Loc.143
/var/folders/xk/fjkh8m297bb3lq7fwx2mh0vh0000gq/T//cch8KZiZ.s:630    .text.rgblight_decrease_speed_helper:000000000000000e .Loc.144
/var/folders/xk/fjkh8m297bb3lq7fwx2mh0vh0000gq/T//cch8KZiZ.s:633    .text.rgblight_decrease_speed_helper:0000000000000012 .Loc.145
/var/folders/xk/fjkh8m297bb3lq7fwx2mh0vh0000gq/T//cch8KZiZ.s:642    .text.rgblight_decrease_speed_helper:0000000000000026 .Loc.146
/var/folders/xk/fjkh8m297bb3lq7fwx2mh0vh0000gq/T//cch8KZiZ.s:644    .text.rgblight_decrease_speed_helper:0000000000000028 L0
/var/folders/xk/fjkh8m297bb3lq7fwx2mh0vh0000gq/T//cch8KZiZ.s:650    .text.rgblight_decrease_speed:0000000000000000 rgblight_decrease_speed
/var/folders/xk/fjkh8m297bb3lq7fwx2mh0vh0000gq/T//cch8KZiZ.s:652    .text.rgblight_decrease_speed:0000000000000000 .Loc.147
/var/folders/xk/fjkh8m297bb3lq7fwx2mh0vh0000gq/T//cch8KZiZ.s:653    .text.rgblight_decrease_speed:0000000000000000 L0
/var/folders/xk/fjkh8m297bb3lq7fwx2mh0vh0000gq/T//cch8KZiZ.s:658    .text.rgblight_decrease_speed:0000000000000000 .Loc.148
/var/folders/xk/fjkh8m297bb3lq7fwx2mh0vh0000gq/T//cch8KZiZ.s:662    .text.rgblight_decrease_speed:0000000000000006 L0
/var/folders/xk/fjkh8m297bb3lq7fwx2mh0vh0000gq/T//cch8KZiZ.s:668    .text.rgblight_decrease_speed_noeeprom:0000000000000000 rgblight_decrease_speed_noeeprom
/var/folders/xk/fjkh8m297bb3lq7fwx2mh0vh0000gq/T//cch8KZiZ.s:670    .text.rgblight_decrease_speed_noeeprom:0000000000000000 .Loc.149
/var/folders/xk/fjkh8m297bb3lq7fwx2mh0vh0000gq/T//cch8KZiZ.s:671    .text.rgblight_decrease_speed_noeeprom:0000000000000000 L0
/var/folders/xk/fjkh8m297bb3lq7fwx2mh0vh0000gq/T//cch8KZiZ.s:676    .text.rgblight_decrease_speed_noeeprom:0000000000000000 .Loc.150
/var/folders/xk/fjkh8m297bb3lq7fwx2mh0vh0000gq/T//cch8KZiZ.s:680    .text.rgblight_decrease_speed_noeeprom:0000000000000006 L0
/var/folders/xk/fjkh8m297bb3lq7fwx2mh0vh0000gq/T//cch8KZiZ.s:686    .text.rgblight_get_speed:0000000000000000 rgblight_get_speed
/var/folders/xk/fjkh8m297bb3lq7fwx2mh0vh0000gq/T//cch8KZiZ.s:688    .text.rgblight_get_speed:0000000000000000 .Loc.151
/var/folders/xk/fjkh8m297bb3lq7fwx2mh0vh0000gq/T//cch8KZiZ.s:689    .text.rgblight_get_speed:0000000000000000 L0
/var/folders/xk/fjkh8m297bb3lq7fwx2mh0vh0000gq/T//cch8KZiZ.s:694    .text.rgblight_get_speed:0000000000000000 .Loc.152
/var/folders/xk/fjkh8m297bb3lq7fwx2mh0vh0000gq/T//cch8KZiZ.s:695    .text.rgblight_get_speed:0000000000000000 .Loc.153
/var/folders/xk/fjkh8m297bb3lq7fwx2mh0vh0000gq/T//cch8KZiZ.s:699    .text.rgblight_get_speed:0000000000000006 L0
/var/folders/xk/fjkh8m297bb3lq7fwx2mh0vh0000gq/T//cch8KZiZ.s:705    .text.rgblight_set_speed_eeprom_helper:0000000000000000 rgblight_set_speed_eeprom_helper
/var/folders/xk/fjkh8m297bb3lq7fwx2mh0vh0000gq/T//cch8KZiZ.s:708    .text.rgblight_set_speed_eeprom_helper:0000000000000000 .Loc.154
/var/folders/xk/fjkh8m297bb3lq7fwx2mh0vh0000gq/T//cch8KZiZ.s:709    .text.rgblight_set_speed_eeprom_helper:0000000000000000 L0
/var/folders/xk/fjkh8m297bb3lq7fwx2mh0vh0000gq/T//cch8KZiZ.s:714    .text.rgblight_set_speed_eeprom_helper:0000000000000000 .Loc.155
/var/folders/xk/fjkh8m297bb3lq7fwx2mh0vh0000gq/T//cch8KZiZ.s:715    .text.rgblight_set_speed_eeprom_helper:0000000000000000 .Loc.156
/var/folders/xk/fjkh8m297bb3lq7fwx2mh0vh0000gq/T//cch8KZiZ.s:717    .text.rgblight_set_speed_eeprom_helper:0000000000000004 .Loc.157
/var/folders/xk/fjkh8m297bb3lq7fwx2mh0vh0000gq/T//cch8KZiZ.s:718    .text.rgblight_set_speed_eeprom_helper:0000000000000004 .Loc.158
/var/folders/xk/fjkh8m297bb3lq7fwx2mh0vh0000gq/T//cch8KZiZ.s:721    .text.rgblight_set_speed_eeprom_helper:0000000000000008 .Loc.159
/var/folders/xk/fjkh8m297bb3lq7fwx2mh0vh0000gq/T//cch8KZiZ.s:727    .text.rgblight_set_speed_eeprom_helper:0000000000000018 .Loc.160
/var/folders/xk/fjkh8m297bb3lq7fwx2mh0vh0000gq/T//cch8KZiZ.s:732    .text.rgblight_set_speed_eeprom_helper:000000000000001c .Loc.161
/var/folders/xk/fjkh8m297bb3lq7fwx2mh0vh0000gq/T//cch8KZiZ.s:734    .text.rgblight_set_speed_eeprom_helper:000000000000001e L0
/var/folders/xk/fjkh8m297bb3lq7fwx2mh0vh0000gq/T//cch8KZiZ.s:740    .text.rgblight_set_speed:0000000000000000 rgblight_set_speed
/var/folders/xk/fjkh8m297bb3lq7fwx2mh0vh0000gq/T//cch8KZiZ.s:743    .text.rgblight_set_speed:0000000000000000 .Loc.162
/var/folders/xk/fjkh8m297bb3lq7fwx2mh0vh0000gq/T//cch8KZiZ.s:744    .text.rgblight_set_speed:0000000000000000 L0
/var/folders/xk/fjkh8m297bb3lq7fwx2mh0vh0000gq/T//cch8KZiZ.s:749    .text.rgblight_set_speed:0000000000000000 .Loc.163
/var/folders/xk/fjkh8m297bb3lq7fwx2mh0vh0000gq/T//cch8KZiZ.s:753    .text.rgblight_set_speed:0000000000000006 .Loc.164
/var/folders/xk/fjkh8m297bb3lq7fwx2mh0vh0000gq/T//cch8KZiZ.s:754    .text.rgblight_set_speed:0000000000000006 L0
/var/folders/xk/fjkh8m297bb3lq7fwx2mh0vh0000gq/T//cch8KZiZ.s:760    .text.rgblight_set_speed_noeeprom:0000000000000000 rgblight_set_speed_noeeprom
/var/folders/xk/fjkh8m297bb3lq7fwx2mh0vh0000gq/T//cch8KZiZ.s:763    .text.rgblight_set_speed_noeeprom:0000000000000000 .Loc.165
/var/folders/xk/fjkh8m297bb3lq7fwx2mh0vh0000gq/T//cch8KZiZ.s:764    .text.rgblight_set_speed_noeeprom:0000000000000000 L0
/var/folders/xk/fjkh8m297bb3lq7fwx2mh0vh0000gq/T//cch8KZiZ.s:769    .text.rgblight_set_speed_noeeprom:0000000000000000 .Loc.166
/var/folders/xk/fjkh8m297bb3lq7fwx2mh0vh0000gq/T//cch8KZiZ.s:773    .text.rgblight_set_speed_noeeprom:0000000000000006 .Loc.167
/var/folders/xk/fjkh8m297bb3lq7fwx2mh0vh0000gq/T//cch8KZiZ.s:774    .text.rgblight_set_speed_noeeprom:0000000000000006 L0
/var/folders/xk/fjkh8m297bb3lq7fwx2mh0vh0000gq/T//cch8KZiZ.s:780    .text.rgblight_get_hue:0000000000000000 rgblight_get_hue
/var/folders/xk/fjkh8m297bb3lq7fwx2mh0vh0000gq/T//cch8KZiZ.s:782    .text.rgblight_get_hue:0000000000000000 .Loc.168
/var/folders/xk/fjkh8m297bb3lq7fwx2mh0vh0000gq/T//cch8KZiZ.s:783    .text.rgblight_get_hue:0000000000000000 L0
/var/folders/xk/fjkh8m297bb3lq7fwx2mh0vh0000gq/T//cch8KZiZ.s:788    .text.rgblight_get_hue:0000000000000000 .Loc.169
/var/folders/xk/fjkh8m297bb3lq7fwx2mh0vh0000gq/T//cch8KZiZ.s:789    .text.rgblight_get_hue:0000000000000000 .Loc.170
/var/folders/xk/fjkh8m297bb3lq7fwx2mh0vh0000gq/T//cch8KZiZ.s:793    .text.rgblight_get_hue:0000000000000006 L0
/var/folders/xk/fjkh8m297bb3lq7fwx2mh0vh0000gq/T//cch8KZiZ.s:799    .text.rgblight_get_sat:0000000000000000 rgblight_get_sat
/var/folders/xk/fjkh8m297bb3lq7fwx2mh0vh0000gq/T//cch8KZiZ.s:801    .text.rgblight_get_sat:0000000000000000 .Loc.171
/var/folders/xk/fjkh8m297bb3lq7fwx2mh0vh0000gq/T//cch8KZiZ.s:802    .text.rgblight_get_sat:0000000000000000 L0
/var/folders/xk/fjkh8m297bb3lq7fwx2mh0vh0000gq/T//cch8KZiZ.s:807    .text.rgblight_get_sat:0000000000000000 .Loc.172
/var/folders/xk/fjkh8m297bb3lq7fwx2mh0vh0000gq/T//cch8KZiZ.s:808    .text.rgblight_get_sat:0000000000000000 .Loc.173
/var/folders/xk/fjkh8m297bb3lq7fwx2mh0vh0000gq/T//cch8KZiZ.s:812    .text.rgblight_get_sat:0000000000000006 L0
/var/folders/xk/fjkh8m297bb3lq7fwx2mh0vh0000gq/T//cch8KZiZ.s:818    .text.rgblight_get_val:0000000000000000 rgblight_get_val
/var/folders/xk/fjkh8m297bb3lq7fwx2mh0vh0000gq/T//cch8KZiZ.s:820    .text.rgblight_get_val:0000000000000000 .Loc.174
/var/folders/xk/fjkh8m297bb3lq7fwx2mh0vh0000gq/T//cch8KZiZ.s:821    .text.rgblight_get_val:0000000000000000 L0
/var/folders/xk/fjkh8m297bb3lq7fwx2mh0vh0000gq/T//cch8KZiZ.s:826    .text.rgblight_get_val:0000000000000000 .Loc.175
/var/folders/xk/fjkh8m297bb3lq7fwx2mh0vh0000gq/T//cch8KZiZ.s:827    .text.rgblight_get_val:0000000000000000 .Loc.176
/var/folders/xk/fjkh8m297bb3lq7fwx2mh0vh0000gq/T//cch8KZiZ.s:831    .text.rgblight_get_val:0000000000000006 L0
/var/folders/xk/fjkh8m297bb3lq7fwx2mh0vh0000gq/T//cch8KZiZ.s:837    .text.rgblight_get_hsv:0000000000000000 rgblight_get_hsv
/var/folders/xk/fjkh8m297bb3lq7fwx2mh0vh0000gq/T//cch8KZiZ.s:839    .text.rgblight_get_hsv:0000000000000000 .Loc.177
/var/folders/xk/fjkh8m297bb3lq7fwx2mh0vh0000gq/T//cch8KZiZ.s:840    .text.rgblight_get_hsv:0000000000000000 L0
/var/folders/xk/fjkh8m297bb3lq7fwx2mh0vh0000gq/T//cch8KZiZ.s:845    .text.rgblight_get_hsv:0000000000000000 .Loc.178
/var/folders/xk/fjkh8m297bb3lq7fwx2mh0vh0000gq/T//cch8KZiZ.s:846    .text.rgblight_get_hsv:0000000000000000 .Loc.179
/var/folders/xk/fjkh8m297bb3lq7fwx2mh0vh0000gq/T//cch8KZiZ.s:850    .text.rgblight_get_hsv:0000000000000006 .Loc.180
/var/folders/xk/fjkh8m297bb3lq7fwx2mh0vh0000gq/T//cch8KZiZ.s:852    .text.rgblight_get_hsv:0000000000000008 .Loc.181
/var/folders/xk/fjkh8m297bb3lq7fwx2mh0vh0000gq/T//cch8KZiZ.s:856    .text.rgblight_get_hsv:000000000000000c L0
/var/folders/xk/fjkh8m297bb3lq7fwx2mh0vh0000gq/T//cch8KZiZ.s:862    .text.rgblight_call_driver:0000000000000000 rgblight_call_driver
/var/folders/xk/fjkh8m297bb3lq7fwx2mh0vh0000gq/T//cch8KZiZ.s:865    .text.rgblight_call_driver:0000000000000000 .Loc.182
/var/folders/xk/fjkh8m297bb3lq7fwx2mh0vh0000gq/T//cch8KZiZ.s:866    .text.rgblight_call_driver:0000000000000000 L0
/var/folders/xk/fjkh8m297bb3lq7fwx2mh0vh0000gq/T//cch8KZiZ.s:871    .text.rgblight_call_driver:0000000000000000 .Loc.183
/var/folders/xk/fjkh8m297bb3lq7fwx2mh0vh0000gq/T//cch8KZiZ.s:875    .text.rgblight_call_driver:0000000000000006 .Loc.184
/var/folders/xk/fjkh8m297bb3lq7fwx2mh0vh0000gq/T//cch8KZiZ.s:876    .text.rgblight_call_driver:0000000000000006 L0
/var/folders/xk/fjkh8m297bb3lq7fwx2mh0vh0000gq/T//cch8KZiZ.s:882    .text.rgblight_set:0000000000000000 rgblight_set
/var/folders/xk/fjkh8m297bb3lq7fwx2mh0vh0000gq/T//cch8KZiZ.s:884    .text.rgblight_set:0000000000000000 .Loc.185
/var/folders/xk/fjkh8m297bb3lq7fwx2mh0vh0000gq/T//cch8KZiZ.s:885    .text.rgblight_set:0000000000000000 L0
/var/folders/xk/fjkh8m297bb3lq7fwx2mh0vh0000gq/T//cch8KZiZ.s:890    .text.rgblight_set:0000000000000000 .Loc.186
/var/folders/xk/fjkh8m297bb3lq7fwx2mh0vh0000gq/T//cch8KZiZ.s:891    .text.rgblight_set:0000000000000000 .Loc.187
/var/folders/xk/fjkh8m297bb3lq7fwx2mh0vh0000gq/T//cch8KZiZ.s:892    .text.rgblight_set:0000000000000000 .Loc.188
/var/folders/xk/fjkh8m297bb3lq7fwx2mh0vh0000gq/T//cch8KZiZ.s:895    .text.rgblight_set:0000000000000004 .Loc.189
/var/folders/xk/fjkh8m297bb3lq7fwx2mh0vh0000gq/T//cch8KZiZ.s:896    .text.rgblight_set:0000000000000004 .Loc.190
/var/folders/xk/fjkh8m297bb3lq7fwx2mh0vh0000gq/T//cch8KZiZ.s:898    .text.rgblight_set:0000000000000008 .Loc.191
/var/folders/xk/fjkh8m297bb3lq7fwx2mh0vh0000gq/T//cch8KZiZ.s:902    .text.rgblight_set:000000000000000c .Loc.192
/var/folders/xk/fjkh8m297bb3lq7fwx2mh0vh0000gq/T//cch8KZiZ.s:904    .text.rgblight_set:000000000000000c .Loc.193
/var/folders/xk/fjkh8m297bb3lq7fwx2mh0vh0000gq/T//cch8KZiZ.s:905    .text.rgblight_set:000000000000000c .Loc.194
/var/folders/xk/fjkh8m297bb3lq7fwx2mh0vh0000gq/T//cch8KZiZ.s:911    .text.rgblight_set:0000000000000018 .Loc.195
                            *COM*:0000000000000051 led
/var/folders/xk/fjkh8m297bb3lq7fwx2mh0vh0000gq/T//cch8KZiZ.s:917    .text.rgblight_set:0000000000000020 .Loc.196
/var/folders/xk/fjkh8m297bb3lq7fwx2mh0vh0000gq/T//cch8KZiZ.s:919    .text.rgblight_set:0000000000000020 .Loc.197
/var/folders/xk/fjkh8m297bb3lq7fwx2mh0vh0000gq/T//cch8KZiZ.s:920    .text.rgblight_set:0000000000000020 .Loc.198
/var/folders/xk/fjkh8m297bb3lq7fwx2mh0vh0000gq/T//cch8KZiZ.s:923    .text.rgblight_set:0000000000000024 .Loc.199
/var/folders/xk/fjkh8m297bb3lq7fwx2mh0vh0000gq/T//cch8KZiZ.s:932    .text.rgblight_set:0000000000000034 .Loc.200
/var/folders/xk/fjkh8m297bb3lq7fwx2mh0vh0000gq/T//cch8KZiZ.s:933    .text.rgblight_set:0000000000000034 .Loc.201
/var/folders/xk/fjkh8m297bb3lq7fwx2mh0vh0000gq/T//cch8KZiZ.s:936    .text.rgblight_set:0000000000000038 .Loc.202
/var/folders/xk/fjkh8m297bb3lq7fwx2mh0vh0000gq/T//cch8KZiZ.s:937    .text.rgblight_set:0000000000000038 .Loc.203
/var/folders/xk/fjkh8m297bb3lq7fwx2mh0vh0000gq/T//cch8KZiZ.s:939    .text.rgblight_set:000000000000003a .Loc.204
/var/folders/xk/fjkh8m297bb3lq7fwx2mh0vh0000gq/T//cch8KZiZ.s:940    .text.rgblight_set:000000000000003a .Loc.205
/var/folders/xk/fjkh8m297bb3lq7fwx2mh0vh0000gq/T//cch8KZiZ.s:942    .text.rgblight_set:000000000000003c .Loc.206
/var/folders/xk/fjkh8m297bb3lq7fwx2mh0vh0000gq/T//cch8KZiZ.s:943    .text.rgblight_set:000000000000003c .Loc.207
/var/folders/xk/fjkh8m297bb3lq7fwx2mh0vh0000gq/T//cch8KZiZ.s:945    .text.rgblight_set:000000000000003e .Loc.208
/var/folders/xk/fjkh8m297bb3lq7fwx2mh0vh0000gq/T//cch8KZiZ.s:946    .text.rgblight_set:000000000000003e .Loc.209
/var/folders/xk/fjkh8m297bb3lq7fwx2mh0vh0000gq/T//cch8KZiZ.s:949    .text.rgblight_set:0000000000000040 .Loc.210
/var/folders/xk/fjkh8m297bb3lq7fwx2mh0vh0000gq/T//cch8KZiZ.s:953    .text.rgblight_set:0000000000000044 L0
/var/folders/xk/fjkh8m297bb3lq7fwx2mh0vh0000gq/T//cch8KZiZ.s:959    .text.rgblight_setrgb:0000000000000000 rgblight_setrgb
/var/folders/xk/fjkh8m297bb3lq7fwx2mh0vh0000gq/T//cch8KZiZ.s:962    .text.rgblight_setrgb:0000000000000000 .Loc.211
/var/folders/xk/fjkh8m297bb3lq7fwx2mh0vh0000gq/T//cch8KZiZ.s:963    .text.rgblight_setrgb:0000000000000000 L0
/var/folders/xk/fjkh8m297bb3lq7fwx2mh0vh0000gq/T//cch8KZiZ.s:968    .text.rgblight_setrgb:0000000000000000 .Loc.212
/var/folders/xk/fjkh8m297bb3lq7fwx2mh0vh0000gq/T//cch8KZiZ.s:969    .text.rgblight_setrgb:0000000000000000 .Loc.213
/var/folders/xk/fjkh8m297bb3lq7fwx2mh0vh0000gq/T//cch8KZiZ.s:971    .text.rgblight_setrgb:0000000000000004 .Loc.214
/var/folders/xk/fjkh8m297bb3lq7fwx2mh0vh0000gq/T//cch8KZiZ.s:974    .text.rgblight_setrgb:0000000000000008 .Loc.215
/var/folders/xk/fjkh8m297bb3lq7fwx2mh0vh0000gq/T//cch8KZiZ.s:976    .text.rgblight_setrgb:0000000000000008 .Loc.216
/var/folders/xk/fjkh8m297bb3lq7fwx2mh0vh0000gq/T//cch8KZiZ.s:977    .text.rgblight_setrgb:0000000000000008 .Loc.217
/var/folders/xk/fjkh8m297bb3lq7fwx2mh0vh0000gq/T//cch8KZiZ.s:980    .text.rgblight_setrgb:000000000000000c .Loc.218
/var/folders/xk/fjkh8m297bb3lq7fwx2mh0vh0000gq/T//cch8KZiZ.s:989    .text.rgblight_setrgb:000000000000001c .Loc.219
/var/folders/xk/fjkh8m297bb3lq7fwx2mh0vh0000gq/T//cch8KZiZ.s:990    .text.rgblight_setrgb:000000000000001c .Loc.220
/var/folders/xk/fjkh8m297bb3lq7fwx2mh0vh0000gq/T//cch8KZiZ.s:993    .text.rgblight_setrgb:0000000000000020 .Loc.221
/var/folders/xk/fjkh8m297bb3lq7fwx2mh0vh0000gq/T//cch8KZiZ.s:995    .text.rgblight_setrgb:0000000000000020 .Loc.222
/var/folders/xk/fjkh8m297bb3lq7fwx2mh0vh0000gq/T//cch8KZiZ.s:1000   .text.rgblight_setrgb:0000000000000024 .Loc.223
/var/folders/xk/fjkh8m297bb3lq7fwx2mh0vh0000gq/T//cch8KZiZ.s:1001   .text.rgblight_setrgb:0000000000000024 .Loc.224
/var/folders/xk/fjkh8m297bb3lq7fwx2mh0vh0000gq/T//cch8KZiZ.s:1003   .text.rgblight_setrgb:0000000000000026 .Loc.225
/var/folders/xk/fjkh8m297bb3lq7fwx2mh0vh0000gq/T//cch8KZiZ.s:1004   .text.rgblight_setrgb:0000000000000026 .Loc.226
/var/folders/xk/fjkh8m297bb3lq7fwx2mh0vh0000gq/T//cch8KZiZ.s:1006   .text.rgblight_setrgb:0000000000000028 .Loc.227
/var/folders/xk/fjkh8m297bb3lq7fwx2mh0vh0000gq/T//cch8KZiZ.s:1007   .text.rgblight_setrgb:0000000000000028 .Loc.228
/var/folders/xk/fjkh8m297bb3lq7fwx2mh0vh0000gq/T//cch8KZiZ.s:1009   .text.rgblight_setrgb:000000000000002a .Loc.229
/var/folders/xk/fjkh8m297bb3lq7fwx2mh0vh0000gq/T//cch8KZiZ.s:1010   .text.rgblight_setrgb:000000000000002a .Loc.230
/var/folders/xk/fjkh8m297bb3lq7fwx2mh0vh0000gq/T//cch8KZiZ.s:1013   .text.rgblight_setrgb:000000000000002c .Loc.231
/var/folders/xk/fjkh8m297bb3lq7fwx2mh0vh0000gq/T//cch8KZiZ.s:1019   .text.rgblight_setrgb:0000000000000030 .Loc.232
/var/folders/xk/fjkh8m297bb3lq7fwx2mh0vh0000gq/T//cch8KZiZ.s:1021   .text.rgblight_setrgb:0000000000000030 .Loc.233
/var/folders/xk/fjkh8m297bb3lq7fwx2mh0vh0000gq/T//cch8KZiZ.s:1023   .text.rgblight_setrgb:0000000000000032 L0
/var/folders/xk/fjkh8m297bb3lq7fwx2mh0vh0000gq/T//cch8KZiZ.s:1029   .text.rgblight_sethsv_noeeprom_old:0000000000000000 rgblight_sethsv_noeeprom_old
/var/folders/xk/fjkh8m297bb3lq7fwx2mh0vh0000gq/T//cch8KZiZ.s:1032   .text.rgblight_sethsv_noeeprom_old:0000000000000000 .Loc.234
/var/folders/xk/fjkh8m297bb3lq7fwx2mh0vh0000gq/T//cch8KZiZ.s:1033   .text.rgblight_sethsv_noeeprom_old:0000000000000000 L0
/var/folders/xk/fjkh8m297bb3lq7fwx2mh0vh0000gq/T//cch8KZiZ.s:1034   .text.rgblight_sethsv_noeeprom_old:0000000000000000 .Loc.235
/var/folders/xk/fjkh8m297bb3lq7fwx2mh0vh0000gq/T//cch8KZiZ.s:1043   .text.rgblight_sethsv_noeeprom_old:0000000000000006 L0
/var/folders/xk/fjkh8m297bb3lq7fwx2mh0vh0000gq/T//cch8KZiZ.s:1055   .text.rgblight_sethsv_noeeprom_old:000000000000000c .Loc.236
/var/folders/xk/fjkh8m297bb3lq7fwx2mh0vh0000gq/T//cch8KZiZ.s:1056   .text.rgblight_sethsv_noeeprom_old:000000000000000c .Loc.237
/var/folders/xk/fjkh8m297bb3lq7fwx2mh0vh0000gq/T//cch8KZiZ.s:1058   .text.rgblight_sethsv_noeeprom_old:0000000000000010 .Loc.238
/var/folders/xk/fjkh8m297bb3lq7fwx2mh0vh0000gq/T//cch8KZiZ.s:1062   .text.rgblight_sethsv_noeeprom_old:0000000000000014 .Loc.239
/var/folders/xk/fjkh8m297bb3lq7fwx2mh0vh0000gq/T//cch8KZiZ.s:1063   .text.rgblight_sethsv_noeeprom_old:0000000000000014 .Loc.240
/var/folders/xk/fjkh8m297bb3lq7fwx2mh0vh0000gq/T//cch8KZiZ.s:1069   .text.rgblight_sethsv_noeeprom_old:000000000000001e .Loc.241
/var/folders/xk/fjkh8m297bb3lq7fwx2mh0vh0000gq/T//cch8KZiZ.s:1078   .text.rgblight_sethsv_noeeprom_old:0000000000000028 .Loc.242
/var/folders/xk/fjkh8m297bb3lq7fwx2mh0vh0000gq/T//cch8KZiZ.s:1085   .text.rgblight_sethsv_noeeprom_old:0000000000000034 L0
/var/folders/xk/fjkh8m297bb3lq7fwx2mh0vh0000gq/T//cch8KZiZ.s:1091   .text.rgblight_effect_breathing:0000000000000000 rgblight_effect_breathing
/var/folders/xk/fjkh8m297bb3lq7fwx2mh0vh0000gq/T//cch8KZiZ.s:1094   .text.rgblight_effect_breathing:0000000000000000 .Loc.243
/var/folders/xk/fjkh8m297bb3lq7fwx2mh0vh0000gq/T//cch8KZiZ.s:1095   .text.rgblight_effect_breathing:0000000000000000 L0
/var/folders/xk/fjkh8m297bb3lq7fwx2mh0vh0000gq/T//cch8KZiZ.s:1096   .text.rgblight_effect_breathing:0000000000000000 .Loc.244
/var/folders/xk/fjkh8m297bb3lq7fwx2mh0vh0000gq/T//cch8KZiZ.s:1110   .text.rgblight_effect_breathing:0000000000000006 .Loc.245
/var/folders/xk/fjkh8m297bb3lq7fwx2mh0vh0000gq/T//cch8KZiZ.s:1111   .text.rgblight_effect_breathing:0000000000000006 .Loc.246
/var/folders/xk/fjkh8m297bb3lq7fwx2mh0vh0000gq/T//cch8KZiZ.s:1113   .text.rgblight_effect_breathing:0000000000000006 .Loc.247
/var/folders/xk/fjkh8m297bb3lq7fwx2mh0vh0000gq/T//cch8KZiZ.s:1115   .text.rgblight_effect_breathing:0000000000000006 .Loc.248
/var/folders/xk/fjkh8m297bb3lq7fwx2mh0vh0000gq/T//cch8KZiZ.s:1116   .text.rgblight_effect_breathing:0000000000000006 .Loc.249
/var/folders/xk/fjkh8m297bb3lq7fwx2mh0vh0000gq/T//cch8KZiZ.s:5780   .progmem.data.rgblight_effect_breathe_table:0000000000000000 rgblight_effect_breathe_table
/var/folders/xk/fjkh8m297bb3lq7fwx2mh0vh0000gq/T//cch8KZiZ.s:1127   .text.rgblight_effect_breathing:0000000000000010 .Loc.250
/var/folders/xk/fjkh8m297bb3lq7fwx2mh0vh0000gq/T//cch8KZiZ.s:1128   .text.rgblight_effect_breathing:0000000000000010 .Loc.251
/var/folders/xk/fjkh8m297bb3lq7fwx2mh0vh0000gq/T//cch8KZiZ.s:1131   .text.rgblight_effect_breathing:0000000000000010 .Loc.252
/var/folders/xk/fjkh8m297bb3lq7fwx2mh0vh0000gq/T//cch8KZiZ.s:1137   .text.rgblight_effect_breathing:0000000000000018 .Loc.253
/var/folders/xk/fjkh8m297bb3lq7fwx2mh0vh0000gq/T//cch8KZiZ.s:1140   .text.rgblight_effect_breathing:000000000000001c .Loc.254
/var/folders/xk/fjkh8m297bb3lq7fwx2mh0vh0000gq/T//cch8KZiZ.s:1141   .text.rgblight_effect_breathing:000000000000001c .Loc.255
/var/folders/xk/fjkh8m297bb3lq7fwx2mh0vh0000gq/T//cch8KZiZ.s:1144   .text.rgblight_effect_breathing:0000000000000020 .Loc.256
/var/folders/xk/fjkh8m297bb3lq7fwx2mh0vh0000gq/T//cch8KZiZ.s:1147   .text.rgblight_effect_breathing:0000000000000022 .Loc.257
/var/folders/xk/fjkh8m297bb3lq7fwx2mh0vh0000gq/T//cch8KZiZ.s:1151   .text.rgblight_effect_breathing:0000000000000026 .Loc.258
/var/folders/xk/fjkh8m297bb3lq7fwx2mh0vh0000gq/T//cch8KZiZ.s:1153   .text.rgblight_effect_breathing:0000000000000028 L0
/var/folders/xk/fjkh8m297bb3lq7fwx2mh0vh0000gq/T//cch8KZiZ.s:1159   .text.rgblight_effect_rainbow_mood:0000000000000000 rgblight_effect_rainbow_mood
/var/folders/xk/fjkh8m297bb3lq7fwx2mh0vh0000gq/T//cch8KZiZ.s:1162   .text.rgblight_effect_rainbow_mood:0000000000000000 .Loc.259
/var/folders/xk/fjkh8m297bb3lq7fwx2mh0vh0000gq/T//cch8KZiZ.s:1163   .text.rgblight_effect_rainbow_mood:0000000000000000 L0
/var/folders/xk/fjkh8m297bb3lq7fwx2mh0vh0000gq/T//cch8KZiZ.s:1164   .text.rgblight_effect_rainbow_mood:0000000000000000 .Loc.260
/var/folders/xk/fjkh8m297bb3lq7fwx2mh0vh0000gq/T//cch8KZiZ.s:1178   .text.rgblight_effect_rainbow_mood:0000000000000006 .Loc.261
/var/folders/xk/fjkh8m297bb3lq7fwx2mh0vh0000gq/T//cch8KZiZ.s:1185   .text.rgblight_effect_rainbow_mood:0000000000000010 .Loc.262
/var/folders/xk/fjkh8m297bb3lq7fwx2mh0vh0000gq/T//cch8KZiZ.s:1188   .text.rgblight_effect_rainbow_mood:0000000000000014 .Loc.263
/var/folders/xk/fjkh8m297bb3lq7fwx2mh0vh0000gq/T//cch8KZiZ.s:1189   .text.rgblight_effect_rainbow_mood:0000000000000014 .Loc.264
/var/folders/xk/fjkh8m297bb3lq7fwx2mh0vh0000gq/T//cch8KZiZ.s:1194   .text.rgblight_effect_rainbow_mood:000000000000001a .Loc.265
/var/folders/xk/fjkh8m297bb3lq7fwx2mh0vh0000gq/T//cch8KZiZ.s:1198   .text.rgblight_effect_rainbow_mood:000000000000001e .Loc.266
/var/folders/xk/fjkh8m297bb3lq7fwx2mh0vh0000gq/T//cch8KZiZ.s:1200   .text.rgblight_effect_rainbow_mood:0000000000000020 L0
/var/folders/xk/fjkh8m297bb3lq7fwx2mh0vh0000gq/T//cch8KZiZ.s:1206   .text.rgblight_effect_rgbtest:0000000000000000 rgblight_effect_rgbtest
/var/folders/xk/fjkh8m297bb3lq7fwx2mh0vh0000gq/T//cch8KZiZ.s:1209   .text.rgblight_effect_rgbtest:0000000000000000 .Loc.267
/var/folders/xk/fjkh8m297bb3lq7fwx2mh0vh0000gq/T//cch8KZiZ.s:1210   .text.rgblight_effect_rgbtest:0000000000000000 L0
/var/folders/xk/fjkh8m297bb3lq7fwx2mh0vh0000gq/T//cch8KZiZ.s:1211   .text.rgblight_effect_rgbtest:0000000000000000 .Loc.268
/var/folders/xk/fjkh8m297bb3lq7fwx2mh0vh0000gq/T//cch8KZiZ.s:1228   .text.rgblight_effect_rgbtest:000000000000000a L0
/var/folders/xk/fjkh8m297bb3lq7fwx2mh0vh0000gq/T//cch8KZiZ.s:1241   .text.rgblight_effect_rgbtest:0000000000000012 .Loc.269
/var/folders/xk/fjkh8m297bb3lq7fwx2mh0vh0000gq/T//cch8KZiZ.s:1242   .text.rgblight_effect_rgbtest:0000000000000012 .Loc.270
/var/folders/xk/fjkh8m297bb3lq7fwx2mh0vh0000gq/T//cch8KZiZ.s:1243   .text.rgblight_effect_rgbtest:0000000000000012 .Loc.271
/var/folders/xk/fjkh8m297bb3lq7fwx2mh0vh0000gq/T//cch8KZiZ.s:1244   .text.rgblight_effect_rgbtest:0000000000000012 .Loc.272
/var/folders/xk/fjkh8m297bb3lq7fwx2mh0vh0000gq/T//cch8KZiZ.s:1245   .text.rgblight_effect_rgbtest:0000000000000012 .Loc.273
/var/folders/xk/fjkh8m297bb3lq7fwx2mh0vh0000gq/T//cch8KZiZ.s:1246   .text.rgblight_effect_rgbtest:0000000000000012 .Loc.274
/var/folders/xk/fjkh8m297bb3lq7fwx2mh0vh0000gq/T//cch8KZiZ.s:5679   .bss.maxval.3444:0000000000000000 maxval.3444
/var/folders/xk/fjkh8m297bb3lq7fwx2mh0vh0000gq/T//cch8KZiZ.s:1249   .text.rgblight_effect_rgbtest:0000000000000016 .Loc.275
/var/folders/xk/fjkh8m297bb3lq7fwx2mh0vh0000gq/T//cch8KZiZ.s:1253   .text.rgblight_effect_rgbtest:000000000000001a .Loc.276
/var/folders/xk/fjkh8m297bb3lq7fwx2mh0vh0000gq/T//cch8KZiZ.s:1254   .text.rgblight_effect_rgbtest:000000000000001a .Loc.277
/var/folders/xk/fjkh8m297bb3lq7fwx2mh0vh0000gq/T//cch8KZiZ.s:1262   .text.rgblight_effect_rgbtest:0000000000000028 .Loc.278
/var/folders/xk/fjkh8m297bb3lq7fwx2mh0vh0000gq/T//cch8KZiZ.s:1263   .text.rgblight_effect_rgbtest:0000000000000028 .Loc.279
/var/folders/xk/fjkh8m297bb3lq7fwx2mh0vh0000gq/T//cch8KZiZ.s:1268   .text.rgblight_effect_rgbtest:000000000000002e .Loc.280
/var/folders/xk/fjkh8m297bb3lq7fwx2mh0vh0000gq/T//cch8KZiZ.s:1270   .text.rgblight_effect_rgbtest:000000000000002e .Loc.281
/var/folders/xk/fjkh8m297bb3lq7fwx2mh0vh0000gq/T//cch8KZiZ.s:1271   .text.rgblight_effect_rgbtest:000000000000002e .Loc.282
/var/folders/xk/fjkh8m297bb3lq7fwx2mh0vh0000gq/T//cch8KZiZ.s:1274   .text.rgblight_effect_rgbtest:0000000000000032 .Loc.283
/var/folders/xk/fjkh8m297bb3lq7fwx2mh0vh0000gq/T//cch8KZiZ.s:1277   .text.rgblight_effect_rgbtest:0000000000000036 .Loc.284
/var/folders/xk/fjkh8m297bb3lq7fwx2mh0vh0000gq/T//cch8KZiZ.s:1280   .text.rgblight_effect_rgbtest:000000000000003a .Loc.285
/var/folders/xk/fjkh8m297bb3lq7fwx2mh0vh0000gq/T//cch8KZiZ.s:1281   .text.rgblight_effect_rgbtest:000000000000003a .Loc.286
/var/folders/xk/fjkh8m297bb3lq7fwx2mh0vh0000gq/T//cch8KZiZ.s:1283   .text.rgblight_effect_rgbtest:000000000000003c .Loc.287
/var/folders/xk/fjkh8m297bb3lq7fwx2mh0vh0000gq/T//cch8KZiZ.s:1286   .text.rgblight_effect_rgbtest:0000000000000040 .Loc.288
/var/folders/xk/fjkh8m297bb3lq7fwx2mh0vh0000gq/T//cch8KZiZ.s:1288   .text.rgblight_effect_rgbtest:0000000000000042 .Loc.289
/var/folders/xk/fjkh8m297bb3lq7fwx2mh0vh0000gq/T//cch8KZiZ.s:1291   .text.rgblight_effect_rgbtest:0000000000000046 .Loc.290
/var/folders/xk/fjkh8m297bb3lq7fwx2mh0vh0000gq/T//cch8KZiZ.s:1292   .text.rgblight_effect_rgbtest:0000000000000046 .Loc.291
/var/folders/xk/fjkh8m297bb3lq7fwx2mh0vh0000gq/T//cch8KZiZ.s:1296   .text.rgblight_effect_rgbtest:000000000000004a .Loc.292
/var/folders/xk/fjkh8m297bb3lq7fwx2mh0vh0000gq/T//cch8KZiZ.s:1297   .text.rgblight_effect_rgbtest:000000000000004a .Loc.293
/var/folders/xk/fjkh8m297bb3lq7fwx2mh0vh0000gq/T//cch8KZiZ.s:1300   .text.rgblight_effect_rgbtest:000000000000004c .Loc.294
/var/folders/xk/fjkh8m297bb3lq7fwx2mh0vh0000gq/T//cch8KZiZ.s:1302   .text.rgblight_effect_rgbtest:000000000000004e .Loc.295
/var/folders/xk/fjkh8m297bb3lq7fwx2mh0vh0000gq/T//cch8KZiZ.s:1306   .text.rgblight_effect_rgbtest:0000000000000050 .Loc.296
/var/folders/xk/fjkh8m297bb3lq7fwx2mh0vh0000gq/T//cch8KZiZ.s:1307   .text.rgblight_effect_rgbtest:0000000000000050 .Loc.297
/var/folders/xk/fjkh8m297bb3lq7fwx2mh0vh0000gq/T//cch8KZiZ.s:1310   .text.rgblight_effect_rgbtest:0000000000000054 .Loc.298
/var/folders/xk/fjkh8m297bb3lq7fwx2mh0vh0000gq/T//cch8KZiZ.s:1311   .text.rgblight_effect_rgbtest:0000000000000054 .Loc.299
/var/folders/xk/fjkh8m297bb3lq7fwx2mh0vh0000gq/T//cch8KZiZ.s:1313   .text.rgblight_effect_rgbtest:0000000000000056 .Loc.300
/var/folders/xk/fjkh8m297bb3lq7fwx2mh0vh0000gq/T//cch8KZiZ.s:1317   .text.rgblight_effect_rgbtest:0000000000000058 .Loc.301
/var/folders/xk/fjkh8m297bb3lq7fwx2mh0vh0000gq/T//cch8KZiZ.s:1320   .text.rgblight_effect_rgbtest:000000000000005c .Loc.302
/var/folders/xk/fjkh8m297bb3lq7fwx2mh0vh0000gq/T//cch8KZiZ.s:1321   .text.rgblight_effect_rgbtest:000000000000005c .Loc.303
/var/folders/xk/fjkh8m297bb3lq7fwx2mh0vh0000gq/T//cch8KZiZ.s:1325   .text.rgblight_effect_rgbtest:0000000000000062 .Loc.304
/var/folders/xk/fjkh8m297bb3lq7fwx2mh0vh0000gq/T//cch8KZiZ.s:1327   .text.rgblight_effect_rgbtest:0000000000000064 .Loc.305
/var/folders/xk/fjkh8m297bb3lq7fwx2mh0vh0000gq/T//cch8KZiZ.s:1331   .text.rgblight_effect_rgbtest:000000000000006c .Loc.306
/var/folders/xk/fjkh8m297bb3lq7fwx2mh0vh0000gq/T//cch8KZiZ.s:1334   .text.rgblight_effect_rgbtest:000000000000006e .Loc.307
/var/folders/xk/fjkh8m297bb3lq7fwx2mh0vh0000gq/T//cch8KZiZ.s:1343   .text.rgblight_effect_rgbtest:000000000000007c .Loc.308
/var/folders/xk/fjkh8m297bb3lq7fwx2mh0vh0000gq/T//cch8KZiZ.s:1345   .text.rgblight_effect_rgbtest:000000000000007e L0
/var/folders/xk/fjkh8m297bb3lq7fwx2mh0vh0000gq/T//cch8KZiZ.s:1351   .text.rgblight_sethsv_eeprom_helper:0000000000000000 rgblight_sethsv_eeprom_helper
/var/folders/xk/fjkh8m297bb3lq7fwx2mh0vh0000gq/T//cch8KZiZ.s:1354   .text.rgblight_sethsv_eeprom_helper:0000000000000000 .Loc.309
/var/folders/xk/fjkh8m297bb3lq7fwx2mh0vh0000gq/T//cch8KZiZ.s:1355   .text.rgblight_sethsv_eeprom_helper:0000000000000000 L0
/var/folders/xk/fjkh8m297bb3lq7fwx2mh0vh0000gq/T//cch8KZiZ.s:1356   .text.rgblight_sethsv_eeprom_helper:0000000000000000 .Loc.310
/var/folders/xk/fjkh8m297bb3lq7fwx2mh0vh0000gq/T//cch8KZiZ.s:1397   .text.rgblight_sethsv_eeprom_helper:0000000000000016 L0
/var/folders/xk/fjkh8m297bb3lq7fwx2mh0vh0000gq/T//cch8KZiZ.s:1413   .text.rgblight_sethsv_eeprom_helper:0000000000000024 .Loc.311
/var/folders/xk/fjkh8m297bb3lq7fwx2mh0vh0000gq/T//cch8KZiZ.s:1414   .text.rgblight_sethsv_eeprom_helper:0000000000000024 .Loc.312
/var/folders/xk/fjkh8m297bb3lq7fwx2mh0vh0000gq/T//cch8KZiZ.s:1416   .text.rgblight_sethsv_eeprom_helper:0000000000000028 .Loc.313
/var/folders/xk/fjkh8m297bb3lq7fwx2mh0vh0000gq/T//cch8KZiZ.s:1419   .text.rgblight_sethsv_eeprom_helper:000000000000002c .Loc.314
/var/folders/xk/fjkh8m297bb3lq7fwx2mh0vh0000gq/T//cch8KZiZ.s:1420   .text.rgblight_sethsv_eeprom_helper:000000000000002c .Loc.315
/var/folders/xk/fjkh8m297bb3lq7fwx2mh0vh0000gq/T//cch8KZiZ.s:1425   .text.rgblight_sethsv_eeprom_helper:0000000000000034 .Loc.316
/var/folders/xk/fjkh8m297bb3lq7fwx2mh0vh0000gq/T//cch8KZiZ.s:6080   .rodata.mode_base_table:0000000000000000 mode_base_table
/var/folders/xk/fjkh8m297bb3lq7fwx2mh0vh0000gq/T//cch8KZiZ.s:1430   .text.rgblight_sethsv_eeprom_helper:000000000000003a .Loc.317
/var/folders/xk/fjkh8m297bb3lq7fwx2mh0vh0000gq/T//cch8KZiZ.s:1432   .text.rgblight_sethsv_eeprom_helper:000000000000003e .Loc.318
/var/folders/xk/fjkh8m297bb3lq7fwx2mh0vh0000gq/T//cch8KZiZ.s:1433   .text.rgblight_sethsv_eeprom_helper:000000000000003e .Loc.319
/var/folders/xk/fjkh8m297bb3lq7fwx2mh0vh0000gq/T//cch8KZiZ.s:1435   .text.rgblight_sethsv_eeprom_helper:0000000000000040 .Loc.320
/var/folders/xk/fjkh8m297bb3lq7fwx2mh0vh0000gq/T//cch8KZiZ.s:1439   .text.rgblight_sethsv_eeprom_helper:0000000000000044 .Loc.321
/var/folders/xk/fjkh8m297bb3lq7fwx2mh0vh0000gq/T//cch8KZiZ.s:1440   .text.rgblight_sethsv_eeprom_helper:0000000000000044 .Loc.322
/var/folders/xk/fjkh8m297bb3lq7fwx2mh0vh0000gq/T//cch8KZiZ.s:1443   .text.rgblight_sethsv_eeprom_helper:0000000000000046 .Loc.323
/var/folders/xk/fjkh8m297bb3lq7fwx2mh0vh0000gq/T//cch8KZiZ.s:1449   .text.rgblight_sethsv_eeprom_helper:0000000000000050 .Loc.324
/var/folders/xk/fjkh8m297bb3lq7fwx2mh0vh0000gq/T//cch8KZiZ.s:1456   .text.rgblight_sethsv_eeprom_helper:000000000000005a .Loc.325
/var/folders/xk/fjkh8m297bb3lq7fwx2mh0vh0000gq/T//cch8KZiZ.s:1458   .text.rgblight_sethsv_eeprom_helper:000000000000005a .Loc.326
/var/folders/xk/fjkh8m297bb3lq7fwx2mh0vh0000gq/T//cch8KZiZ.s:1459   .text.rgblight_sethsv_eeprom_helper:000000000000005a .Loc.327
/var/folders/xk/fjkh8m297bb3lq7fwx2mh0vh0000gq/T//cch8KZiZ.s:1463   .text.rgblight_sethsv_eeprom_helper:0000000000000062 .Loc.328
/var/folders/xk/fjkh8m297bb3lq7fwx2mh0vh0000gq/T//cch8KZiZ.s:1467   .text.rgblight_sethsv_eeprom_helper:000000000000006a .Loc.329
/var/folders/xk/fjkh8m297bb3lq7fwx2mh0vh0000gq/T//cch8KZiZ.s:1472   .text.rgblight_sethsv_eeprom_helper:0000000000000072 .Loc.330
/var/folders/xk/fjkh8m297bb3lq7fwx2mh0vh0000gq/T//cch8KZiZ.s:1477   .text.rgblight_sethsv_eeprom_helper:000000000000007c .Loc.331
/var/folders/xk/fjkh8m297bb3lq7fwx2mh0vh0000gq/T//cch8KZiZ.s:1478   .text.rgblight_sethsv_eeprom_helper:000000000000007c .Loc.332
/var/folders/xk/fjkh8m297bb3lq7fwx2mh0vh0000gq/T//cch8KZiZ.s:1480   .text.rgblight_sethsv_eeprom_helper:0000000000000080 .Loc.333
/var/folders/xk/fjkh8m297bb3lq7fwx2mh0vh0000gq/T//cch8KZiZ.s:1481   .text.rgblight_sethsv_eeprom_helper:0000000000000080 .Loc.334
/var/folders/xk/fjkh8m297bb3lq7fwx2mh0vh0000gq/T//cch8KZiZ.s:1483   .text.rgblight_sethsv_eeprom_helper:0000000000000084 .Loc.335
/var/folders/xk/fjkh8m297bb3lq7fwx2mh0vh0000gq/T//cch8KZiZ.s:1484   .text.rgblight_sethsv_eeprom_helper:0000000000000084 .Loc.336
/var/folders/xk/fjkh8m297bb3lq7fwx2mh0vh0000gq/T//cch8KZiZ.s:1486   .text.rgblight_sethsv_eeprom_helper:0000000000000088 .Loc.337
/var/folders/xk/fjkh8m297bb3lq7fwx2mh0vh0000gq/T//cch8KZiZ.s:1487   .text.rgblight_sethsv_eeprom_helper:0000000000000088 .Loc.338
/var/folders/xk/fjkh8m297bb3lq7fwx2mh0vh0000gq/T//cch8KZiZ.s:1490   .text.rgblight_sethsv_eeprom_helper:000000000000008c .Loc.339
/var/folders/xk/fjkh8m297bb3lq7fwx2mh0vh0000gq/T//cch8KZiZ.s:1497   .text.rgblight_sethsv_eeprom_helper:00000000000000a0 .Loc.340
/var/folders/xk/fjkh8m297bb3lq7fwx2mh0vh0000gq/T//cch8KZiZ.s:1498   .text.rgblight_sethsv_eeprom_helper:00000000000000a0 .Loc.341
/var/folders/xk/fjkh8m297bb3lq7fwx2mh0vh0000gq/T//cch8KZiZ.s:1501   .text.rgblight_sethsv_eeprom_helper:00000000000000a0 .Loc.342
/var/folders/xk/fjkh8m297bb3lq7fwx2mh0vh0000gq/T//cch8KZiZ.s:1509   .text.rgblight_sethsv_eeprom_helper:00000000000000ac .Loc.343
/var/folders/xk/fjkh8m297bb3lq7fwx2mh0vh0000gq/T//cch8KZiZ.s:1512   .text.rgblight_sethsv_eeprom_helper:00000000000000ae .Loc.344
/var/folders/xk/fjkh8m297bb3lq7fwx2mh0vh0000gq/T//cch8KZiZ.s:1515   .text.rgblight_sethsv_eeprom_helper:00000000000000b0 .Loc.345
/var/folders/xk/fjkh8m297bb3lq7fwx2mh0vh0000gq/T//cch8KZiZ.s:1518   .text.rgblight_sethsv_eeprom_helper:00000000000000b2 .Loc.346
/var/folders/xk/fjkh8m297bb3lq7fwx2mh0vh0000gq/T//cch8KZiZ.s:1526   .text.rgblight_sethsv_eeprom_helper:00000000000000bc .Loc.347
/var/folders/xk/fjkh8m297bb3lq7fwx2mh0vh0000gq/T//cch8KZiZ.s:1527   .text.rgblight_sethsv_eeprom_helper:00000000000000bc .Loc.348
/var/folders/xk/fjkh8m297bb3lq7fwx2mh0vh0000gq/T//cch8KZiZ.s:1528   .text.rgblight_sethsv_eeprom_helper:00000000000000bc .Loc.349
/var/folders/xk/fjkh8m297bb3lq7fwx2mh0vh0000gq/T//cch8KZiZ.s:1531   .text.rgblight_sethsv_eeprom_helper:00000000000000c0 .Loc.350
/var/folders/xk/fjkh8m297bb3lq7fwx2mh0vh0000gq/T//cch8KZiZ.s:1532   .text.rgblight_sethsv_eeprom_helper:00000000000000c0 .Loc.351
/var/folders/xk/fjkh8m297bb3lq7fwx2mh0vh0000gq/T//cch8KZiZ.s:1535   .text.rgblight_sethsv_eeprom_helper:00000000000000c4 .Loc.352
/var/folders/xk/fjkh8m297bb3lq7fwx2mh0vh0000gq/T//cch8KZiZ.s:1538   .text.rgblight_sethsv_eeprom_helper:00000000000000c6 .Loc.353
/var/folders/xk/fjkh8m297bb3lq7fwx2mh0vh0000gq/T//cch8KZiZ.s:1539   .text.rgblight_sethsv_eeprom_helper:00000000000000c6 .Loc.354
/var/folders/xk/fjkh8m297bb3lq7fwx2mh0vh0000gq/T//cch8KZiZ.s:1543   .text.rgblight_sethsv_eeprom_helper:00000000000000ca .Loc.355
/var/folders/xk/fjkh8m297bb3lq7fwx2mh0vh0000gq/T//cch8KZiZ.s:1544   .text.rgblight_sethsv_eeprom_helper:00000000000000ca .Loc.356
/var/folders/xk/fjkh8m297bb3lq7fwx2mh0vh0000gq/T//cch8KZiZ.s:1547   .text.rgblight_sethsv_eeprom_helper:00000000000000ce .Loc.357
/var/folders/xk/fjkh8m297bb3lq7fwx2mh0vh0000gq/T//cch8KZiZ.s:1550   .text.rgblight_sethsv_eeprom_helper:00000000000000d0 .Loc.358
/var/folders/xk/fjkh8m297bb3lq7fwx2mh0vh0000gq/T//cch8KZiZ.s:1551   .text.rgblight_sethsv_eeprom_helper:00000000000000d0 .Loc.359
/var/folders/xk/fjkh8m297bb3lq7fwx2mh0vh0000gq/T//cch8KZiZ.s:1554   .text.rgblight_sethsv_eeprom_helper:00000000000000d4 .Loc.360
/var/folders/xk/fjkh8m297bb3lq7fwx2mh0vh0000gq/T//cch8KZiZ.s:1555   .text.rgblight_sethsv_eeprom_helper:00000000000000d4 .Loc.361
/var/folders/xk/fjkh8m297bb3lq7fwx2mh0vh0000gq/T//cch8KZiZ.s:1559   .text.rgblight_sethsv_eeprom_helper:00000000000000d8 .Loc.362
/var/folders/xk/fjkh8m297bb3lq7fwx2mh0vh0000gq/T//cch8KZiZ.s:1560   .text.rgblight_sethsv_eeprom_helper:00000000000000d8 .Loc.363
/var/folders/xk/fjkh8m297bb3lq7fwx2mh0vh0000gq/T//cch8KZiZ.s:1563   .text.rgblight_sethsv_eeprom_helper:00000000000000da .Loc.364
/var/folders/xk/fjkh8m297bb3lq7fwx2mh0vh0000gq/T//cch8KZiZ.s:1564   .text.rgblight_sethsv_eeprom_helper:00000000000000da .Loc.365
/var/folders/xk/fjkh8m297bb3lq7fwx2mh0vh0000gq/T//cch8KZiZ.s:1569   .text.rgblight_sethsv_eeprom_helper:00000000000000e0 .Loc.366
/var/folders/xk/fjkh8m297bb3lq7fwx2mh0vh0000gq/T//cch8KZiZ.s:1571   .text.rgblight_sethsv_eeprom_helper:00000000000000e0 .Loc.367
/var/folders/xk/fjkh8m297bb3lq7fwx2mh0vh0000gq/T//cch8KZiZ.s:1574   .text.rgblight_sethsv_eeprom_helper:00000000000000e2 .Loc.368
/var/folders/xk/fjkh8m297bb3lq7fwx2mh0vh0000gq/T//cch8KZiZ.s:6071   .progmem.data.RGBLED_GRADIENT_RANGES:0000000000000000 RGBLED_GRADIENT_RANGES
/var/folders/xk/fjkh8m297bb3lq7fwx2mh0vh0000gq/T//cch8KZiZ.s:1579   .text.rgblight_sethsv_eeprom_helper:00000000000000e8 .Loc.369
/var/folders/xk/fjkh8m297bb3lq7fwx2mh0vh0000gq/T//cch8KZiZ.s:1580   .text.rgblight_sethsv_eeprom_helper:00000000000000e8 .Loc.370
/var/folders/xk/fjkh8m297bb3lq7fwx2mh0vh0000gq/T//cch8KZiZ.s:1588   .text.rgblight_sethsv_eeprom_helper:00000000000000ec .Loc.371
/var/folders/xk/fjkh8m297bb3lq7fwx2mh0vh0000gq/T//cch8KZiZ.s:1589   .text.rgblight_sethsv_eeprom_helper:00000000000000ec .Loc.372
/var/folders/xk/fjkh8m297bb3lq7fwx2mh0vh0000gq/T//cch8KZiZ.s:1592   .text.rgblight_sethsv_eeprom_helper:00000000000000ec .Loc.373
/var/folders/xk/fjkh8m297bb3lq7fwx2mh0vh0000gq/T//cch8KZiZ.s:1594   .text.rgblight_sethsv_eeprom_helper:00000000000000ec .Loc.374
/var/folders/xk/fjkh8m297bb3lq7fwx2mh0vh0000gq/T//cch8KZiZ.s:1595   .text.rgblight_sethsv_eeprom_helper:00000000000000ec .Loc.375
/var/folders/xk/fjkh8m297bb3lq7fwx2mh0vh0000gq/T//cch8KZiZ.s:1598   .text.rgblight_sethsv_eeprom_helper:00000000000000ee .Loc.376
/var/folders/xk/fjkh8m297bb3lq7fwx2mh0vh0000gq/T//cch8KZiZ.s:1602   .text.rgblight_sethsv_eeprom_helper:00000000000000f0 .Loc.377
/var/folders/xk/fjkh8m297bb3lq7fwx2mh0vh0000gq/T//cch8KZiZ.s:1604   .text.rgblight_sethsv_eeprom_helper:00000000000000f0 .Loc.378
/var/folders/xk/fjkh8m297bb3lq7fwx2mh0vh0000gq/T//cch8KZiZ.s:1605   .text.rgblight_sethsv_eeprom_helper:00000000000000f0 .Loc.379
/var/folders/xk/fjkh8m297bb3lq7fwx2mh0vh0000gq/T//cch8KZiZ.s:1607   .text.rgblight_sethsv_eeprom_helper:00000000000000f4 .Loc.380
/var/folders/xk/fjkh8m297bb3lq7fwx2mh0vh0000gq/T//cch8KZiZ.s:1611   .text.rgblight_sethsv_eeprom_helper:00000000000000f8 .Loc.381
/var/folders/xk/fjkh8m297bb3lq7fwx2mh0vh0000gq/T//cch8KZiZ.s:1618   .text.rgblight_sethsv_eeprom_helper:00000000000000fe .Loc.382
/var/folders/xk/fjkh8m297bb3lq7fwx2mh0vh0000gq/T//cch8KZiZ.s:1619   .text.rgblight_sethsv_eeprom_helper:00000000000000fe .Loc.383
/var/folders/xk/fjkh8m297bb3lq7fwx2mh0vh0000gq/T//cch8KZiZ.s:1622   .text.rgblight_sethsv_eeprom_helper:0000000000000102 .Loc.384
/var/folders/xk/fjkh8m297bb3lq7fwx2mh0vh0000gq/T//cch8KZiZ.s:1630   .text.rgblight_sethsv_eeprom_helper:0000000000000110 .Loc.385
/var/folders/xk/fjkh8m297bb3lq7fwx2mh0vh0000gq/T//cch8KZiZ.s:1632   .text.rgblight_sethsv_eeprom_helper:0000000000000112 .Loc.386
/var/folders/xk/fjkh8m297bb3lq7fwx2mh0vh0000gq/T//cch8KZiZ.s:1635   .text.rgblight_sethsv_eeprom_helper:0000000000000116 .Loc.387
/var/folders/xk/fjkh8m297bb3lq7fwx2mh0vh0000gq/T//cch8KZiZ.s:1636   .text.rgblight_sethsv_eeprom_helper:0000000000000116 .Loc.388
/var/folders/xk/fjkh8m297bb3lq7fwx2mh0vh0000gq/T//cch8KZiZ.s:1638   .text.rgblight_sethsv_eeprom_helper:0000000000000118 .Loc.389
/var/folders/xk/fjkh8m297bb3lq7fwx2mh0vh0000gq/T//cch8KZiZ.s:1641   .text.rgblight_sethsv_eeprom_helper:000000000000011c .Loc.390
/var/folders/xk/fjkh8m297bb3lq7fwx2mh0vh0000gq/T//cch8KZiZ.s:1642   .text.rgblight_sethsv_eeprom_helper:000000000000011c .Loc.391
/var/folders/xk/fjkh8m297bb3lq7fwx2mh0vh0000gq/T//cch8KZiZ.s:1646   .text.rgblight_sethsv_eeprom_helper:000000000000011e .Loc.392
/var/folders/xk/fjkh8m297bb3lq7fwx2mh0vh0000gq/T//cch8KZiZ.s:1647   .text.rgblight_sethsv_eeprom_helper:000000000000011e .Loc.393
/var/folders/xk/fjkh8m297bb3lq7fwx2mh0vh0000gq/T//cch8KZiZ.s:1648   .text.rgblight_sethsv_eeprom_helper:000000000000011e .Loc.394
/var/folders/xk/fjkh8m297bb3lq7fwx2mh0vh0000gq/T//cch8KZiZ.s:1650   .text.rgblight_sethsv_eeprom_helper:0000000000000122 .Loc.395
/var/folders/xk/fjkh8m297bb3lq7fwx2mh0vh0000gq/T//cch8KZiZ.s:1654   .text.rgblight_sethsv_eeprom_helper:0000000000000128 .Loc.396
/var/folders/xk/fjkh8m297bb3lq7fwx2mh0vh0000gq/T//cch8KZiZ.s:1666   .text.rgblight_sethsv_eeprom_helper:000000000000013e .Loc.397
/var/folders/xk/fjkh8m297bb3lq7fwx2mh0vh0000gq/T//cch8KZiZ.s:1668   .text.rgblight_sethsv_eeprom_helper:000000000000013e .Loc.398
/var/folders/xk/fjkh8m297bb3lq7fwx2mh0vh0000gq/T//cch8KZiZ.s:1669   .text.rgblight_sethsv_eeprom_helper:000000000000013e .Loc.399
/var/folders/xk/fjkh8m297bb3lq7fwx2mh0vh0000gq/T//cch8KZiZ.s:1672   .text.rgblight_sethsv_eeprom_helper:0000000000000140 .Loc.400
/var/folders/xk/fjkh8m297bb3lq7fwx2mh0vh0000gq/T//cch8KZiZ.s:1677   .text.rgblight_sethsv_eeprom_helper:0000000000000142 .Loc.401
/var/folders/xk/fjkh8m297bb3lq7fwx2mh0vh0000gq/T//cch8KZiZ.s:1678   .text.rgblight_sethsv_eeprom_helper:0000000000000142 .Loc.402
/var/folders/xk/fjkh8m297bb3lq7fwx2mh0vh0000gq/T//cch8KZiZ.s:1681   .text.rgblight_sethsv_eeprom_helper:0000000000000144 .Loc.403
/var/folders/xk/fjkh8m297bb3lq7fwx2mh0vh0000gq/T//cch8KZiZ.s:1686   .text.rgblight_sethsv_eeprom_helper:0000000000000146 L0
/var/folders/xk/fjkh8m297bb3lq7fwx2mh0vh0000gq/T//cch8KZiZ.s:1692   .text.rgblight_increase_hue_helper:0000000000000000 rgblight_increase_hue_helper
/var/folders/xk/fjkh8m297bb3lq7fwx2mh0vh0000gq/T//cch8KZiZ.s:1695   .text.rgblight_increase_hue_helper:0000000000000000 .Loc.404
/var/folders/xk/fjkh8m297bb3lq7fwx2mh0vh0000gq/T//cch8KZiZ.s:1696   .text.rgblight_increase_hue_helper:0000000000000000 L0
/var/folders/xk/fjkh8m297bb3lq7fwx2mh0vh0000gq/T//cch8KZiZ.s:1701   .text.rgblight_increase_hue_helper:0000000000000000 .Loc.405
/var/folders/xk/fjkh8m297bb3lq7fwx2mh0vh0000gq/T//cch8KZiZ.s:1702   .text.rgblight_increase_hue_helper:0000000000000000 .Loc.406
/var/folders/xk/fjkh8m297bb3lq7fwx2mh0vh0000gq/T//cch8KZiZ.s:1705   .text.rgblight_increase_hue_helper:0000000000000004 .Loc.407
/var/folders/xk/fjkh8m297bb3lq7fwx2mh0vh0000gq/T//cch8KZiZ.s:1707   .text.rgblight_increase_hue_helper:0000000000000006 .Loc.408
/var/folders/xk/fjkh8m297bb3lq7fwx2mh0vh0000gq/T//cch8KZiZ.s:1713   .text.rgblight_increase_hue_helper:000000000000000e .Loc.409
/var/folders/xk/fjkh8m297bb3lq7fwx2mh0vh0000gq/T//cch8KZiZ.s:1716   .text.rgblight_increase_hue_helper:0000000000000010 .Loc.410
/var/folders/xk/fjkh8m297bb3lq7fwx2mh0vh0000gq/T//cch8KZiZ.s:1719   .text.rgblight_increase_hue_helper:0000000000000014 .Loc.411
/var/folders/xk/fjkh8m297bb3lq7fwx2mh0vh0000gq/T//cch8KZiZ.s:1720   .text.rgblight_increase_hue_helper:0000000000000014 L0
/var/folders/xk/fjkh8m297bb3lq7fwx2mh0vh0000gq/T//cch8KZiZ.s:1726   .text.rgblight_increase_hue_noeeprom:0000000000000000 rgblight_increase_hue_noeeprom
/var/folders/xk/fjkh8m297bb3lq7fwx2mh0vh0000gq/T//cch8KZiZ.s:1728   .text.rgblight_increase_hue_noeeprom:0000000000000000 .Loc.412
/var/folders/xk/fjkh8m297bb3lq7fwx2mh0vh0000gq/T//cch8KZiZ.s:1729   .text.rgblight_increase_hue_noeeprom:0000000000000000 L0
/var/folders/xk/fjkh8m297bb3lq7fwx2mh0vh0000gq/T//cch8KZiZ.s:1734   .text.rgblight_increase_hue_noeeprom:0000000000000000 .Loc.413
/var/folders/xk/fjkh8m297bb3lq7fwx2mh0vh0000gq/T//cch8KZiZ.s:1738   .text.rgblight_increase_hue_noeeprom:0000000000000006 L0
/var/folders/xk/fjkh8m297bb3lq7fwx2mh0vh0000gq/T//cch8KZiZ.s:1744   .text.rgblight_increase_hue:0000000000000000 rgblight_increase_hue
/var/folders/xk/fjkh8m297bb3lq7fwx2mh0vh0000gq/T//cch8KZiZ.s:1746   .text.rgblight_increase_hue:0000000000000000 .Loc.414
/var/folders/xk/fjkh8m297bb3lq7fwx2mh0vh0000gq/T//cch8KZiZ.s:1747   .text.rgblight_increase_hue:0000000000000000 L0
/var/folders/xk/fjkh8m297bb3lq7fwx2mh0vh0000gq/T//cch8KZiZ.s:1752   .text.rgblight_increase_hue:0000000000000000 .Loc.415
/var/folders/xk/fjkh8m297bb3lq7fwx2mh0vh0000gq/T//cch8KZiZ.s:1756   .text.rgblight_increase_hue:0000000000000006 L0
/var/folders/xk/fjkh8m297bb3lq7fwx2mh0vh0000gq/T//cch8KZiZ.s:1762   .text.rgblight_decrease_hue_helper:0000000000000000 rgblight_decrease_hue_helper
/var/folders/xk/fjkh8m297bb3lq7fwx2mh0vh0000gq/T//cch8KZiZ.s:1765   .text.rgblight_decrease_hue_helper:0000000000000000 .Loc.416
/var/folders/xk/fjkh8m297bb3lq7fwx2mh0vh0000gq/T//cch8KZiZ.s:1766   .text.rgblight_decrease_hue_helper:0000000000000000 L0
/var/folders/xk/fjkh8m297bb3lq7fwx2mh0vh0000gq/T//cch8KZiZ.s:1771   .text.rgblight_decrease_hue_helper:0000000000000000 .Loc.417
/var/folders/xk/fjkh8m297bb3lq7fwx2mh0vh0000gq/T//cch8KZiZ.s:1772   .text.rgblight_decrease_hue_helper:0000000000000000 .Loc.418
/var/folders/xk/fjkh8m297bb3lq7fwx2mh0vh0000gq/T//cch8KZiZ.s:1775   .text.rgblight_decrease_hue_helper:0000000000000004 .Loc.419
/var/folders/xk/fjkh8m297bb3lq7fwx2mh0vh0000gq/T//cch8KZiZ.s:1777   .text.rgblight_decrease_hue_helper:0000000000000006 .Loc.420
/var/folders/xk/fjkh8m297bb3lq7fwx2mh0vh0000gq/T//cch8KZiZ.s:1783   .text.rgblight_decrease_hue_helper:000000000000000e .Loc.421
/var/folders/xk/fjkh8m297bb3lq7fwx2mh0vh0000gq/T//cch8KZiZ.s:1786   .text.rgblight_decrease_hue_helper:0000000000000010 .Loc.422
/var/folders/xk/fjkh8m297bb3lq7fwx2mh0vh0000gq/T//cch8KZiZ.s:1789   .text.rgblight_decrease_hue_helper:0000000000000014 .Loc.423
/var/folders/xk/fjkh8m297bb3lq7fwx2mh0vh0000gq/T//cch8KZiZ.s:1790   .text.rgblight_decrease_hue_helper:0000000000000014 L0
/var/folders/xk/fjkh8m297bb3lq7fwx2mh0vh0000gq/T//cch8KZiZ.s:1796   .text.rgblight_decrease_hue_noeeprom:0000000000000000 rgblight_decrease_hue_noeeprom
/var/folders/xk/fjkh8m297bb3lq7fwx2mh0vh0000gq/T//cch8KZiZ.s:1798   .text.rgblight_decrease_hue_noeeprom:0000000000000000 .Loc.424
/var/folders/xk/fjkh8m297bb3lq7fwx2mh0vh0000gq/T//cch8KZiZ.s:1799   .text.rgblight_decrease_hue_noeeprom:0000000000000000 L0
/var/folders/xk/fjkh8m297bb3lq7fwx2mh0vh0000gq/T//cch8KZiZ.s:1804   .text.rgblight_decrease_hue_noeeprom:0000000000000000 .Loc.425
/var/folders/xk/fjkh8m297bb3lq7fwx2mh0vh0000gq/T//cch8KZiZ.s:1808   .text.rgblight_decrease_hue_noeeprom:0000000000000006 L0
/var/folders/xk/fjkh8m297bb3lq7fwx2mh0vh0000gq/T//cch8KZiZ.s:1814   .text.rgblight_decrease_hue:0000000000000000 rgblight_decrease_hue
/var/folders/xk/fjkh8m297bb3lq7fwx2mh0vh0000gq/T//cch8KZiZ.s:1816   .text.rgblight_decrease_hue:0000000000000000 .Loc.426
/var/folders/xk/fjkh8m297bb3lq7fwx2mh0vh0000gq/T//cch8KZiZ.s:1817   .text.rgblight_decrease_hue:0000000000000000 L0
/var/folders/xk/fjkh8m297bb3lq7fwx2mh0vh0000gq/T//cch8KZiZ.s:1822   .text.rgblight_decrease_hue:0000000000000000 .Loc.427
/var/folders/xk/fjkh8m297bb3lq7fwx2mh0vh0000gq/T//cch8KZiZ.s:1826   .text.rgblight_decrease_hue:0000000000000006 L0
/var/folders/xk/fjkh8m297bb3lq7fwx2mh0vh0000gq/T//cch8KZiZ.s:1832   .text.rgblight_increase_sat_helper:0000000000000000 rgblight_increase_sat_helper
/var/folders/xk/fjkh8m297bb3lq7fwx2mh0vh0000gq/T//cch8KZiZ.s:1835   .text.rgblight_increase_sat_helper:0000000000000000 .Loc.428
/var/folders/xk/fjkh8m297bb3lq7fwx2mh0vh0000gq/T//cch8KZiZ.s:1836   .text.rgblight_increase_sat_helper:0000000000000000 L0
/var/folders/xk/fjkh8m297bb3lq7fwx2mh0vh0000gq/T//cch8KZiZ.s:1841   .text.rgblight_increase_sat_helper:0000000000000000 .Loc.429
/var/folders/xk/fjkh8m297bb3lq7fwx2mh0vh0000gq/T//cch8KZiZ.s:1845   .text.rgblight_increase_sat_helper:0000000000000000 .Loc.430
/var/folders/xk/fjkh8m297bb3lq7fwx2mh0vh0000gq/T//cch8KZiZ.s:1847   .text.rgblight_increase_sat_helper:0000000000000000 .Loc.431
/var/folders/xk/fjkh8m297bb3lq7fwx2mh0vh0000gq/T//cch8KZiZ.s:1850   .text.rgblight_increase_sat_helper:0000000000000000 .Loc.432
/var/folders/xk/fjkh8m297bb3lq7fwx2mh0vh0000gq/T//cch8KZiZ.s:1855   .text.rgblight_increase_sat_helper:0000000000000004 .Loc.433
/var/folders/xk/fjkh8m297bb3lq7fwx2mh0vh0000gq/T//cch8KZiZ.s:1863   .text.rgblight_increase_sat_helper:000000000000000e L_1415
/var/folders/xk/fjkh8m297bb3lq7fwx2mh0vh0000gq/T//cch8KZiZ.s:1866   .text.rgblight_increase_sat_helper:000000000000000e .Loc.434
/var/folders/xk/fjkh8m297bb3lq7fwx2mh0vh0000gq/T//cch8KZiZ.s:1867   .text.rgblight_increase_sat_helper:000000000000000e .Loc.435
/var/folders/xk/fjkh8m297bb3lq7fwx2mh0vh0000gq/T//cch8KZiZ.s:1871   .text.rgblight_increase_sat_helper:000000000000000e .Loc.436
/var/folders/xk/fjkh8m297bb3lq7fwx2mh0vh0000gq/T//cch8KZiZ.s:1876   .text.rgblight_increase_sat_helper:0000000000000014 .Loc.437
/var/folders/xk/fjkh8m297bb3lq7fwx2mh0vh0000gq/T//cch8KZiZ.s:1879   .text.rgblight_increase_sat_helper:0000000000000018 .Loc.438
/var/folders/xk/fjkh8m297bb3lq7fwx2mh0vh0000gq/T//cch8KZiZ.s:1880   .text.rgblight_increase_sat_helper:0000000000000018 L0
/var/folders/xk/fjkh8m297bb3lq7fwx2mh0vh0000gq/T//cch8KZiZ.s:1886   .text.rgblight_increase_sat_noeeprom:0000000000000000 rgblight_increase_sat_noeeprom
/var/folders/xk/fjkh8m297bb3lq7fwx2mh0vh0000gq/T//cch8KZiZ.s:1888   .text.rgblight_increase_sat_noeeprom:0000000000000000 .Loc.439
/var/folders/xk/fjkh8m297bb3lq7fwx2mh0vh0000gq/T//cch8KZiZ.s:1889   .text.rgblight_increase_sat_noeeprom:0000000000000000 L0
/var/folders/xk/fjkh8m297bb3lq7fwx2mh0vh0000gq/T//cch8KZiZ.s:1894   .text.rgblight_increase_sat_noeeprom:0000000000000000 .Loc.440
/var/folders/xk/fjkh8m297bb3lq7fwx2mh0vh0000gq/T//cch8KZiZ.s:1898   .text.rgblight_increase_sat_noeeprom:0000000000000006 L0
/var/folders/xk/fjkh8m297bb3lq7fwx2mh0vh0000gq/T//cch8KZiZ.s:1904   .text.rgblight_increase_sat:0000000000000000 rgblight_increase_sat
/var/folders/xk/fjkh8m297bb3lq7fwx2mh0vh0000gq/T//cch8KZiZ.s:1906   .text.rgblight_increase_sat:0000000000000000 .Loc.441
/var/folders/xk/fjkh8m297bb3lq7fwx2mh0vh0000gq/T//cch8KZiZ.s:1907   .text.rgblight_increase_sat:0000000000000000 L0
/var/folders/xk/fjkh8m297bb3lq7fwx2mh0vh0000gq/T//cch8KZiZ.s:1912   .text.rgblight_increase_sat:0000000000000000 .Loc.442
/var/folders/xk/fjkh8m297bb3lq7fwx2mh0vh0000gq/T//cch8KZiZ.s:1916   .text.rgblight_increase_sat:0000000000000006 L0
/var/folders/xk/fjkh8m297bb3lq7fwx2mh0vh0000gq/T//cch8KZiZ.s:1922   .text.rgblight_decrease_sat_helper:0000000000000000 rgblight_decrease_sat_helper
/var/folders/xk/fjkh8m297bb3lq7fwx2mh0vh0000gq/T//cch8KZiZ.s:1925   .text.rgblight_decrease_sat_helper:0000000000000000 .Loc.443
/var/folders/xk/fjkh8m297bb3lq7fwx2mh0vh0000gq/T//cch8KZiZ.s:1926   .text.rgblight_decrease_sat_helper:0000000000000000 L0
/var/folders/xk/fjkh8m297bb3lq7fwx2mh0vh0000gq/T//cch8KZiZ.s:1931   .text.rgblight_decrease_sat_helper:0000000000000000 .Loc.444
/var/folders/xk/fjkh8m297bb3lq7fwx2mh0vh0000gq/T//cch8KZiZ.s:1934   .text.rgblight_decrease_sat_helper:0000000000000000 .Loc.445
/var/folders/xk/fjkh8m297bb3lq7fwx2mh0vh0000gq/T//cch8KZiZ.s:1936   .text.rgblight_decrease_sat_helper:0000000000000000 .Loc.446
/var/folders/xk/fjkh8m297bb3lq7fwx2mh0vh0000gq/T//cch8KZiZ.s:1939   .text.rgblight_decrease_sat_helper:0000000000000000 .Loc.447
/var/folders/xk/fjkh8m297bb3lq7fwx2mh0vh0000gq/T//cch8KZiZ.s:1944   .text.rgblight_decrease_sat_helper:0000000000000004 .Loc.448
/var/folders/xk/fjkh8m297bb3lq7fwx2mh0vh0000gq/T//cch8KZiZ.s:1952   .text.rgblight_decrease_sat_helper:000000000000000e L_1471
/var/folders/xk/fjkh8m297bb3lq7fwx2mh0vh0000gq/T//cch8KZiZ.s:1955   .text.rgblight_decrease_sat_helper:000000000000000e .Loc.449
/var/folders/xk/fjkh8m297bb3lq7fwx2mh0vh0000gq/T//cch8KZiZ.s:1956   .text.rgblight_decrease_sat_helper:000000000000000e .Loc.450
/var/folders/xk/fjkh8m297bb3lq7fwx2mh0vh0000gq/T//cch8KZiZ.s:1960   .text.rgblight_decrease_sat_helper:000000000000000e .Loc.451
/var/folders/xk/fjkh8m297bb3lq7fwx2mh0vh0000gq/T//cch8KZiZ.s:1965   .text.rgblight_decrease_sat_helper:0000000000000014 .Loc.452
/var/folders/xk/fjkh8m297bb3lq7fwx2mh0vh0000gq/T//cch8KZiZ.s:1968   .text.rgblight_decrease_sat_helper:0000000000000018 .Loc.453
/var/folders/xk/fjkh8m297bb3lq7fwx2mh0vh0000gq/T//cch8KZiZ.s:1969   .text.rgblight_decrease_sat_helper:0000000000000018 L0
/var/folders/xk/fjkh8m297bb3lq7fwx2mh0vh0000gq/T//cch8KZiZ.s:1975   .text.rgblight_decrease_sat_noeeprom:0000000000000000 rgblight_decrease_sat_noeeprom
/var/folders/xk/fjkh8m297bb3lq7fwx2mh0vh0000gq/T//cch8KZiZ.s:1977   .text.rgblight_decrease_sat_noeeprom:0000000000000000 .Loc.454
/var/folders/xk/fjkh8m297bb3lq7fwx2mh0vh0000gq/T//cch8KZiZ.s:1978   .text.rgblight_decrease_sat_noeeprom:0000000000000000 L0
/var/folders/xk/fjkh8m297bb3lq7fwx2mh0vh0000gq/T//cch8KZiZ.s:1983   .text.rgblight_decrease_sat_noeeprom:0000000000000000 .Loc.455
/var/folders/xk/fjkh8m297bb3lq7fwx2mh0vh0000gq/T//cch8KZiZ.s:1987   .text.rgblight_decrease_sat_noeeprom:0000000000000006 L0
/var/folders/xk/fjkh8m297bb3lq7fwx2mh0vh0000gq/T//cch8KZiZ.s:1993   .text.rgblight_decrease_sat:0000000000000000 rgblight_decrease_sat
/var/folders/xk/fjkh8m297bb3lq7fwx2mh0vh0000gq/T//cch8KZiZ.s:1995   .text.rgblight_decrease_sat:0000000000000000 .Loc.456
/var/folders/xk/fjkh8m297bb3lq7fwx2mh0vh0000gq/T//cch8KZiZ.s:1996   .text.rgblight_decrease_sat:0000000000000000 L0
/var/folders/xk/fjkh8m297bb3lq7fwx2mh0vh0000gq/T//cch8KZiZ.s:2001   .text.rgblight_decrease_sat:0000000000000000 .Loc.457
/var/folders/xk/fjkh8m297bb3lq7fwx2mh0vh0000gq/T//cch8KZiZ.s:2005   .text.rgblight_decrease_sat:0000000000000006 L0
/var/folders/xk/fjkh8m297bb3lq7fwx2mh0vh0000gq/T//cch8KZiZ.s:2011   .text.rgblight_increase_val_helper:0000000000000000 rgblight_increase_val_helper
/var/folders/xk/fjkh8m297bb3lq7fwx2mh0vh0000gq/T//cch8KZiZ.s:2014   .text.rgblight_increase_val_helper:0000000000000000 .Loc.458
/var/folders/xk/fjkh8m297bb3lq7fwx2mh0vh0000gq/T//cch8KZiZ.s:2015   .text.rgblight_increase_val_helper:0000000000000000 L0
/var/folders/xk/fjkh8m297bb3lq7fwx2mh0vh0000gq/T//cch8KZiZ.s:2020   .text.rgblight_increase_val_helper:0000000000000000 .Loc.459
/var/folders/xk/fjkh8m297bb3lq7fwx2mh0vh0000gq/T//cch8KZiZ.s:2023   .text.rgblight_increase_val_helper:0000000000000000 .Loc.460
/var/folders/xk/fjkh8m297bb3lq7fwx2mh0vh0000gq/T//cch8KZiZ.s:2025   .text.rgblight_increase_val_helper:0000000000000000 .Loc.461
/var/folders/xk/fjkh8m297bb3lq7fwx2mh0vh0000gq/T//cch8KZiZ.s:2028   .text.rgblight_increase_val_helper:0000000000000000 .Loc.462
/var/folders/xk/fjkh8m297bb3lq7fwx2mh0vh0000gq/T//cch8KZiZ.s:2033   .text.rgblight_increase_val_helper:0000000000000004 .Loc.463
/var/folders/xk/fjkh8m297bb3lq7fwx2mh0vh0000gq/T//cch8KZiZ.s:2041   .text.rgblight_increase_val_helper:000000000000000e L_1527
/var/folders/xk/fjkh8m297bb3lq7fwx2mh0vh0000gq/T//cch8KZiZ.s:2044   .text.rgblight_increase_val_helper:000000000000000e .Loc.464
/var/folders/xk/fjkh8m297bb3lq7fwx2mh0vh0000gq/T//cch8KZiZ.s:2045   .text.rgblight_increase_val_helper:000000000000000e .Loc.465
/var/folders/xk/fjkh8m297bb3lq7fwx2mh0vh0000gq/T//cch8KZiZ.s:2049   .text.rgblight_increase_val_helper:000000000000000e .Loc.466
/var/folders/xk/fjkh8m297bb3lq7fwx2mh0vh0000gq/T//cch8KZiZ.s:2054   .text.rgblight_increase_val_helper:0000000000000014 .Loc.467
/var/folders/xk/fjkh8m297bb3lq7fwx2mh0vh0000gq/T//cch8KZiZ.s:2057   .text.rgblight_increase_val_helper:0000000000000018 .Loc.468
/var/folders/xk/fjkh8m297bb3lq7fwx2mh0vh0000gq/T//cch8KZiZ.s:2058   .text.rgblight_increase_val_helper:0000000000000018 L0
/var/folders/xk/fjkh8m297bb3lq7fwx2mh0vh0000gq/T//cch8KZiZ.s:2064   .text.rgblight_increase_val_noeeprom:0000000000000000 rgblight_increase_val_noeeprom
/var/folders/xk/fjkh8m297bb3lq7fwx2mh0vh0000gq/T//cch8KZiZ.s:2066   .text.rgblight_increase_val_noeeprom:0000000000000000 .Loc.469
/var/folders/xk/fjkh8m297bb3lq7fwx2mh0vh0000gq/T//cch8KZiZ.s:2067   .text.rgblight_increase_val_noeeprom:0000000000000000 L0
/var/folders/xk/fjkh8m297bb3lq7fwx2mh0vh0000gq/T//cch8KZiZ.s:2072   .text.rgblight_increase_val_noeeprom:0000000000000000 .Loc.470
/var/folders/xk/fjkh8m297bb3lq7fwx2mh0vh0000gq/T//cch8KZiZ.s:2076   .text.rgblight_increase_val_noeeprom:0000000000000006 L0
/var/folders/xk/fjkh8m297bb3lq7fwx2mh0vh0000gq/T//cch8KZiZ.s:2082   .text.rgblight_increase_val:0000000000000000 rgblight_increase_val
/var/folders/xk/fjkh8m297bb3lq7fwx2mh0vh0000gq/T//cch8KZiZ.s:2084   .text.rgblight_increase_val:0000000000000000 .Loc.471
/var/folders/xk/fjkh8m297bb3lq7fwx2mh0vh0000gq/T//cch8KZiZ.s:2085   .text.rgblight_increase_val:0000000000000000 L0
/var/folders/xk/fjkh8m297bb3lq7fwx2mh0vh0000gq/T//cch8KZiZ.s:2090   .text.rgblight_increase_val:0000000000000000 .Loc.472
/var/folders/xk/fjkh8m297bb3lq7fwx2mh0vh0000gq/T//cch8KZiZ.s:2094   .text.rgblight_increase_val:0000000000000006 L0
/var/folders/xk/fjkh8m297bb3lq7fwx2mh0vh0000gq/T//cch8KZiZ.s:2100   .text.rgblight_decrease_val_helper:0000000000000000 rgblight_decrease_val_helper
/var/folders/xk/fjkh8m297bb3lq7fwx2mh0vh0000gq/T//cch8KZiZ.s:2103   .text.rgblight_decrease_val_helper:0000000000000000 .Loc.473
/var/folders/xk/fjkh8m297bb3lq7fwx2mh0vh0000gq/T//cch8KZiZ.s:2104   .text.rgblight_decrease_val_helper:0000000000000000 L0
/var/folders/xk/fjkh8m297bb3lq7fwx2mh0vh0000gq/T//cch8KZiZ.s:2109   .text.rgblight_decrease_val_helper:0000000000000000 .Loc.474
/var/folders/xk/fjkh8m297bb3lq7fwx2mh0vh0000gq/T//cch8KZiZ.s:2112   .text.rgblight_decrease_val_helper:0000000000000000 .Loc.475
/var/folders/xk/fjkh8m297bb3lq7fwx2mh0vh0000gq/T//cch8KZiZ.s:2114   .text.rgblight_decrease_val_helper:0000000000000000 .Loc.476
/var/folders/xk/fjkh8m297bb3lq7fwx2mh0vh0000gq/T//cch8KZiZ.s:2117   .text.rgblight_decrease_val_helper:0000000000000000 .Loc.477
/var/folders/xk/fjkh8m297bb3lq7fwx2mh0vh0000gq/T//cch8KZiZ.s:2122   .text.rgblight_decrease_val_helper:0000000000000004 .Loc.478
/var/folders/xk/fjkh8m297bb3lq7fwx2mh0vh0000gq/T//cch8KZiZ.s:2130   .text.rgblight_decrease_val_helper:000000000000000e L_1583
/var/folders/xk/fjkh8m297bb3lq7fwx2mh0vh0000gq/T//cch8KZiZ.s:2133   .text.rgblight_decrease_val_helper:000000000000000e .Loc.479
/var/folders/xk/fjkh8m297bb3lq7fwx2mh0vh0000gq/T//cch8KZiZ.s:2134   .text.rgblight_decrease_val_helper:000000000000000e .Loc.480
/var/folders/xk/fjkh8m297bb3lq7fwx2mh0vh0000gq/T//cch8KZiZ.s:2138   .text.rgblight_decrease_val_helper:000000000000000e .Loc.481
/var/folders/xk/fjkh8m297bb3lq7fwx2mh0vh0000gq/T//cch8KZiZ.s:2143   .text.rgblight_decrease_val_helper:0000000000000014 .Loc.482
/var/folders/xk/fjkh8m297bb3lq7fwx2mh0vh0000gq/T//cch8KZiZ.s:2146   .text.rgblight_decrease_val_helper:0000000000000018 .Loc.483
/var/folders/xk/fjkh8m297bb3lq7fwx2mh0vh0000gq/T//cch8KZiZ.s:2147   .text.rgblight_decrease_val_helper:0000000000000018 L0
/var/folders/xk/fjkh8m297bb3lq7fwx2mh0vh0000gq/T//cch8KZiZ.s:2153   .text.rgblight_decrease_val_noeeprom:0000000000000000 rgblight_decrease_val_noeeprom
/var/folders/xk/fjkh8m297bb3lq7fwx2mh0vh0000gq/T//cch8KZiZ.s:2155   .text.rgblight_decrease_val_noeeprom:0000000000000000 .Loc.484
/var/folders/xk/fjkh8m297bb3lq7fwx2mh0vh0000gq/T//cch8KZiZ.s:2156   .text.rgblight_decrease_val_noeeprom:0000000000000000 L0
/var/folders/xk/fjkh8m297bb3lq7fwx2mh0vh0000gq/T//cch8KZiZ.s:2161   .text.rgblight_decrease_val_noeeprom:0000000000000000 .Loc.485
/var/folders/xk/fjkh8m297bb3lq7fwx2mh0vh0000gq/T//cch8KZiZ.s:2165   .text.rgblight_decrease_val_noeeprom:0000000000000006 L0
/var/folders/xk/fjkh8m297bb3lq7fwx2mh0vh0000gq/T//cch8KZiZ.s:2171   .text.rgblight_decrease_val:0000000000000000 rgblight_decrease_val
/var/folders/xk/fjkh8m297bb3lq7fwx2mh0vh0000gq/T//cch8KZiZ.s:2173   .text.rgblight_decrease_val:0000000000000000 .Loc.486
/var/folders/xk/fjkh8m297bb3lq7fwx2mh0vh0000gq/T//cch8KZiZ.s:2174   .text.rgblight_decrease_val:0000000000000000 L0
/var/folders/xk/fjkh8m297bb3lq7fwx2mh0vh0000gq/T//cch8KZiZ.s:2179   .text.rgblight_decrease_val:0000000000000000 .Loc.487
/var/folders/xk/fjkh8m297bb3lq7fwx2mh0vh0000gq/T//cch8KZiZ.s:2183   .text.rgblight_decrease_val:0000000000000006 L0
/var/folders/xk/fjkh8m297bb3lq7fwx2mh0vh0000gq/T//cch8KZiZ.s:2189   .text.rgblight_sethsv:0000000000000000 rgblight_sethsv
/var/folders/xk/fjkh8m297bb3lq7fwx2mh0vh0000gq/T//cch8KZiZ.s:2192   .text.rgblight_sethsv:0000000000000000 .Loc.488
/var/folders/xk/fjkh8m297bb3lq7fwx2mh0vh0000gq/T//cch8KZiZ.s:2193   .text.rgblight_sethsv:0000000000000000 L0
/var/folders/xk/fjkh8m297bb3lq7fwx2mh0vh0000gq/T//cch8KZiZ.s:2198   .text.rgblight_sethsv:0000000000000000 .Loc.489
/var/folders/xk/fjkh8m297bb3lq7fwx2mh0vh0000gq/T//cch8KZiZ.s:2202   .text.rgblight_sethsv:0000000000000006 .Loc.490
/var/folders/xk/fjkh8m297bb3lq7fwx2mh0vh0000gq/T//cch8KZiZ.s:2203   .text.rgblight_sethsv:0000000000000006 L0
/var/folders/xk/fjkh8m297bb3lq7fwx2mh0vh0000gq/T//cch8KZiZ.s:2209   .text.rgblight_sethsv_noeeprom:0000000000000000 rgblight_sethsv_noeeprom
/var/folders/xk/fjkh8m297bb3lq7fwx2mh0vh0000gq/T//cch8KZiZ.s:2212   .text.rgblight_sethsv_noeeprom:0000000000000000 .Loc.491
/var/folders/xk/fjkh8m297bb3lq7fwx2mh0vh0000gq/T//cch8KZiZ.s:2213   .text.rgblight_sethsv_noeeprom:0000000000000000 L0
/var/folders/xk/fjkh8m297bb3lq7fwx2mh0vh0000gq/T//cch8KZiZ.s:2218   .text.rgblight_sethsv_noeeprom:0000000000000000 .Loc.492
/var/folders/xk/fjkh8m297bb3lq7fwx2mh0vh0000gq/T//cch8KZiZ.s:2222   .text.rgblight_sethsv_noeeprom:0000000000000006 .Loc.493
/var/folders/xk/fjkh8m297bb3lq7fwx2mh0vh0000gq/T//cch8KZiZ.s:2223   .text.rgblight_sethsv_noeeprom:0000000000000006 L0
/var/folders/xk/fjkh8m297bb3lq7fwx2mh0vh0000gq/T//cch8KZiZ.s:2229   .text.rgblight_setrgb_at:0000000000000000 rgblight_setrgb_at
/var/folders/xk/fjkh8m297bb3lq7fwx2mh0vh0000gq/T//cch8KZiZ.s:2232   .text.rgblight_setrgb_at:0000000000000000 .Loc.494
/var/folders/xk/fjkh8m297bb3lq7fwx2mh0vh0000gq/T//cch8KZiZ.s:2233   .text.rgblight_setrgb_at:0000000000000000 L0
/var/folders/xk/fjkh8m297bb3lq7fwx2mh0vh0000gq/T//cch8KZiZ.s:2238   .text.rgblight_setrgb_at:0000000000000000 .Loc.495
/var/folders/xk/fjkh8m297bb3lq7fwx2mh0vh0000gq/T//cch8KZiZ.s:2239   .text.rgblight_setrgb_at:0000000000000000 .Loc.496
/var/folders/xk/fjkh8m297bb3lq7fwx2mh0vh0000gq/T//cch8KZiZ.s:2241   .text.rgblight_setrgb_at:0000000000000004 .Loc.497
/var/folders/xk/fjkh8m297bb3lq7fwx2mh0vh0000gq/T//cch8KZiZ.s:2244   .text.rgblight_setrgb_at:0000000000000008 .Loc.498
/var/folders/xk/fjkh8m297bb3lq7fwx2mh0vh0000gq/T//cch8KZiZ.s:2247   .text.rgblight_setrgb_at:000000000000000c .Loc.499
/var/folders/xk/fjkh8m297bb3lq7fwx2mh0vh0000gq/T//cch8KZiZ.s:2248   .text.rgblight_setrgb_at:000000000000000c .Loc.500
/var/folders/xk/fjkh8m297bb3lq7fwx2mh0vh0000gq/T//cch8KZiZ.s:2250   .text.rgblight_setrgb_at:000000000000000e .Loc.501
/var/folders/xk/fjkh8m297bb3lq7fwx2mh0vh0000gq/T//cch8KZiZ.s:2259   .text.rgblight_setrgb_at:000000000000001e .Loc.502
/var/folders/xk/fjkh8m297bb3lq7fwx2mh0vh0000gq/T//cch8KZiZ.s:2260   .text.rgblight_setrgb_at:000000000000001e .Loc.503
/var/folders/xk/fjkh8m297bb3lq7fwx2mh0vh0000gq/T//cch8KZiZ.s:2262   .text.rgblight_setrgb_at:0000000000000020 .Loc.504
/var/folders/xk/fjkh8m297bb3lq7fwx2mh0vh0000gq/T//cch8KZiZ.s:2263   .text.rgblight_setrgb_at:0000000000000020 .Loc.505
/var/folders/xk/fjkh8m297bb3lq7fwx2mh0vh0000gq/T//cch8KZiZ.s:2265   .text.rgblight_setrgb_at:0000000000000022 .Loc.506
/var/folders/xk/fjkh8m297bb3lq7fwx2mh0vh0000gq/T//cch8KZiZ.s:2270   .text.rgblight_setrgb_at:0000000000000026 .Loc.507
/var/folders/xk/fjkh8m297bb3lq7fwx2mh0vh0000gq/T//cch8KZiZ.s:2272   .text.rgblight_setrgb_at:0000000000000028 L0
/var/folders/xk/fjkh8m297bb3lq7fwx2mh0vh0000gq/T//cch8KZiZ.s:2278   .text.rgblight_sethsv_at:0000000000000000 rgblight_sethsv_at
/var/folders/xk/fjkh8m297bb3lq7fwx2mh0vh0000gq/T//cch8KZiZ.s:2281   .text.rgblight_sethsv_at:0000000000000000 .Loc.508
/var/folders/xk/fjkh8m297bb3lq7fwx2mh0vh0000gq/T//cch8KZiZ.s:2282   .text.rgblight_sethsv_at:0000000000000000 L0
/var/folders/xk/fjkh8m297bb3lq7fwx2mh0vh0000gq/T//cch8KZiZ.s:2283   .text.rgblight_sethsv_at:0000000000000000 .Loc.509
/var/folders/xk/fjkh8m297bb3lq7fwx2mh0vh0000gq/T//cch8KZiZ.s:2296   .text.rgblight_sethsv_at:0000000000000008 L0
/var/folders/xk/fjkh8m297bb3lq7fwx2mh0vh0000gq/T//cch8KZiZ.s:2309   .text.rgblight_sethsv_at:0000000000000010 .Loc.510
/var/folders/xk/fjkh8m297bb3lq7fwx2mh0vh0000gq/T//cch8KZiZ.s:2310   .text.rgblight_sethsv_at:0000000000000010 .Loc.511
/var/folders/xk/fjkh8m297bb3lq7fwx2mh0vh0000gq/T//cch8KZiZ.s:2312   .text.rgblight_sethsv_at:0000000000000014 .Loc.512
/var/folders/xk/fjkh8m297bb3lq7fwx2mh0vh0000gq/T//cch8KZiZ.s:2315   .text.rgblight_sethsv_at:0000000000000018 .Loc.513
/var/folders/xk/fjkh8m297bb3lq7fwx2mh0vh0000gq/T//cch8KZiZ.s:2316   .text.rgblight_sethsv_at:0000000000000018 .Loc.514
/var/folders/xk/fjkh8m297bb3lq7fwx2mh0vh0000gq/T//cch8KZiZ.s:2319   .text.rgblight_sethsv_at:000000000000001a .Loc.515
/var/folders/xk/fjkh8m297bb3lq7fwx2mh0vh0000gq/T//cch8KZiZ.s:2324   .text.rgblight_sethsv_at:0000000000000022 .Loc.516
/var/folders/xk/fjkh8m297bb3lq7fwx2mh0vh0000gq/T//cch8KZiZ.s:2333   .text.rgblight_sethsv_at:000000000000002e .Loc.517
/var/folders/xk/fjkh8m297bb3lq7fwx2mh0vh0000gq/T//cch8KZiZ.s:2341   .text.rgblight_sethsv_at:000000000000003a .Loc.518
/var/folders/xk/fjkh8m297bb3lq7fwx2mh0vh0000gq/T//cch8KZiZ.s:2343   .text.rgblight_sethsv_at:000000000000003c L0
/var/folders/xk/fjkh8m297bb3lq7fwx2mh0vh0000gq/T//cch8KZiZ.s:2349   .text.rgblight_setrgb_range:0000000000000000 rgblight_setrgb_range
/var/folders/xk/fjkh8m297bb3lq7fwx2mh0vh0000gq/T//cch8KZiZ.s:2352   .text.rgblight_setrgb_range:0000000000000000 .Loc.519
/var/folders/xk/fjkh8m297bb3lq7fwx2mh0vh0000gq/T//cch8KZiZ.s:2353   .text.rgblight_setrgb_range:0000000000000000 L0
/var/folders/xk/fjkh8m297bb3lq7fwx2mh0vh0000gq/T//cch8KZiZ.s:2354   .text.rgblight_setrgb_range:0000000000000000 .Loc.520
/var/folders/xk/fjkh8m297bb3lq7fwx2mh0vh0000gq/T//cch8KZiZ.s:2363   .text.rgblight_setrgb_range:0000000000000002 .Loc.521
/var/folders/xk/fjkh8m297bb3lq7fwx2mh0vh0000gq/T//cch8KZiZ.s:2364   .text.rgblight_setrgb_range:0000000000000002 .Loc.522
/var/folders/xk/fjkh8m297bb3lq7fwx2mh0vh0000gq/T//cch8KZiZ.s:2366   .text.rgblight_setrgb_range:0000000000000006 .Loc.523
/var/folders/xk/fjkh8m297bb3lq7fwx2mh0vh0000gq/T//cch8KZiZ.s:2369   .text.rgblight_setrgb_range:000000000000000a .Loc.524
/var/folders/xk/fjkh8m297bb3lq7fwx2mh0vh0000gq/T//cch8KZiZ.s:2372   .text.rgblight_setrgb_range:000000000000000e .Loc.525
/var/folders/xk/fjkh8m297bb3lq7fwx2mh0vh0000gq/T//cch8KZiZ.s:2384   .text.rgblight_setrgb_range:000000000000001e .Loc.526
/var/folders/xk/fjkh8m297bb3lq7fwx2mh0vh0000gq/T//cch8KZiZ.s:2385   .text.rgblight_setrgb_range:000000000000001e .Loc.527
/var/folders/xk/fjkh8m297bb3lq7fwx2mh0vh0000gq/T//cch8KZiZ.s:2387   .text.rgblight_setrgb_range:0000000000000020 .Loc.528
/var/folders/xk/fjkh8m297bb3lq7fwx2mh0vh0000gq/T//cch8KZiZ.s:2388   .text.rgblight_setrgb_range:0000000000000020 .Loc.529
/var/folders/xk/fjkh8m297bb3lq7fwx2mh0vh0000gq/T//cch8KZiZ.s:2390   .text.rgblight_setrgb_range:0000000000000022 .Loc.530
/var/folders/xk/fjkh8m297bb3lq7fwx2mh0vh0000gq/T//cch8KZiZ.s:2391   .text.rgblight_setrgb_range:0000000000000022 .Loc.531
/var/folders/xk/fjkh8m297bb3lq7fwx2mh0vh0000gq/T//cch8KZiZ.s:2393   .text.rgblight_setrgb_range:0000000000000024 .Loc.532
/var/folders/xk/fjkh8m297bb3lq7fwx2mh0vh0000gq/T//cch8KZiZ.s:2394   .text.rgblight_setrgb_range:0000000000000024 .Loc.533
/var/folders/xk/fjkh8m297bb3lq7fwx2mh0vh0000gq/T//cch8KZiZ.s:2397   .text.rgblight_setrgb_range:0000000000000026 .Loc.534
/var/folders/xk/fjkh8m297bb3lq7fwx2mh0vh0000gq/T//cch8KZiZ.s:2399   .text.rgblight_setrgb_range:0000000000000028 .Loc.535
/var/folders/xk/fjkh8m297bb3lq7fwx2mh0vh0000gq/T//cch8KZiZ.s:2402   .text.rgblight_setrgb_range:000000000000002c .Loc.536
/var/folders/xk/fjkh8m297bb3lq7fwx2mh0vh0000gq/T//cch8KZiZ.s:2404   .text.rgblight_setrgb_range:000000000000002c .Loc.537
/var/folders/xk/fjkh8m297bb3lq7fwx2mh0vh0000gq/T//cch8KZiZ.s:2407   .text.rgblight_setrgb_range:0000000000000030 .Loc.538
/var/folders/xk/fjkh8m297bb3lq7fwx2mh0vh0000gq/T//cch8KZiZ.s:2411   .text.rgblight_setrgb_range:0000000000000030 .Loc.539
/var/folders/xk/fjkh8m297bb3lq7fwx2mh0vh0000gq/T//cch8KZiZ.s:2413   .text.rgblight_setrgb_range:0000000000000030 .Loc.540
/var/folders/xk/fjkh8m297bb3lq7fwx2mh0vh0000gq/T//cch8KZiZ.s:2414   .text.rgblight_setrgb_range:0000000000000030 .Loc.541
/var/folders/xk/fjkh8m297bb3lq7fwx2mh0vh0000gq/T//cch8KZiZ.s:2415   .text.rgblight_setrgb_range:0000000000000030 .Loc.542
/var/folders/xk/fjkh8m297bb3lq7fwx2mh0vh0000gq/T//cch8KZiZ.s:2416   .text.rgblight_setrgb_range:0000000000000030 .Loc.543
/var/folders/xk/fjkh8m297bb3lq7fwx2mh0vh0000gq/T//cch8KZiZ.s:2417   .text.rgblight_setrgb_range:0000000000000030 .Loc.544
/var/folders/xk/fjkh8m297bb3lq7fwx2mh0vh0000gq/T//cch8KZiZ.s:2418   .text.rgblight_setrgb_range:0000000000000030 .Loc.545
/var/folders/xk/fjkh8m297bb3lq7fwx2mh0vh0000gq/T//cch8KZiZ.s:2423   .text.rgblight_setrgb_range:000000000000003a L0
/var/folders/xk/fjkh8m297bb3lq7fwx2mh0vh0000gq/T//cch8KZiZ.s:2428   .text.rgblight_setrgb_range:000000000000003c .Loc.546
/var/folders/xk/fjkh8m297bb3lq7fwx2mh0vh0000gq/T//cch8KZiZ.s:2431   .text.rgblight_setrgb_range:000000000000003c .Loc.547
/var/folders/xk/fjkh8m297bb3lq7fwx2mh0vh0000gq/T//cch8KZiZ.s:2434   .text.rgblight_setrgb_range:000000000000003e .Loc.548
/var/folders/xk/fjkh8m297bb3lq7fwx2mh0vh0000gq/T//cch8KZiZ.s:2436   .text.rgblight_setrgb_range:0000000000000040 L0
/var/folders/xk/fjkh8m297bb3lq7fwx2mh0vh0000gq/T//cch8KZiZ.s:2442   .text.rgblight_sethsv_range:0000000000000000 rgblight_sethsv_range
/var/folders/xk/fjkh8m297bb3lq7fwx2mh0vh0000gq/T//cch8KZiZ.s:2445   .text.rgblight_sethsv_range:0000000000000000 .Loc.549
/var/folders/xk/fjkh8m297bb3lq7fwx2mh0vh0000gq/T//cch8KZiZ.s:2446   .text.rgblight_sethsv_range:0000000000000000 L0
/var/folders/xk/fjkh8m297bb3lq7fwx2mh0vh0000gq/T//cch8KZiZ.s:2447   .text.rgblight_sethsv_range:0000000000000000 .Loc.550
/var/folders/xk/fjkh8m297bb3lq7fwx2mh0vh0000gq/T//cch8KZiZ.s:2464   .text.rgblight_sethsv_range:000000000000000a L0
/var/folders/xk/fjkh8m297bb3lq7fwx2mh0vh0000gq/T//cch8KZiZ.s:2477   .text.rgblight_sethsv_range:0000000000000012 .Loc.551
/var/folders/xk/fjkh8m297bb3lq7fwx2mh0vh0000gq/T//cch8KZiZ.s:2478   .text.rgblight_sethsv_range:0000000000000012 .Loc.552
/var/folders/xk/fjkh8m297bb3lq7fwx2mh0vh0000gq/T//cch8KZiZ.s:2480   .text.rgblight_sethsv_range:0000000000000016 .Loc.553
/var/folders/xk/fjkh8m297bb3lq7fwx2mh0vh0000gq/T//cch8KZiZ.s:2483   .text.rgblight_sethsv_range:000000000000001a .Loc.554
/var/folders/xk/fjkh8m297bb3lq7fwx2mh0vh0000gq/T//cch8KZiZ.s:2484   .text.rgblight_sethsv_range:000000000000001a .Loc.555
/var/folders/xk/fjkh8m297bb3lq7fwx2mh0vh0000gq/T//cch8KZiZ.s:2487   .text.rgblight_sethsv_range:000000000000001c .Loc.556
/var/folders/xk/fjkh8m297bb3lq7fwx2mh0vh0000gq/T//cch8KZiZ.s:2492   .text.rgblight_sethsv_range:0000000000000024 .Loc.557
/var/folders/xk/fjkh8m297bb3lq7fwx2mh0vh0000gq/T//cch8KZiZ.s:2501   .text.rgblight_sethsv_range:0000000000000030 .Loc.558
/var/folders/xk/fjkh8m297bb3lq7fwx2mh0vh0000gq/T//cch8KZiZ.s:2509   .text.rgblight_sethsv_range:000000000000003c .Loc.559
/var/folders/xk/fjkh8m297bb3lq7fwx2mh0vh0000gq/T//cch8KZiZ.s:2512   .text.rgblight_sethsv_range:000000000000003e .Loc.560
/var/folders/xk/fjkh8m297bb3lq7fwx2mh0vh0000gq/T//cch8KZiZ.s:2514   .text.rgblight_sethsv_range:0000000000000040 L0
/var/folders/xk/fjkh8m297bb3lq7fwx2mh0vh0000gq/T//cch8KZiZ.s:2520   .text.rgblight_effect_rainbow_swirl:0000000000000000 rgblight_effect_rainbow_swirl
/var/folders/xk/fjkh8m297bb3lq7fwx2mh0vh0000gq/T//cch8KZiZ.s:2523   .text.rgblight_effect_rainbow_swirl:0000000000000000 .Loc.561
/var/folders/xk/fjkh8m297bb3lq7fwx2mh0vh0000gq/T//cch8KZiZ.s:2524   .text.rgblight_effect_rainbow_swirl:0000000000000000 L0
/var/folders/xk/fjkh8m297bb3lq7fwx2mh0vh0000gq/T//cch8KZiZ.s:2525   .text.rgblight_effect_rainbow_swirl:0000000000000000 .Loc.562
/var/folders/xk/fjkh8m297bb3lq7fwx2mh0vh0000gq/T//cch8KZiZ.s:2551   .text.rgblight_effect_rainbow_swirl:000000000000000c .Loc.563
/var/folders/xk/fjkh8m297bb3lq7fwx2mh0vh0000gq/T//cch8KZiZ.s:2552   .text.rgblight_effect_rainbow_swirl:000000000000000c .Loc.564
/var/folders/xk/fjkh8m297bb3lq7fwx2mh0vh0000gq/T//cch8KZiZ.s:2553   .text.rgblight_effect_rainbow_swirl:000000000000000c .Loc.565
/var/folders/xk/fjkh8m297bb3lq7fwx2mh0vh0000gq/T//cch8KZiZ.s:2555   .text.rgblight_effect_rainbow_swirl:000000000000000c .Loc.566
/var/folders/xk/fjkh8m297bb3lq7fwx2mh0vh0000gq/T//cch8KZiZ.s:2557   .text.rgblight_effect_rainbow_swirl:000000000000000e .Loc.567
/var/folders/xk/fjkh8m297bb3lq7fwx2mh0vh0000gq/T//cch8KZiZ.s:2563   .text.rgblight_effect_rainbow_swirl:0000000000000014 .Loc.568
/var/folders/xk/fjkh8m297bb3lq7fwx2mh0vh0000gq/T//cch8KZiZ.s:2564   .text.rgblight_effect_rainbow_swirl:0000000000000014 .Loc.569
/var/folders/xk/fjkh8m297bb3lq7fwx2mh0vh0000gq/T//cch8KZiZ.s:2566   .text.rgblight_effect_rainbow_swirl:0000000000000018 .Loc.570
/var/folders/xk/fjkh8m297bb3lq7fwx2mh0vh0000gq/T//cch8KZiZ.s:2569   .text.rgblight_effect_rainbow_swirl:000000000000001c .Loc.571
/var/folders/xk/fjkh8m297bb3lq7fwx2mh0vh0000gq/T//cch8KZiZ.s:2572   .text.rgblight_effect_rainbow_swirl:0000000000000020 .Loc.572
/var/folders/xk/fjkh8m297bb3lq7fwx2mh0vh0000gq/T//cch8KZiZ.s:2573   .text.rgblight_effect_rainbow_swirl:0000000000000020 .Loc.573
/var/folders/xk/fjkh8m297bb3lq7fwx2mh0vh0000gq/T//cch8KZiZ.s:2576   .text.rgblight_effect_rainbow_swirl:0000000000000024 .Loc.574
/var/folders/xk/fjkh8m297bb3lq7fwx2mh0vh0000gq/T//cch8KZiZ.s:2579   .text.rgblight_effect_rainbow_swirl:0000000000000028 .Loc.575
/var/folders/xk/fjkh8m297bb3lq7fwx2mh0vh0000gq/T//cch8KZiZ.s:2580   .text.rgblight_effect_rainbow_swirl:0000000000000028 .Loc.576
/var/folders/xk/fjkh8m297bb3lq7fwx2mh0vh0000gq/T//cch8KZiZ.s:2583   .text.rgblight_effect_rainbow_swirl:000000000000002a .Loc.577
/var/folders/xk/fjkh8m297bb3lq7fwx2mh0vh0000gq/T//cch8KZiZ.s:2586   .text.rgblight_effect_rainbow_swirl:000000000000002c .Loc.578
/var/folders/xk/fjkh8m297bb3lq7fwx2mh0vh0000gq/T//cch8KZiZ.s:2590   .text.rgblight_effect_rainbow_swirl:0000000000000030 .Loc.579
/var/folders/xk/fjkh8m297bb3lq7fwx2mh0vh0000gq/T//cch8KZiZ.s:2593   .text.rgblight_effect_rainbow_swirl:0000000000000032 .Loc.580
/var/folders/xk/fjkh8m297bb3lq7fwx2mh0vh0000gq/T//cch8KZiZ.s:2599   .text.rgblight_effect_rainbow_swirl:0000000000000038 .Loc.581
/var/folders/xk/fjkh8m297bb3lq7fwx2mh0vh0000gq/T//cch8KZiZ.s:2600   .text.rgblight_effect_rainbow_swirl:0000000000000038 .Loc.582
/var/folders/xk/fjkh8m297bb3lq7fwx2mh0vh0000gq/T//cch8KZiZ.s:2601   .text.rgblight_effect_rainbow_swirl:0000000000000038 .Loc.583
/var/folders/xk/fjkh8m297bb3lq7fwx2mh0vh0000gq/T//cch8KZiZ.s:2603   .text.rgblight_effect_rainbow_swirl:000000000000003c .Loc.584
/var/folders/xk/fjkh8m297bb3lq7fwx2mh0vh0000gq/T//cch8KZiZ.s:2609   .text.rgblight_effect_rainbow_swirl:0000000000000046 .Loc.585
/var/folders/xk/fjkh8m297bb3lq7fwx2mh0vh0000gq/T//cch8KZiZ.s:2617   .text.rgblight_effect_rainbow_swirl:0000000000000054 .Loc.586
/var/folders/xk/fjkh8m297bb3lq7fwx2mh0vh0000gq/T//cch8KZiZ.s:2619   .text.rgblight_effect_rainbow_swirl:0000000000000056 .Loc.587
/var/folders/xk/fjkh8m297bb3lq7fwx2mh0vh0000gq/T//cch8KZiZ.s:2623   .text.rgblight_effect_rainbow_swirl:000000000000005c .Loc.588
/var/folders/xk/fjkh8m297bb3lq7fwx2mh0vh0000gq/T//cch8KZiZ.s:2625   .text.rgblight_effect_rainbow_swirl:000000000000005e .Loc.589
/var/folders/xk/fjkh8m297bb3lq7fwx2mh0vh0000gq/T//cch8KZiZ.s:2627   .text.rgblight_effect_rainbow_swirl:0000000000000060 .Loc.590
/var/folders/xk/fjkh8m297bb3lq7fwx2mh0vh0000gq/T//cch8KZiZ.s:2635   .text.rgblight_effect_rainbow_swirl:0000000000000072 .Loc.591
/var/folders/xk/fjkh8m297bb3lq7fwx2mh0vh0000gq/T//cch8KZiZ.s:2636   .text.rgblight_effect_rainbow_swirl:0000000000000072 .Loc.592
/var/folders/xk/fjkh8m297bb3lq7fwx2mh0vh0000gq/T//cch8KZiZ.s:2639   .text.rgblight_effect_rainbow_swirl:0000000000000074 .Loc.593
/var/folders/xk/fjkh8m297bb3lq7fwx2mh0vh0000gq/T//cch8KZiZ.s:2642   .text.rgblight_effect_rainbow_swirl:0000000000000076 .Loc.594
/var/folders/xk/fjkh8m297bb3lq7fwx2mh0vh0000gq/T//cch8KZiZ.s:2643   .text.rgblight_effect_rainbow_swirl:0000000000000076 .Loc.595
/var/folders/xk/fjkh8m297bb3lq7fwx2mh0vh0000gq/T//cch8KZiZ.s:2646   .text.rgblight_effect_rainbow_swirl:000000000000007a L0
/var/folders/xk/fjkh8m297bb3lq7fwx2mh0vh0000gq/T//cch8KZiZ.s:2652   .text.rgblight_effect_snake:0000000000000000 rgblight_effect_snake
/var/folders/xk/fjkh8m297bb3lq7fwx2mh0vh0000gq/T//cch8KZiZ.s:2655   .text.rgblight_effect_snake:0000000000000000 .Loc.596
/var/folders/xk/fjkh8m297bb3lq7fwx2mh0vh0000gq/T//cch8KZiZ.s:2656   .text.rgblight_effect_snake:0000000000000000 L0
/var/folders/xk/fjkh8m297bb3lq7fwx2mh0vh0000gq/T//cch8KZiZ.s:2657   .text.rgblight_effect_snake:0000000000000000 .Loc.597
/var/folders/xk/fjkh8m297bb3lq7fwx2mh0vh0000gq/T//cch8KZiZ.s:2711   .text.rgblight_effect_snake:000000000000001a .Loc.598
/var/folders/xk/fjkh8m297bb3lq7fwx2mh0vh0000gq/T//cch8KZiZ.s:2712   .text.rgblight_effect_snake:000000000000001a .Loc.599
/var/folders/xk/fjkh8m297bb3lq7fwx2mh0vh0000gq/T//cch8KZiZ.s:2713   .text.rgblight_effect_snake:000000000000001a .Loc.600
/var/folders/xk/fjkh8m297bb3lq7fwx2mh0vh0000gq/T//cch8KZiZ.s:2714   .text.rgblight_effect_snake:000000000000001a .Loc.601
/var/folders/xk/fjkh8m297bb3lq7fwx2mh0vh0000gq/T//cch8KZiZ.s:2716   .text.rgblight_effect_snake:000000000000001a .Loc.602
/var/folders/xk/fjkh8m297bb3lq7fwx2mh0vh0000gq/T//cch8KZiZ.s:2717   .text.rgblight_effect_snake:000000000000001a .Loc.603
/var/folders/xk/fjkh8m297bb3lq7fwx2mh0vh0000gq/T//cch8KZiZ.s:2720   .text.rgblight_effect_snake:000000000000001c .Loc.604
/var/folders/xk/fjkh8m297bb3lq7fwx2mh0vh0000gq/T//cch8KZiZ.s:2723   .text.rgblight_effect_snake:0000000000000020 .Loc.605
/var/folders/xk/fjkh8m297bb3lq7fwx2mh0vh0000gq/T//cch8KZiZ.s:2726   .text.rgblight_effect_snake:0000000000000024 .Loc.606
/var/folders/xk/fjkh8m297bb3lq7fwx2mh0vh0000gq/T//cch8KZiZ.s:2731   .text.rgblight_effect_snake:0000000000000028 .Loc.607
/var/folders/xk/fjkh8m297bb3lq7fwx2mh0vh0000gq/T//cch8KZiZ.s:2732   .text.rgblight_effect_snake:0000000000000028 .Loc.608
/var/folders/xk/fjkh8m297bb3lq7fwx2mh0vh0000gq/T//cch8KZiZ.s:2736   .text.rgblight_effect_snake:000000000000002e .Loc.609
/var/folders/xk/fjkh8m297bb3lq7fwx2mh0vh0000gq/T//cch8KZiZ.s:2737   .text.rgblight_effect_snake:000000000000002e .Loc.610
/var/folders/xk/fjkh8m297bb3lq7fwx2mh0vh0000gq/T//cch8KZiZ.s:2741   .text.rgblight_effect_snake:0000000000000034 .Loc.611
/var/folders/xk/fjkh8m297bb3lq7fwx2mh0vh0000gq/T//cch8KZiZ.s:2742   .text.rgblight_effect_snake:0000000000000034 .Loc.612
/var/folders/xk/fjkh8m297bb3lq7fwx2mh0vh0000gq/T//cch8KZiZ.s:2745   .text.rgblight_effect_snake:000000000000003a .Loc.613
/var/folders/xk/fjkh8m297bb3lq7fwx2mh0vh0000gq/T//cch8KZiZ.s:5704   .bss.pos.3399:0000000000000000 pos.3399
/var/folders/xk/fjkh8m297bb3lq7fwx2mh0vh0000gq/T//cch8KZiZ.s:2748   .text.rgblight_effect_snake:000000000000003e .Loc.614
/var/folders/xk/fjkh8m297bb3lq7fwx2mh0vh0000gq/T//cch8KZiZ.s:2749   .text.rgblight_effect_snake:000000000000003e .Loc.615
/var/folders/xk/fjkh8m297bb3lq7fwx2mh0vh0000gq/T//cch8KZiZ.s:2754   .text.rgblight_effect_snake:0000000000000042 .Loc.616
/var/folders/xk/fjkh8m297bb3lq7fwx2mh0vh0000gq/T//cch8KZiZ.s:2756   .text.rgblight_effect_snake:0000000000000044 .Loc.617
/var/folders/xk/fjkh8m297bb3lq7fwx2mh0vh0000gq/T//cch8KZiZ.s:2761   .text.rgblight_effect_snake:0000000000000048 .Loc.618
/var/folders/xk/fjkh8m297bb3lq7fwx2mh0vh0000gq/T//cch8KZiZ.s:2763   .text.rgblight_effect_snake:0000000000000048 .Loc.619
/var/folders/xk/fjkh8m297bb3lq7fwx2mh0vh0000gq/T//cch8KZiZ.s:2764   .text.rgblight_effect_snake:0000000000000048 .Loc.620
/var/folders/xk/fjkh8m297bb3lq7fwx2mh0vh0000gq/T//cch8KZiZ.s:2768   .text.rgblight_effect_snake:0000000000000050 .Loc.621
/var/folders/xk/fjkh8m297bb3lq7fwx2mh0vh0000gq/T//cch8KZiZ.s:2771   .text.rgblight_effect_snake:0000000000000054 .Loc.622
/var/folders/xk/fjkh8m297bb3lq7fwx2mh0vh0000gq/T//cch8KZiZ.s:2773   .text.rgblight_effect_snake:0000000000000058 .Loc.623
/var/folders/xk/fjkh8m297bb3lq7fwx2mh0vh0000gq/T//cch8KZiZ.s:2777   .text.rgblight_effect_snake:000000000000005e .Loc.624
/var/folders/xk/fjkh8m297bb3lq7fwx2mh0vh0000gq/T//cch8KZiZ.s:2778   .text.rgblight_effect_snake:000000000000005e .Loc.625
/var/folders/xk/fjkh8m297bb3lq7fwx2mh0vh0000gq/T//cch8KZiZ.s:2781   .text.rgblight_effect_snake:0000000000000062 .Loc.626
/var/folders/xk/fjkh8m297bb3lq7fwx2mh0vh0000gq/T//cch8KZiZ.s:2782   .text.rgblight_effect_snake:0000000000000062 .Loc.627
/var/folders/xk/fjkh8m297bb3lq7fwx2mh0vh0000gq/T//cch8KZiZ.s:2785   .text.rgblight_effect_snake:0000000000000068 .Loc.628
/var/folders/xk/fjkh8m297bb3lq7fwx2mh0vh0000gq/T//cch8KZiZ.s:2787   .text.rgblight_effect_snake:000000000000006c .Loc.629
/var/folders/xk/fjkh8m297bb3lq7fwx2mh0vh0000gq/T//cch8KZiZ.s:2788   .text.rgblight_effect_snake:000000000000006c .Loc.630
/var/folders/xk/fjkh8m297bb3lq7fwx2mh0vh0000gq/T//cch8KZiZ.s:2792   .text.rgblight_effect_snake:000000000000006e .Loc.631
/var/folders/xk/fjkh8m297bb3lq7fwx2mh0vh0000gq/T//cch8KZiZ.s:2796   .text.rgblight_effect_snake:0000000000000072 .Loc.632
/var/folders/xk/fjkh8m297bb3lq7fwx2mh0vh0000gq/T//cch8KZiZ.s:2805   .text.rgblight_effect_snake:0000000000000080 .Loc.633
/var/folders/xk/fjkh8m297bb3lq7fwx2mh0vh0000gq/T//cch8KZiZ.s:2808   .text.rgblight_effect_snake:0000000000000082 .Loc.634
/var/folders/xk/fjkh8m297bb3lq7fwx2mh0vh0000gq/T//cch8KZiZ.s:2814   .text.rgblight_effect_snake:0000000000000088 .Loc.635
/var/folders/xk/fjkh8m297bb3lq7fwx2mh0vh0000gq/T//cch8KZiZ.s:2815   .text.rgblight_effect_snake:0000000000000088 .Loc.636
/var/folders/xk/fjkh8m297bb3lq7fwx2mh0vh0000gq/T//cch8KZiZ.s:2821   .text.rgblight_effect_snake:000000000000008e .Loc.637
/var/folders/xk/fjkh8m297bb3lq7fwx2mh0vh0000gq/T//cch8KZiZ.s:2822   .text.rgblight_effect_snake:000000000000008e .Loc.638
/var/folders/xk/fjkh8m297bb3lq7fwx2mh0vh0000gq/T//cch8KZiZ.s:2834   .text.rgblight_effect_snake:00000000000000a6 .Loc.639
/var/folders/xk/fjkh8m297bb3lq7fwx2mh0vh0000gq/T//cch8KZiZ.s:2838   .text.rgblight_effect_snake:00000000000000aa .Loc.640
/var/folders/xk/fjkh8m297bb3lq7fwx2mh0vh0000gq/T//cch8KZiZ.s:2839   .text.rgblight_effect_snake:00000000000000aa .Loc.641
/var/folders/xk/fjkh8m297bb3lq7fwx2mh0vh0000gq/T//cch8KZiZ.s:2842   .text.rgblight_effect_snake:00000000000000ae .Loc.642
/var/folders/xk/fjkh8m297bb3lq7fwx2mh0vh0000gq/T//cch8KZiZ.s:2843   .text.rgblight_effect_snake:00000000000000ae .Loc.643
/var/folders/xk/fjkh8m297bb3lq7fwx2mh0vh0000gq/T//cch8KZiZ.s:2845   .text.rgblight_effect_snake:00000000000000b0 .Loc.644
/var/folders/xk/fjkh8m297bb3lq7fwx2mh0vh0000gq/T//cch8KZiZ.s:2846   .text.rgblight_effect_snake:00000000000000b0 .Loc.645
/var/folders/xk/fjkh8m297bb3lq7fwx2mh0vh0000gq/T//cch8KZiZ.s:2848   .text.rgblight_effect_snake:00000000000000b2 .Loc.646
/var/folders/xk/fjkh8m297bb3lq7fwx2mh0vh0000gq/T//cch8KZiZ.s:2850   .text.rgblight_effect_snake:00000000000000b2 .Loc.647
/var/folders/xk/fjkh8m297bb3lq7fwx2mh0vh0000gq/T//cch8KZiZ.s:2851   .text.rgblight_effect_snake:00000000000000b2 .Loc.648
/var/folders/xk/fjkh8m297bb3lq7fwx2mh0vh0000gq/T//cch8KZiZ.s:2858   .text.rgblight_effect_snake:00000000000000ba .Loc.649
/var/folders/xk/fjkh8m297bb3lq7fwx2mh0vh0000gq/T//cch8KZiZ.s:2859   .text.rgblight_effect_snake:00000000000000ba .Loc.650
/var/folders/xk/fjkh8m297bb3lq7fwx2mh0vh0000gq/T//cch8KZiZ.s:2863   .text.rgblight_effect_snake:00000000000000c0 .Loc.651
/var/folders/xk/fjkh8m297bb3lq7fwx2mh0vh0000gq/T//cch8KZiZ.s:2864   .text.rgblight_effect_snake:00000000000000c0 .Loc.652
/var/folders/xk/fjkh8m297bb3lq7fwx2mh0vh0000gq/T//cch8KZiZ.s:2867   .text.rgblight_effect_snake:00000000000000c4 .Loc.653
/var/folders/xk/fjkh8m297bb3lq7fwx2mh0vh0000gq/T//cch8KZiZ.s:2868   .text.rgblight_effect_snake:00000000000000c4 .Loc.654
/var/folders/xk/fjkh8m297bb3lq7fwx2mh0vh0000gq/T//cch8KZiZ.s:2872   .text.rgblight_effect_snake:00000000000000ca .Loc.655
/var/folders/xk/fjkh8m297bb3lq7fwx2mh0vh0000gq/T//cch8KZiZ.s:2875   .text.rgblight_effect_snake:00000000000000cc .Loc.656
/var/folders/xk/fjkh8m297bb3lq7fwx2mh0vh0000gq/T//cch8KZiZ.s:2877   .text.rgblight_effect_snake:00000000000000cc .Loc.657
/var/folders/xk/fjkh8m297bb3lq7fwx2mh0vh0000gq/T//cch8KZiZ.s:2878   .text.rgblight_effect_snake:00000000000000cc .Loc.658
/var/folders/xk/fjkh8m297bb3lq7fwx2mh0vh0000gq/T//cch8KZiZ.s:2882   .text.rgblight_effect_snake:00000000000000d2 .Loc.659
/var/folders/xk/fjkh8m297bb3lq7fwx2mh0vh0000gq/T//cch8KZiZ.s:2886   .text.rgblight_effect_snake:00000000000000d8 .Loc.660
/var/folders/xk/fjkh8m297bb3lq7fwx2mh0vh0000gq/T//cch8KZiZ.s:2887   .text.rgblight_effect_snake:00000000000000d8 .Loc.661
/var/folders/xk/fjkh8m297bb3lq7fwx2mh0vh0000gq/T//cch8KZiZ.s:2890   .text.rgblight_effect_snake:00000000000000dc .Loc.662
/var/folders/xk/fjkh8m297bb3lq7fwx2mh0vh0000gq/T//cch8KZiZ.s:2896   .text.rgblight_effect_snake:00000000000000e6 .Loc.663
/var/folders/xk/fjkh8m297bb3lq7fwx2mh0vh0000gq/T//cch8KZiZ.s:2901   .text.rgblight_effect_snake:00000000000000ee .Loc.664
/var/folders/xk/fjkh8m297bb3lq7fwx2mh0vh0000gq/T//cch8KZiZ.s:2908   .text.rgblight_effect_snake:00000000000000fc .Loc.665
/var/folders/xk/fjkh8m297bb3lq7fwx2mh0vh0000gq/T//cch8KZiZ.s:2909   .text.rgblight_effect_snake:00000000000000fc .Loc.666
/var/folders/xk/fjkh8m297bb3lq7fwx2mh0vh0000gq/T//cch8KZiZ.s:2914   .text.rgblight_effect_snake:0000000000000104 .Loc.667
/var/folders/xk/fjkh8m297bb3lq7fwx2mh0vh0000gq/T//cch8KZiZ.s:2917   .text.rgblight_effect_snake:0000000000000106 .Loc.668
/var/folders/xk/fjkh8m297bb3lq7fwx2mh0vh0000gq/T//cch8KZiZ.s:2918   .text.rgblight_effect_snake:0000000000000106 .Loc.669
/var/folders/xk/fjkh8m297bb3lq7fwx2mh0vh0000gq/T//cch8KZiZ.s:2921   .text.rgblight_effect_snake:0000000000000108 .Loc.670
/var/folders/xk/fjkh8m297bb3lq7fwx2mh0vh0000gq/T//cch8KZiZ.s:2926   .text.rgblight_effect_snake:000000000000010a .Loc.671
/var/folders/xk/fjkh8m297bb3lq7fwx2mh0vh0000gq/T//cch8KZiZ.s:2927   .text.rgblight_effect_snake:000000000000010a .Loc.672
/var/folders/xk/fjkh8m297bb3lq7fwx2mh0vh0000gq/T//cch8KZiZ.s:2930   .text.rgblight_effect_snake:000000000000010e .Loc.673
/var/folders/xk/fjkh8m297bb3lq7fwx2mh0vh0000gq/T//cch8KZiZ.s:2931   .text.rgblight_effect_snake:000000000000010e .Loc.674
/var/folders/xk/fjkh8m297bb3lq7fwx2mh0vh0000gq/T//cch8KZiZ.s:2935   .text.rgblight_effect_snake:0000000000000114 .Loc.675
/var/folders/xk/fjkh8m297bb3lq7fwx2mh0vh0000gq/T//cch8KZiZ.s:2939   .text.rgblight_effect_snake:0000000000000116 .Loc.676
/var/folders/xk/fjkh8m297bb3lq7fwx2mh0vh0000gq/T//cch8KZiZ.s:2941   .text.rgblight_effect_snake:0000000000000116 .Loc.677
/var/folders/xk/fjkh8m297bb3lq7fwx2mh0vh0000gq/T//cch8KZiZ.s:2942   .text.rgblight_effect_snake:0000000000000116 .Loc.678
/var/folders/xk/fjkh8m297bb3lq7fwx2mh0vh0000gq/T//cch8KZiZ.s:2945   .text.rgblight_effect_snake:000000000000011c .Loc.679
/var/folders/xk/fjkh8m297bb3lq7fwx2mh0vh0000gq/T//cch8KZiZ.s:2946   .text.rgblight_effect_snake:000000000000011c .Loc.680
/var/folders/xk/fjkh8m297bb3lq7fwx2mh0vh0000gq/T//cch8KZiZ.s:2950   .text.rgblight_effect_snake:0000000000000120 .Loc.681
/var/folders/xk/fjkh8m297bb3lq7fwx2mh0vh0000gq/T//cch8KZiZ.s:2951   .text.rgblight_effect_snake:0000000000000120 .Loc.682
/var/folders/xk/fjkh8m297bb3lq7fwx2mh0vh0000gq/T//cch8KZiZ.s:2954   .text.rgblight_effect_snake:0000000000000124 .Loc.683
/var/folders/xk/fjkh8m297bb3lq7fwx2mh0vh0000gq/T//cch8KZiZ.s:2957   .text.rgblight_effect_snake:000000000000012a .Loc.684
/var/folders/xk/fjkh8m297bb3lq7fwx2mh0vh0000gq/T//cch8KZiZ.s:2959   .text.rgblight_effect_snake:000000000000012e .Loc.685
/var/folders/xk/fjkh8m297bb3lq7fwx2mh0vh0000gq/T//cch8KZiZ.s:2961   .text.rgblight_effect_snake:0000000000000132 .Loc.686
/var/folders/xk/fjkh8m297bb3lq7fwx2mh0vh0000gq/T//cch8KZiZ.s:2962   .text.rgblight_effect_snake:0000000000000132 .Loc.687
/var/folders/xk/fjkh8m297bb3lq7fwx2mh0vh0000gq/T//cch8KZiZ.s:2964   .text.rgblight_effect_snake:0000000000000134 .Loc.688
/var/folders/xk/fjkh8m297bb3lq7fwx2mh0vh0000gq/T//cch8KZiZ.s:2966   .text.rgblight_effect_snake:0000000000000136 L0
/var/folders/xk/fjkh8m297bb3lq7fwx2mh0vh0000gq/T//cch8KZiZ.s:2972   .text.rgblight_effect_knight:0000000000000000 rgblight_effect_knight
/var/folders/xk/fjkh8m297bb3lq7fwx2mh0vh0000gq/T//cch8KZiZ.s:2975   .text.rgblight_effect_knight:0000000000000000 .Loc.689
/var/folders/xk/fjkh8m297bb3lq7fwx2mh0vh0000gq/T//cch8KZiZ.s:2976   .text.rgblight_effect_knight:0000000000000000 L0
/var/folders/xk/fjkh8m297bb3lq7fwx2mh0vh0000gq/T//cch8KZiZ.s:2977   .text.rgblight_effect_knight:0000000000000000 .Loc.690
/var/folders/xk/fjkh8m297bb3lq7fwx2mh0vh0000gq/T//cch8KZiZ.s:3007   .text.rgblight_effect_knight:000000000000000e .Loc.691
/var/folders/xk/fjkh8m297bb3lq7fwx2mh0vh0000gq/T//cch8KZiZ.s:3008   .text.rgblight_effect_knight:000000000000000e .Loc.692
/var/folders/xk/fjkh8m297bb3lq7fwx2mh0vh0000gq/T//cch8KZiZ.s:3009   .text.rgblight_effect_knight:000000000000000e .Loc.693
/var/folders/xk/fjkh8m297bb3lq7fwx2mh0vh0000gq/T//cch8KZiZ.s:3010   .text.rgblight_effect_knight:000000000000000e .Loc.694
/var/folders/xk/fjkh8m297bb3lq7fwx2mh0vh0000gq/T//cch8KZiZ.s:3011   .text.rgblight_effect_knight:000000000000000e .Loc.695
/var/folders/xk/fjkh8m297bb3lq7fwx2mh0vh0000gq/T//cch8KZiZ.s:3012   .text.rgblight_effect_knight:000000000000000e .Loc.696
/var/folders/xk/fjkh8m297bb3lq7fwx2mh0vh0000gq/T//cch8KZiZ.s:3015   .text.rgblight_effect_knight:0000000000000010 .Loc.697
/var/folders/xk/fjkh8m297bb3lq7fwx2mh0vh0000gq/T//cch8KZiZ.s:3018   .text.rgblight_effect_knight:0000000000000014 .Loc.698
/var/folders/xk/fjkh8m297bb3lq7fwx2mh0vh0000gq/T//cch8KZiZ.s:3019   .text.rgblight_effect_knight:0000000000000014 .Loc.699
/var/folders/xk/fjkh8m297bb3lq7fwx2mh0vh0000gq/T//cch8KZiZ.s:3022   .text.rgblight_effect_knight:0000000000000018 .Loc.700
/var/folders/xk/fjkh8m297bb3lq7fwx2mh0vh0000gq/T//cch8KZiZ.s:3023   .text.rgblight_effect_knight:0000000000000018 .Loc.701
/var/folders/xk/fjkh8m297bb3lq7fwx2mh0vh0000gq/T//cch8KZiZ.s:5699   .bss.low_bound.3415:0000000000000000 low_bound.3415
/var/folders/xk/fjkh8m297bb3lq7fwx2mh0vh0000gq/T//cch8KZiZ.s:3025   .text.rgblight_effect_knight:000000000000001c .Loc.702
/var/folders/xk/fjkh8m297bb3lq7fwx2mh0vh0000gq/T//cch8KZiZ.s:3026   .text.rgblight_effect_knight:000000000000001c .Loc.703
/var/folders/xk/fjkh8m297bb3lq7fwx2mh0vh0000gq/T//cch8KZiZ.s:5694   .data.high_bound.3416:0000000000000000 high_bound.3416
/var/folders/xk/fjkh8m297bb3lq7fwx2mh0vh0000gq/T//cch8KZiZ.s:3029   .text.rgblight_effect_knight:0000000000000022 .Loc.704
/var/folders/xk/fjkh8m297bb3lq7fwx2mh0vh0000gq/T//cch8KZiZ.s:3030   .text.rgblight_effect_knight:0000000000000022 .Loc.705
/var/folders/xk/fjkh8m297bb3lq7fwx2mh0vh0000gq/T//cch8KZiZ.s:5689   .data.increment.3417:0000000000000000 increment.3417
/var/folders/xk/fjkh8m297bb3lq7fwx2mh0vh0000gq/T//cch8KZiZ.s:3033   .text.rgblight_effect_knight:0000000000000026 .Loc.706
/var/folders/xk/fjkh8m297bb3lq7fwx2mh0vh0000gq/T//cch8KZiZ.s:3034   .text.rgblight_effect_knight:0000000000000026 .Loc.707
/var/folders/xk/fjkh8m297bb3lq7fwx2mh0vh0000gq/T//cch8KZiZ.s:3037   .text.rgblight_effect_knight:000000000000002a .Loc.708
/var/folders/xk/fjkh8m297bb3lq7fwx2mh0vh0000gq/T//cch8KZiZ.s:3046   .text.rgblight_effect_knight:000000000000003a .Loc.709
/var/folders/xk/fjkh8m297bb3lq7fwx2mh0vh0000gq/T//cch8KZiZ.s:3047   .text.rgblight_effect_knight:000000000000003a .Loc.710
/var/folders/xk/fjkh8m297bb3lq7fwx2mh0vh0000gq/T//cch8KZiZ.s:3050   .text.rgblight_effect_knight:000000000000003e .Loc.711
/var/folders/xk/fjkh8m297bb3lq7fwx2mh0vh0000gq/T//cch8KZiZ.s:3052   .text.rgblight_effect_knight:0000000000000040 .Loc.712
/var/folders/xk/fjkh8m297bb3lq7fwx2mh0vh0000gq/T//cch8KZiZ.s:3056   .text.rgblight_effect_knight:0000000000000042 .Loc.713
/var/folders/xk/fjkh8m297bb3lq7fwx2mh0vh0000gq/T//cch8KZiZ.s:3057   .text.rgblight_effect_knight:0000000000000042 .Loc.714
/var/folders/xk/fjkh8m297bb3lq7fwx2mh0vh0000gq/T//cch8KZiZ.s:3059   .text.rgblight_effect_knight:0000000000000046 .Loc.715
/var/folders/xk/fjkh8m297bb3lq7fwx2mh0vh0000gq/T//cch8KZiZ.s:3062   .text.rgblight_effect_knight:000000000000004a .Loc.716
/var/folders/xk/fjkh8m297bb3lq7fwx2mh0vh0000gq/T//cch8KZiZ.s:3065   .text.rgblight_effect_knight:000000000000004e .Loc.717
/var/folders/xk/fjkh8m297bb3lq7fwx2mh0vh0000gq/T//cch8KZiZ.s:3066   .text.rgblight_effect_knight:000000000000004e .Loc.718
/var/folders/xk/fjkh8m297bb3lq7fwx2mh0vh0000gq/T//cch8KZiZ.s:3071   .text.rgblight_effect_knight:000000000000005c .Loc.719
/var/folders/xk/fjkh8m297bb3lq7fwx2mh0vh0000gq/T//cch8KZiZ.s:3072   .text.rgblight_effect_knight:000000000000005c .Loc.720
/var/folders/xk/fjkh8m297bb3lq7fwx2mh0vh0000gq/T//cch8KZiZ.s:3076   .text.rgblight_effect_knight:0000000000000066 .Loc.721
/var/folders/xk/fjkh8m297bb3lq7fwx2mh0vh0000gq/T//cch8KZiZ.s:3077   .text.rgblight_effect_knight:0000000000000066 .Loc.722
/var/folders/xk/fjkh8m297bb3lq7fwx2mh0vh0000gq/T//cch8KZiZ.s:3080   .text.rgblight_effect_knight:000000000000006a .Loc.723
/var/folders/xk/fjkh8m297bb3lq7fwx2mh0vh0000gq/T//cch8KZiZ.s:3084   .text.rgblight_effect_knight:0000000000000070 .Loc.724
/var/folders/xk/fjkh8m297bb3lq7fwx2mh0vh0000gq/T//cch8KZiZ.s:3086   .text.rgblight_effect_knight:0000000000000074 .Loc.725
/var/folders/xk/fjkh8m297bb3lq7fwx2mh0vh0000gq/T//cch8KZiZ.s:3089   .text.rgblight_effect_knight:0000000000000078 .Loc.726
/var/folders/xk/fjkh8m297bb3lq7fwx2mh0vh0000gq/T//cch8KZiZ.s:3094   .text.rgblight_effect_knight:000000000000007e .Loc.727
/var/folders/xk/fjkh8m297bb3lq7fwx2mh0vh0000gq/T//cch8KZiZ.s:3095   .text.rgblight_effect_knight:000000000000007e .Loc.728
/var/folders/xk/fjkh8m297bb3lq7fwx2mh0vh0000gq/T//cch8KZiZ.s:3098   .text.rgblight_effect_knight:0000000000000084 .Loc.729
/var/folders/xk/fjkh8m297bb3lq7fwx2mh0vh0000gq/T//cch8KZiZ.s:3099   .text.rgblight_effect_knight:0000000000000084 .Loc.730
/var/folders/xk/fjkh8m297bb3lq7fwx2mh0vh0000gq/T//cch8KZiZ.s:3102   .text.rgblight_effect_knight:0000000000000088 .Loc.731
/var/folders/xk/fjkh8m297bb3lq7fwx2mh0vh0000gq/T//cch8KZiZ.s:3103   .text.rgblight_effect_knight:0000000000000088 .Loc.732
/var/folders/xk/fjkh8m297bb3lq7fwx2mh0vh0000gq/T//cch8KZiZ.s:3107   .text.rgblight_effect_knight:000000000000008a .Loc.733
/var/folders/xk/fjkh8m297bb3lq7fwx2mh0vh0000gq/T//cch8KZiZ.s:3111   .text.rgblight_effect_knight:000000000000008e .Loc.734
/var/folders/xk/fjkh8m297bb3lq7fwx2mh0vh0000gq/T//cch8KZiZ.s:3114   .text.rgblight_effect_knight:0000000000000090 .Loc.735
/var/folders/xk/fjkh8m297bb3lq7fwx2mh0vh0000gq/T//cch8KZiZ.s:3121   .text.rgblight_effect_knight:0000000000000098 .Loc.736
/var/folders/xk/fjkh8m297bb3lq7fwx2mh0vh0000gq/T//cch8KZiZ.s:3122   .text.rgblight_effect_knight:0000000000000098 .Loc.737
/var/folders/xk/fjkh8m297bb3lq7fwx2mh0vh0000gq/T//cch8KZiZ.s:3124   .text.rgblight_effect_knight:000000000000009a .Loc.738
/var/folders/xk/fjkh8m297bb3lq7fwx2mh0vh0000gq/T//cch8KZiZ.s:3125   .text.rgblight_effect_knight:000000000000009a .Loc.739
/var/folders/xk/fjkh8m297bb3lq7fwx2mh0vh0000gq/T//cch8KZiZ.s:3127   .text.rgblight_effect_knight:000000000000009c .Loc.740
/var/folders/xk/fjkh8m297bb3lq7fwx2mh0vh0000gq/T//cch8KZiZ.s:3128   .text.rgblight_effect_knight:000000000000009c .Loc.741
/var/folders/xk/fjkh8m297bb3lq7fwx2mh0vh0000gq/T//cch8KZiZ.s:3130   .text.rgblight_effect_knight:000000000000009e .Loc.742
/var/folders/xk/fjkh8m297bb3lq7fwx2mh0vh0000gq/T//cch8KZiZ.s:3131   .text.rgblight_effect_knight:000000000000009e .Loc.743
/var/folders/xk/fjkh8m297bb3lq7fwx2mh0vh0000gq/T//cch8KZiZ.s:3134   .text.rgblight_effect_knight:00000000000000a0 .Loc.744
/var/folders/xk/fjkh8m297bb3lq7fwx2mh0vh0000gq/T//cch8KZiZ.s:3139   .text.rgblight_effect_knight:00000000000000a4 .Loc.745
/var/folders/xk/fjkh8m297bb3lq7fwx2mh0vh0000gq/T//cch8KZiZ.s:3140   .text.rgblight_effect_knight:00000000000000a4 .Loc.746
/var/folders/xk/fjkh8m297bb3lq7fwx2mh0vh0000gq/T//cch8KZiZ.s:3143   .text.rgblight_effect_knight:00000000000000a8 .Loc.747
/var/folders/xk/fjkh8m297bb3lq7fwx2mh0vh0000gq/T//cch8KZiZ.s:3145   .text.rgblight_effect_knight:00000000000000aa .Loc.748
/var/folders/xk/fjkh8m297bb3lq7fwx2mh0vh0000gq/T//cch8KZiZ.s:3148   .text.rgblight_effect_knight:00000000000000b0 .Loc.749
/var/folders/xk/fjkh8m297bb3lq7fwx2mh0vh0000gq/T//cch8KZiZ.s:3152   .text.rgblight_effect_knight:00000000000000b6 .Loc.750
/var/folders/xk/fjkh8m297bb3lq7fwx2mh0vh0000gq/T//cch8KZiZ.s:3155   .text.rgblight_effect_knight:00000000000000ba .Loc.751
/var/folders/xk/fjkh8m297bb3lq7fwx2mh0vh0000gq/T//cch8KZiZ.s:3160   .text.rgblight_effect_knight:00000000000000c4 .Loc.752
/var/folders/xk/fjkh8m297bb3lq7fwx2mh0vh0000gq/T//cch8KZiZ.s:3165   .text.rgblight_effect_knight:00000000000000ca .Loc.753
/var/folders/xk/fjkh8m297bb3lq7fwx2mh0vh0000gq/T//cch8KZiZ.s:3170   .text.rgblight_effect_knight:00000000000000d4 .Loc.754
/var/folders/xk/fjkh8m297bb3lq7fwx2mh0vh0000gq/T//cch8KZiZ.s:3174   .text.rgblight_effect_knight:00000000000000da .Loc.755
/var/folders/xk/fjkh8m297bb3lq7fwx2mh0vh0000gq/T//cch8KZiZ.s:3184   .text.rgblight_effect_knight:00000000000000f0 .Loc.756
/var/folders/xk/fjkh8m297bb3lq7fwx2mh0vh0000gq/T//cch8KZiZ.s:3188   .text.rgblight_effect_knight:00000000000000f4 .Loc.757
/var/folders/xk/fjkh8m297bb3lq7fwx2mh0vh0000gq/T//cch8KZiZ.s:3189   .text.rgblight_effect_knight:00000000000000f4 .Loc.758
/var/folders/xk/fjkh8m297bb3lq7fwx2mh0vh0000gq/T//cch8KZiZ.s:3192   .text.rgblight_effect_knight:00000000000000f6 .Loc.759
/var/folders/xk/fjkh8m297bb3lq7fwx2mh0vh0000gq/T//cch8KZiZ.s:3196   .text.rgblight_effect_knight:00000000000000f8 .Loc.760
/var/folders/xk/fjkh8m297bb3lq7fwx2mh0vh0000gq/T//cch8KZiZ.s:3197   .text.rgblight_effect_knight:00000000000000f8 .Loc.761
/var/folders/xk/fjkh8m297bb3lq7fwx2mh0vh0000gq/T//cch8KZiZ.s:3206   .text.rgblight_effect_knight:0000000000000108 .Loc.762
/var/folders/xk/fjkh8m297bb3lq7fwx2mh0vh0000gq/T//cch8KZiZ.s:3207   .text.rgblight_effect_knight:0000000000000108 .Loc.763
/var/folders/xk/fjkh8m297bb3lq7fwx2mh0vh0000gq/T//cch8KZiZ.s:3209   .text.rgblight_effect_knight:000000000000010a .Loc.764
/var/folders/xk/fjkh8m297bb3lq7fwx2mh0vh0000gq/T//cch8KZiZ.s:3210   .text.rgblight_effect_knight:000000000000010a .Loc.765
/var/folders/xk/fjkh8m297bb3lq7fwx2mh0vh0000gq/T//cch8KZiZ.s:3213   .text.rgblight_effect_knight:000000000000010e L0
/var/folders/xk/fjkh8m297bb3lq7fwx2mh0vh0000gq/T//cch8KZiZ.s:3219   .text.rgblight_effect_christmas:0000000000000000 rgblight_effect_christmas
/var/folders/xk/fjkh8m297bb3lq7fwx2mh0vh0000gq/T//cch8KZiZ.s:3222   .text.rgblight_effect_christmas:0000000000000000 .Loc.766
/var/folders/xk/fjkh8m297bb3lq7fwx2mh0vh0000gq/T//cch8KZiZ.s:3223   .text.rgblight_effect_christmas:0000000000000000 L0
/var/folders/xk/fjkh8m297bb3lq7fwx2mh0vh0000gq/T//cch8KZiZ.s:3224   .text.rgblight_effect_christmas:0000000000000000 .Loc.767
/var/folders/xk/fjkh8m297bb3lq7fwx2mh0vh0000gq/T//cch8KZiZ.s:3278   .text.rgblight_effect_christmas:000000000000001a .Loc.768
/var/folders/xk/fjkh8m297bb3lq7fwx2mh0vh0000gq/T//cch8KZiZ.s:3279   .text.rgblight_effect_christmas:000000000000001a .Loc.769
/var/folders/xk/fjkh8m297bb3lq7fwx2mh0vh0000gq/T//cch8KZiZ.s:3281   .text.rgblight_effect_christmas:000000000000001a .Loc.770
/var/folders/xk/fjkh8m297bb3lq7fwx2mh0vh0000gq/T//cch8KZiZ.s:3282   .text.rgblight_effect_christmas:000000000000001a .Loc.771
/var/folders/xk/fjkh8m297bb3lq7fwx2mh0vh0000gq/T//cch8KZiZ.s:3283   .text.rgblight_effect_christmas:000000000000001a .Loc.772
/var/folders/xk/fjkh8m297bb3lq7fwx2mh0vh0000gq/T//cch8KZiZ.s:3284   .text.rgblight_effect_christmas:000000000000001a .Loc.773
/var/folders/xk/fjkh8m297bb3lq7fwx2mh0vh0000gq/T//cch8KZiZ.s:3285   .text.rgblight_effect_christmas:000000000000001a .Loc.774
/var/folders/xk/fjkh8m297bb3lq7fwx2mh0vh0000gq/T//cch8KZiZ.s:3286   .text.rgblight_effect_christmas:000000000000001a .Loc.775
/var/folders/xk/fjkh8m297bb3lq7fwx2mh0vh0000gq/T//cch8KZiZ.s:3293   .text.rgblight_effect_christmas:0000000000000028 .Loc.776
/var/folders/xk/fjkh8m297bb3lq7fwx2mh0vh0000gq/T//cch8KZiZ.s:3300   .text.rgblight_effect_christmas:0000000000000034 .Loc.777
/var/folders/xk/fjkh8m297bb3lq7fwx2mh0vh0000gq/T//cch8KZiZ.s:3301   .text.rgblight_effect_christmas:0000000000000034 .Loc.778
/var/folders/xk/fjkh8m297bb3lq7fwx2mh0vh0000gq/T//cch8KZiZ.s:3306   .text.rgblight_effect_christmas:000000000000003c .Loc.779
/var/folders/xk/fjkh8m297bb3lq7fwx2mh0vh0000gq/T//cch8KZiZ.s:3314   .text.rgblight_effect_christmas:000000000000004c .Loc.780
/var/folders/xk/fjkh8m297bb3lq7fwx2mh0vh0000gq/T//cch8KZiZ.s:3321   .text.rgblight_effect_christmas:000000000000005c .Loc.781
/var/folders/xk/fjkh8m297bb3lq7fwx2mh0vh0000gq/T//cch8KZiZ.s:3328   .text.rgblight_effect_christmas:0000000000000068 .Loc.782
/var/folders/xk/fjkh8m297bb3lq7fwx2mh0vh0000gq/T//cch8KZiZ.s:3331   .text.rgblight_effect_christmas:000000000000006a .Loc.783
/var/folders/xk/fjkh8m297bb3lq7fwx2mh0vh0000gq/T//cch8KZiZ.s:3334   .text.rgblight_effect_christmas:0000000000000070 .Loc.784
/var/folders/xk/fjkh8m297bb3lq7fwx2mh0vh0000gq/T//cch8KZiZ.s:3337   .text.rgblight_effect_christmas:0000000000000072 .Loc.785
/var/folders/xk/fjkh8m297bb3lq7fwx2mh0vh0000gq/T//cch8KZiZ.s:3340   .text.rgblight_effect_christmas:0000000000000076 .Loc.786
/var/folders/xk/fjkh8m297bb3lq7fwx2mh0vh0000gq/T//cch8KZiZ.s:3345   .text.rgblight_effect_christmas:000000000000007c .Loc.787
/var/folders/xk/fjkh8m297bb3lq7fwx2mh0vh0000gq/T//cch8KZiZ.s:3351   .text.rgblight_effect_christmas:0000000000000084 .Loc.788
/var/folders/xk/fjkh8m297bb3lq7fwx2mh0vh0000gq/T//cch8KZiZ.s:3354   .text.rgblight_effect_christmas:0000000000000088 .Loc.789
/var/folders/xk/fjkh8m297bb3lq7fwx2mh0vh0000gq/T//cch8KZiZ.s:3358   .text.rgblight_effect_christmas:000000000000008c .Loc.790
/var/folders/xk/fjkh8m297bb3lq7fwx2mh0vh0000gq/T//cch8KZiZ.s:3359   .text.rgblight_effect_christmas:000000000000008c .Loc.791
/var/folders/xk/fjkh8m297bb3lq7fwx2mh0vh0000gq/T//cch8KZiZ.s:3362   .text.rgblight_effect_christmas:000000000000008e .Loc.792
/var/folders/xk/fjkh8m297bb3lq7fwx2mh0vh0000gq/T//cch8KZiZ.s:3368   .text.rgblight_effect_christmas:0000000000000094 .Loc.793
/var/folders/xk/fjkh8m297bb3lq7fwx2mh0vh0000gq/T//cch8KZiZ.s:3370   .text.rgblight_effect_christmas:0000000000000094 .Loc.794
/var/folders/xk/fjkh8m297bb3lq7fwx2mh0vh0000gq/T//cch8KZiZ.s:3371   .text.rgblight_effect_christmas:0000000000000094 .Loc.795
/var/folders/xk/fjkh8m297bb3lq7fwx2mh0vh0000gq/T//cch8KZiZ.s:3375   .text.rgblight_effect_christmas:000000000000009c .Loc.796
/var/folders/xk/fjkh8m297bb3lq7fwx2mh0vh0000gq/T//cch8KZiZ.s:3378   .text.rgblight_effect_christmas:00000000000000a0 .Loc.797
/var/folders/xk/fjkh8m297bb3lq7fwx2mh0vh0000gq/T//cch8KZiZ.s:3379   .text.rgblight_effect_christmas:00000000000000a0 .Loc.798
/var/folders/xk/fjkh8m297bb3lq7fwx2mh0vh0000gq/T//cch8KZiZ.s:3381   .text.rgblight_effect_christmas:00000000000000a2 .Loc.799
/var/folders/xk/fjkh8m297bb3lq7fwx2mh0vh0000gq/T//cch8KZiZ.s:3383   .text.rgblight_effect_christmas:00000000000000a4 .Loc.800
/var/folders/xk/fjkh8m297bb3lq7fwx2mh0vh0000gq/T//cch8KZiZ.s:3386   .text.rgblight_effect_christmas:00000000000000a8 .Loc.801
/var/folders/xk/fjkh8m297bb3lq7fwx2mh0vh0000gq/T//cch8KZiZ.s:3387   .text.rgblight_effect_christmas:00000000000000a8 .Loc.802
/var/folders/xk/fjkh8m297bb3lq7fwx2mh0vh0000gq/T//cch8KZiZ.s:3390   .text.rgblight_effect_christmas:00000000000000ac .Loc.803
/var/folders/xk/fjkh8m297bb3lq7fwx2mh0vh0000gq/T//cch8KZiZ.s:3391   .text.rgblight_effect_christmas:00000000000000ac .Loc.804
/var/folders/xk/fjkh8m297bb3lq7fwx2mh0vh0000gq/T//cch8KZiZ.s:5684   .data.increment.3429:0000000000000000 increment.3429
/var/folders/xk/fjkh8m297bb3lq7fwx2mh0vh0000gq/T//cch8KZiZ.s:3396   .text.rgblight_effect_christmas:00000000000000b2 .Loc.805
/var/folders/xk/fjkh8m297bb3lq7fwx2mh0vh0000gq/T//cch8KZiZ.s:3397   .text.rgblight_effect_christmas:00000000000000b2 .Loc.806
/var/folders/xk/fjkh8m297bb3lq7fwx2mh0vh0000gq/T//cch8KZiZ.s:3402   .text.rgblight_effect_christmas:00000000000000ba .Loc.807
/var/folders/xk/fjkh8m297bb3lq7fwx2mh0vh0000gq/T//cch8KZiZ.s:3407   .text.rgblight_effect_christmas:00000000000000c0 .Loc.808
/var/folders/xk/fjkh8m297bb3lq7fwx2mh0vh0000gq/T//cch8KZiZ.s:3410   .text.rgblight_effect_christmas:00000000000000c2 .Loc.809
/var/folders/xk/fjkh8m297bb3lq7fwx2mh0vh0000gq/T//cch8KZiZ.s:3413   .text.rgblight_effect_christmas:00000000000000c4 .Loc.810
/var/folders/xk/fjkh8m297bb3lq7fwx2mh0vh0000gq/T//cch8KZiZ.s:3420   .text.rgblight_effect_christmas:00000000000000ce .Loc.811
/var/folders/xk/fjkh8m297bb3lq7fwx2mh0vh0000gq/T//cch8KZiZ.s:3424   .text.rgblight_effect_christmas:00000000000000d2 .Loc.812
/var/folders/xk/fjkh8m297bb3lq7fwx2mh0vh0000gq/T//cch8KZiZ.s:3428   .text.rgblight_effect_christmas:00000000000000d4 .Loc.813
/var/folders/xk/fjkh8m297bb3lq7fwx2mh0vh0000gq/T//cch8KZiZ.s:3434   .text.rgblight_effect_christmas:00000000000000de .Loc.814
/var/folders/xk/fjkh8m297bb3lq7fwx2mh0vh0000gq/T//cch8KZiZ.s:3440   .text.rgblight_effect_christmas:00000000000000e8 .Loc.815
/var/folders/xk/fjkh8m297bb3lq7fwx2mh0vh0000gq/T//cch8KZiZ.s:3449   .text.rgblight_effect_christmas:00000000000000f2 .Loc.816
/var/folders/xk/fjkh8m297bb3lq7fwx2mh0vh0000gq/T//cch8KZiZ.s:3450   .text.rgblight_effect_christmas:00000000000000f2 .Loc.817
/var/folders/xk/fjkh8m297bb3lq7fwx2mh0vh0000gq/T//cch8KZiZ.s:3454   .text.rgblight_effect_christmas:00000000000000f6 .Loc.818
/var/folders/xk/fjkh8m297bb3lq7fwx2mh0vh0000gq/T//cch8KZiZ.s:3459   .text.rgblight_effect_christmas:00000000000000f8 .Loc.819
/var/folders/xk/fjkh8m297bb3lq7fwx2mh0vh0000gq/T//cch8KZiZ.s:3460   .text.rgblight_effect_christmas:00000000000000f8 .Loc.820
/var/folders/xk/fjkh8m297bb3lq7fwx2mh0vh0000gq/T//cch8KZiZ.s:3462   .text.rgblight_effect_christmas:00000000000000fc .Loc.821
/var/folders/xk/fjkh8m297bb3lq7fwx2mh0vh0000gq/T//cch8KZiZ.s:3467   .text.rgblight_effect_christmas:0000000000000104 .Loc.822
/var/folders/xk/fjkh8m297bb3lq7fwx2mh0vh0000gq/T//cch8KZiZ.s:3479   .text.rgblight_effect_christmas:000000000000011c .Loc.823
/var/folders/xk/fjkh8m297bb3lq7fwx2mh0vh0000gq/T//cch8KZiZ.s:3481   .text.rgblight_effect_christmas:000000000000011c .Loc.824
/var/folders/xk/fjkh8m297bb3lq7fwx2mh0vh0000gq/T//cch8KZiZ.s:3482   .text.rgblight_effect_christmas:000000000000011c .Loc.825
/var/folders/xk/fjkh8m297bb3lq7fwx2mh0vh0000gq/T//cch8KZiZ.s:3485   .text.rgblight_effect_christmas:000000000000011e .Loc.826
/var/folders/xk/fjkh8m297bb3lq7fwx2mh0vh0000gq/T//cch8KZiZ.s:3487   .text.rgblight_effect_christmas:0000000000000120 L0
/var/folders/xk/fjkh8m297bb3lq7fwx2mh0vh0000gq/T//cch8KZiZ.s:3493   .text.rgblight_effect_alternating:0000000000000000 rgblight_effect_alternating
/var/folders/xk/fjkh8m297bb3lq7fwx2mh0vh0000gq/T//cch8KZiZ.s:3496   .text.rgblight_effect_alternating:0000000000000000 .Loc.827
/var/folders/xk/fjkh8m297bb3lq7fwx2mh0vh0000gq/T//cch8KZiZ.s:3497   .text.rgblight_effect_alternating:0000000000000000 L0
/var/folders/xk/fjkh8m297bb3lq7fwx2mh0vh0000gq/T//cch8KZiZ.s:3498   .text.rgblight_effect_alternating:0000000000000000 .Loc.828
/var/folders/xk/fjkh8m297bb3lq7fwx2mh0vh0000gq/T//cch8KZiZ.s:3520   .text.rgblight_effect_alternating:000000000000000a .Loc.829
/var/folders/xk/fjkh8m297bb3lq7fwx2mh0vh0000gq/T//cch8KZiZ.s:3522   .text.rgblight_effect_alternating:000000000000000a .Loc.830
/var/folders/xk/fjkh8m297bb3lq7fwx2mh0vh0000gq/T//cch8KZiZ.s:3524   .text.rgblight_effect_alternating:000000000000000a .Loc.831
/var/folders/xk/fjkh8m297bb3lq7fwx2mh0vh0000gq/T//cch8KZiZ.s:3529   .text.rgblight_effect_alternating:000000000000000e .Loc.832
/var/folders/xk/fjkh8m297bb3lq7fwx2mh0vh0000gq/T//cch8KZiZ.s:3530   .text.rgblight_effect_alternating:000000000000000e .Loc.833
/var/folders/xk/fjkh8m297bb3lq7fwx2mh0vh0000gq/T//cch8KZiZ.s:3532   .text.rgblight_effect_alternating:0000000000000012 .Loc.834
/var/folders/xk/fjkh8m297bb3lq7fwx2mh0vh0000gq/T//cch8KZiZ.s:3535   .text.rgblight_effect_alternating:0000000000000018 L0
/var/folders/xk/fjkh8m297bb3lq7fwx2mh0vh0000gq/T//cch8KZiZ.s:3538   .text.rgblight_effect_alternating:000000000000001a .Loc.835
/var/folders/xk/fjkh8m297bb3lq7fwx2mh0vh0000gq/T//cch8KZiZ.s:3541   .text.rgblight_effect_alternating:000000000000001e .Loc.836
/var/folders/xk/fjkh8m297bb3lq7fwx2mh0vh0000gq/T//cch8KZiZ.s:3542   .text.rgblight_effect_alternating:000000000000001e .Loc.837
/var/folders/xk/fjkh8m297bb3lq7fwx2mh0vh0000gq/T//cch8KZiZ.s:3545   .text.rgblight_effect_alternating:0000000000000022 .Loc.838
/var/folders/xk/fjkh8m297bb3lq7fwx2mh0vh0000gq/T//cch8KZiZ.s:3547   .text.rgblight_effect_alternating:0000000000000024 .Loc.839
/var/folders/xk/fjkh8m297bb3lq7fwx2mh0vh0000gq/T//cch8KZiZ.s:3550   .text.rgblight_effect_alternating:0000000000000028 .Loc.840
/var/folders/xk/fjkh8m297bb3lq7fwx2mh0vh0000gq/T//cch8KZiZ.s:3553   .text.rgblight_effect_alternating:000000000000002a .Loc.841
/var/folders/xk/fjkh8m297bb3lq7fwx2mh0vh0000gq/T//cch8KZiZ.s:3557   .text.rgblight_effect_alternating:000000000000002e .Loc.842
/var/folders/xk/fjkh8m297bb3lq7fwx2mh0vh0000gq/T//cch8KZiZ.s:3561   .text.rgblight_effect_alternating:0000000000000032 .Loc.843
/var/folders/xk/fjkh8m297bb3lq7fwx2mh0vh0000gq/T//cch8KZiZ.s:3567   .text.rgblight_effect_alternating:0000000000000034 .Loc.844
/var/folders/xk/fjkh8m297bb3lq7fwx2mh0vh0000gq/T//cch8KZiZ.s:3568   .text.rgblight_effect_alternating:0000000000000034 .Loc.845
/var/folders/xk/fjkh8m297bb3lq7fwx2mh0vh0000gq/T//cch8KZiZ.s:3578   .text.rgblight_effect_alternating:0000000000000048 .Loc.846
/var/folders/xk/fjkh8m297bb3lq7fwx2mh0vh0000gq/T//cch8KZiZ.s:3582   .text.rgblight_effect_alternating:000000000000004c .Loc.847
/var/folders/xk/fjkh8m297bb3lq7fwx2mh0vh0000gq/T//cch8KZiZ.s:3586   .text.rgblight_effect_alternating:0000000000000056 .Loc.848
/var/folders/xk/fjkh8m297bb3lq7fwx2mh0vh0000gq/T//cch8KZiZ.s:3588   .text.rgblight_effect_alternating:0000000000000058 .Loc.849
/var/folders/xk/fjkh8m297bb3lq7fwx2mh0vh0000gq/T//cch8KZiZ.s:3593   .text.rgblight_effect_alternating:0000000000000060 .Loc.850
/var/folders/xk/fjkh8m297bb3lq7fwx2mh0vh0000gq/T//cch8KZiZ.s:3597   .text.rgblight_effect_alternating:0000000000000064 .Loc.851
/var/folders/xk/fjkh8m297bb3lq7fwx2mh0vh0000gq/T//cch8KZiZ.s:3600   .text.rgblight_effect_alternating:0000000000000068 .Loc.852
/var/folders/xk/fjkh8m297bb3lq7fwx2mh0vh0000gq/T//cch8KZiZ.s:3603   .text.rgblight_effect_alternating:000000000000006c .Loc.853
/var/folders/xk/fjkh8m297bb3lq7fwx2mh0vh0000gq/T//cch8KZiZ.s:3605   .text.rgblight_effect_alternating:000000000000006c .Loc.854
/var/folders/xk/fjkh8m297bb3lq7fwx2mh0vh0000gq/T//cch8KZiZ.s:3606   .text.rgblight_effect_alternating:000000000000006c .Loc.855
/var/folders/xk/fjkh8m297bb3lq7fwx2mh0vh0000gq/T//cch8KZiZ.s:3610   .text.rgblight_effect_alternating:0000000000000070 .Loc.856
/var/folders/xk/fjkh8m297bb3lq7fwx2mh0vh0000gq/T//cch8KZiZ.s:3615   .text.rgblight_effect_alternating:0000000000000072 .Loc.857
/var/folders/xk/fjkh8m297bb3lq7fwx2mh0vh0000gq/T//cch8KZiZ.s:3616   .text.rgblight_effect_alternating:0000000000000072 .Loc.858
/var/folders/xk/fjkh8m297bb3lq7fwx2mh0vh0000gq/T//cch8KZiZ.s:3620   .text.rgblight_effect_alternating:0000000000000076 .Loc.859
/var/folders/xk/fjkh8m297bb3lq7fwx2mh0vh0000gq/T//cch8KZiZ.s:3625   .text.rgblight_effect_alternating:000000000000007a L0
/var/folders/xk/fjkh8m297bb3lq7fwx2mh0vh0000gq/T//cch8KZiZ.s:3631   .text.rgblight_effect_twinkle:0000000000000000 rgblight_effect_twinkle
/var/folders/xk/fjkh8m297bb3lq7fwx2mh0vh0000gq/T//cch8KZiZ.s:3634   .text.rgblight_effect_twinkle:0000000000000000 .Loc.860
/var/folders/xk/fjkh8m297bb3lq7fwx2mh0vh0000gq/T//cch8KZiZ.s:3635   .text.rgblight_effect_twinkle:0000000000000000 L0
/var/folders/xk/fjkh8m297bb3lq7fwx2mh0vh0000gq/T//cch8KZiZ.s:3636   .text.rgblight_effect_twinkle:0000000000000000 .Loc.861
/var/folders/xk/fjkh8m297bb3lq7fwx2mh0vh0000gq/T//cch8KZiZ.s:3690   .text.rgblight_effect_twinkle:000000000000001a .Loc.862
/var/folders/xk/fjkh8m297bb3lq7fwx2mh0vh0000gq/T//cch8KZiZ.s:3691   .text.rgblight_effect_twinkle:000000000000001a .Loc.863
/var/folders/xk/fjkh8m297bb3lq7fwx2mh0vh0000gq/T//cch8KZiZ.s:3694   .text.rgblight_effect_twinkle:000000000000001c .Loc.864
/var/folders/xk/fjkh8m297bb3lq7fwx2mh0vh0000gq/T//cch8KZiZ.s:3695   .text.rgblight_effect_twinkle:000000000000001c .Loc.865
/var/folders/xk/fjkh8m297bb3lq7fwx2mh0vh0000gq/T//cch8KZiZ.s:3698   .text.rgblight_effect_twinkle:000000000000001e .Loc.866
/var/folders/xk/fjkh8m297bb3lq7fwx2mh0vh0000gq/T//cch8KZiZ.s:3699   .text.rgblight_effect_twinkle:000000000000001e .Loc.867
/var/folders/xk/fjkh8m297bb3lq7fwx2mh0vh0000gq/T//cch8KZiZ.s:3702   .text.rgblight_effect_twinkle:0000000000000020 .Loc.868
/var/folders/xk/fjkh8m297bb3lq7fwx2mh0vh0000gq/T//cch8KZiZ.s:3704   .text.rgblight_effect_twinkle:0000000000000022 .Loc.869
/var/folders/xk/fjkh8m297bb3lq7fwx2mh0vh0000gq/T//cch8KZiZ.s:3706   .text.rgblight_effect_twinkle:0000000000000022 .Loc.870
/var/folders/xk/fjkh8m297bb3lq7fwx2mh0vh0000gq/T//cch8KZiZ.s:3708   .text.rgblight_effect_twinkle:0000000000000022 .Loc.871
/var/folders/xk/fjkh8m297bb3lq7fwx2mh0vh0000gq/T//cch8KZiZ.s:3711   .text.rgblight_effect_twinkle:0000000000000024 .Loc.872
/var/folders/xk/fjkh8m297bb3lq7fwx2mh0vh0000gq/T//cch8KZiZ.s:3713   .text.rgblight_effect_twinkle:0000000000000026 .Loc.873
/var/folders/xk/fjkh8m297bb3lq7fwx2mh0vh0000gq/T//cch8KZiZ.s:3716   .text.rgblight_effect_twinkle:000000000000002a .Loc.874
/var/folders/xk/fjkh8m297bb3lq7fwx2mh0vh0000gq/T//cch8KZiZ.s:3719   .text.rgblight_effect_twinkle:000000000000002e .Loc.875
/var/folders/xk/fjkh8m297bb3lq7fwx2mh0vh0000gq/T//cch8KZiZ.s:3724   .text.rgblight_effect_twinkle:0000000000000034 .Loc.876
/var/folders/xk/fjkh8m297bb3lq7fwx2mh0vh0000gq/T//cch8KZiZ.s:3730   .text.rgblight_effect_twinkle:000000000000003a .Loc.877
/var/folders/xk/fjkh8m297bb3lq7fwx2mh0vh0000gq/T//cch8KZiZ.s:3733   .text.rgblight_effect_twinkle:000000000000003a .Loc.878
/var/folders/xk/fjkh8m297bb3lq7fwx2mh0vh0000gq/T//cch8KZiZ.s:3734   .text.rgblight_effect_twinkle:000000000000003a .Loc.879
/var/folders/xk/fjkh8m297bb3lq7fwx2mh0vh0000gq/T//cch8KZiZ.s:3739   .text.rgblight_effect_twinkle:0000000000000042 .Loc.880
/var/folders/xk/fjkh8m297bb3lq7fwx2mh0vh0000gq/T//cch8KZiZ.s:3741   .text.rgblight_effect_twinkle:0000000000000042 .Loc.881
/var/folders/xk/fjkh8m297bb3lq7fwx2mh0vh0000gq/T//cch8KZiZ.s:3747   .text.rgblight_effect_twinkle:000000000000004a .Loc.882
/var/folders/xk/fjkh8m297bb3lq7fwx2mh0vh0000gq/T//cch8KZiZ.s:3754   .text.rgblight_effect_twinkle:0000000000000054 .Loc.883
/var/folders/xk/fjkh8m297bb3lq7fwx2mh0vh0000gq/T//cch8KZiZ.s:3758   .text.rgblight_effect_twinkle:0000000000000058 .Loc.884
/var/folders/xk/fjkh8m297bb3lq7fwx2mh0vh0000gq/T//cch8KZiZ.s:3760   .text.rgblight_effect_twinkle:000000000000005a .Loc.885
/var/folders/xk/fjkh8m297bb3lq7fwx2mh0vh0000gq/T//cch8KZiZ.s:3766   .text.rgblight_effect_twinkle:000000000000005e .Loc.886
/var/folders/xk/fjkh8m297bb3lq7fwx2mh0vh0000gq/T//cch8KZiZ.s:3767   .text.rgblight_effect_twinkle:000000000000005e .Loc.887
/var/folders/xk/fjkh8m297bb3lq7fwx2mh0vh0000gq/T//cch8KZiZ.s:3771   .text.rgblight_effect_twinkle:0000000000000062 .Loc.888
/var/folders/xk/fjkh8m297bb3lq7fwx2mh0vh0000gq/T//cch8KZiZ.s:3772   .text.rgblight_effect_twinkle:0000000000000062 .Loc.889
/var/folders/xk/fjkh8m297bb3lq7fwx2mh0vh0000gq/T//cch8KZiZ.s:3773   .text.rgblight_effect_twinkle:0000000000000062 .Loc.890
/var/folders/xk/fjkh8m297bb3lq7fwx2mh0vh0000gq/T//cch8KZiZ.s:5719   .bss.led_twinkle_state:0000000000000000 led_twinkle_state
/var/folders/xk/fjkh8m297bb3lq7fwx2mh0vh0000gq/T//cch8KZiZ.s:3781   .text.rgblight_effect_twinkle:0000000000000070 .Loc.891
/var/folders/xk/fjkh8m297bb3lq7fwx2mh0vh0000gq/T//cch8KZiZ.s:3784   .text.rgblight_effect_twinkle:0000000000000074 .Loc.892
/var/folders/xk/fjkh8m297bb3lq7fwx2mh0vh0000gq/T//cch8KZiZ.s:3785   .text.rgblight_effect_twinkle:0000000000000074 .Loc.893
/var/folders/xk/fjkh8m297bb3lq7fwx2mh0vh0000gq/T//cch8KZiZ.s:3787   .text.rgblight_effect_twinkle:0000000000000076 .Loc.894
/var/folders/xk/fjkh8m297bb3lq7fwx2mh0vh0000gq/T//cch8KZiZ.s:3788   .text.rgblight_effect_twinkle:0000000000000076 .Loc.895
/var/folders/xk/fjkh8m297bb3lq7fwx2mh0vh0000gq/T//cch8KZiZ.s:3791   .text.rgblight_effect_twinkle:0000000000000078 .Loc.896
/var/folders/xk/fjkh8m297bb3lq7fwx2mh0vh0000gq/T//cch8KZiZ.s:3792   .text.rgblight_effect_twinkle:0000000000000078 .Loc.897
/var/folders/xk/fjkh8m297bb3lq7fwx2mh0vh0000gq/T//cch8KZiZ.s:3794   .text.rgblight_effect_twinkle:0000000000000078 .Loc.898
/var/folders/xk/fjkh8m297bb3lq7fwx2mh0vh0000gq/T//cch8KZiZ.s:3795   .text.rgblight_effect_twinkle:0000000000000078 .Loc.899
/var/folders/xk/fjkh8m297bb3lq7fwx2mh0vh0000gq/T//cch8KZiZ.s:3805   .text.rgblight_effect_twinkle:000000000000008c .Loc.900
/var/folders/xk/fjkh8m297bb3lq7fwx2mh0vh0000gq/T//cch8KZiZ.s:3808   .text.rgblight_effect_twinkle:0000000000000090 .Loc.901
/var/folders/xk/fjkh8m297bb3lq7fwx2mh0vh0000gq/T//cch8KZiZ.s:3821   .text.rgblight_effect_twinkle:00000000000000a8 .Loc.902
/var/folders/xk/fjkh8m297bb3lq7fwx2mh0vh0000gq/T//cch8KZiZ.s:3823   .text.rgblight_effect_twinkle:00000000000000a8 .Loc.903
/var/folders/xk/fjkh8m297bb3lq7fwx2mh0vh0000gq/T//cch8KZiZ.s:3824   .text.rgblight_effect_twinkle:00000000000000a8 .Loc.904
/var/folders/xk/fjkh8m297bb3lq7fwx2mh0vh0000gq/T//cch8KZiZ.s:3827   .text.rgblight_effect_twinkle:00000000000000aa .Loc.905
/var/folders/xk/fjkh8m297bb3lq7fwx2mh0vh0000gq/T//cch8KZiZ.s:3831   .text.rgblight_effect_twinkle:00000000000000ac .Loc.906
/var/folders/xk/fjkh8m297bb3lq7fwx2mh0vh0000gq/T//cch8KZiZ.s:3832   .text.rgblight_effect_twinkle:00000000000000ac .Loc.907
/var/folders/xk/fjkh8m297bb3lq7fwx2mh0vh0000gq/T//cch8KZiZ.s:3834   .text.rgblight_effect_twinkle:00000000000000ae .Loc.908
/var/folders/xk/fjkh8m297bb3lq7fwx2mh0vh0000gq/T//cch8KZiZ.s:3838   .text.rgblight_effect_twinkle:00000000000000b2 .Loc.909
/var/folders/xk/fjkh8m297bb3lq7fwx2mh0vh0000gq/T//cch8KZiZ.s:3839   .text.rgblight_effect_twinkle:00000000000000b2 .Loc.910
/var/folders/xk/fjkh8m297bb3lq7fwx2mh0vh0000gq/T//cch8KZiZ.s:3842   .text.rgblight_effect_twinkle:00000000000000b6 .Loc.911
/var/folders/xk/fjkh8m297bb3lq7fwx2mh0vh0000gq/T//cch8KZiZ.s:3843   .text.rgblight_effect_twinkle:00000000000000b6 .Loc.912
/var/folders/xk/fjkh8m297bb3lq7fwx2mh0vh0000gq/T//cch8KZiZ.s:3845   .text.rgblight_effect_twinkle:00000000000000b8 .Loc.913
/var/folders/xk/fjkh8m297bb3lq7fwx2mh0vh0000gq/T//cch8KZiZ.s:3853   .text.rgblight_effect_twinkle:00000000000000c2 .Loc.914
/var/folders/xk/fjkh8m297bb3lq7fwx2mh0vh0000gq/T//cch8KZiZ.s:3854   .text.rgblight_effect_twinkle:00000000000000c2 .Loc.915
/var/folders/xk/fjkh8m297bb3lq7fwx2mh0vh0000gq/T//cch8KZiZ.s:3862   .text.rgblight_effect_twinkle:00000000000000d0 .Loc.916
/var/folders/xk/fjkh8m297bb3lq7fwx2mh0vh0000gq/T//cch8KZiZ.s:3868   .text.rgblight_effect_twinkle:00000000000000da .Loc.917
/var/folders/xk/fjkh8m297bb3lq7fwx2mh0vh0000gq/T//cch8KZiZ.s:3871   .text.rgblight_effect_twinkle:00000000000000e0 .Loc.918
/var/folders/xk/fjkh8m297bb3lq7fwx2mh0vh0000gq/T//cch8KZiZ.s:3873   .text.rgblight_effect_twinkle:00000000000000e2 .Loc.919
/var/folders/xk/fjkh8m297bb3lq7fwx2mh0vh0000gq/T//cch8KZiZ.s:3874   .text.rgblight_effect_twinkle:00000000000000e2 .Loc.920
/var/folders/xk/fjkh8m297bb3lq7fwx2mh0vh0000gq/T//cch8KZiZ.s:3877   .text.rgblight_effect_twinkle:00000000000000e6 .Loc.921
/var/folders/xk/fjkh8m297bb3lq7fwx2mh0vh0000gq/T//cch8KZiZ.s:3880   .text.rgblight_effect_twinkle:00000000000000ea .Loc.922
/var/folders/xk/fjkh8m297bb3lq7fwx2mh0vh0000gq/T//cch8KZiZ.s:3881   .text.rgblight_effect_twinkle:00000000000000ea .Loc.923
/var/folders/xk/fjkh8m297bb3lq7fwx2mh0vh0000gq/T//cch8KZiZ.s:3883   .text.rgblight_effect_twinkle:00000000000000ec .Loc.924
/var/folders/xk/fjkh8m297bb3lq7fwx2mh0vh0000gq/T//cch8KZiZ.s:3884   .text.rgblight_effect_twinkle:00000000000000ec .Loc.925
/var/folders/xk/fjkh8m297bb3lq7fwx2mh0vh0000gq/T//cch8KZiZ.s:3887   .text.rgblight_effect_twinkle:00000000000000ee .Loc.926
/var/folders/xk/fjkh8m297bb3lq7fwx2mh0vh0000gq/T//cch8KZiZ.s:3888   .text.rgblight_effect_twinkle:00000000000000ee .Loc.927
/var/folders/xk/fjkh8m297bb3lq7fwx2mh0vh0000gq/T//cch8KZiZ.s:3892   .text.rgblight_effect_twinkle:00000000000000f4 .Loc.928
/var/folders/xk/fjkh8m297bb3lq7fwx2mh0vh0000gq/T//cch8KZiZ.s:3893   .text.rgblight_effect_twinkle:00000000000000f4 .Loc.929
/var/folders/xk/fjkh8m297bb3lq7fwx2mh0vh0000gq/T//cch8KZiZ.s:3903   .text.rgblight_effect_twinkle:0000000000000108 .Loc.930
/var/folders/xk/fjkh8m297bb3lq7fwx2mh0vh0000gq/T//cch8KZiZ.s:3904   .text.rgblight_effect_twinkle:0000000000000108 .Loc.931
/var/folders/xk/fjkh8m297bb3lq7fwx2mh0vh0000gq/T//cch8KZiZ.s:3909   .text.rgblight_effect_twinkle:0000000000000110 .Loc.932
/var/folders/xk/fjkh8m297bb3lq7fwx2mh0vh0000gq/T//cch8KZiZ.s:3911   .text.rgblight_effect_twinkle:0000000000000110 .Loc.933
/var/folders/xk/fjkh8m297bb3lq7fwx2mh0vh0000gq/T//cch8KZiZ.s:3912   .text.rgblight_effect_twinkle:0000000000000110 .Loc.934
/var/folders/xk/fjkh8m297bb3lq7fwx2mh0vh0000gq/T//cch8KZiZ.s:3915   .text.rgblight_effect_twinkle:0000000000000114 .Loc.935
/var/folders/xk/fjkh8m297bb3lq7fwx2mh0vh0000gq/T//cch8KZiZ.s:3918   .text.rgblight_effect_twinkle:000000000000011a L0
/var/folders/xk/fjkh8m297bb3lq7fwx2mh0vh0000gq/T//cch8KZiZ.s:3920   .text.rgblight_effect_twinkle:000000000000011c .Loc.936
/var/folders/xk/fjkh8m297bb3lq7fwx2mh0vh0000gq/T//cch8KZiZ.s:3921   .text.rgblight_effect_twinkle:000000000000011c .Loc.937
/var/folders/xk/fjkh8m297bb3lq7fwx2mh0vh0000gq/T//cch8KZiZ.s:3925   .text.rgblight_effect_twinkle:0000000000000122 .Loc.938
/var/folders/xk/fjkh8m297bb3lq7fwx2mh0vh0000gq/T//cch8KZiZ.s:3928   .text.rgblight_effect_twinkle:0000000000000126 .Loc.939
/var/folders/xk/fjkh8m297bb3lq7fwx2mh0vh0000gq/T//cch8KZiZ.s:3932   .text.rgblight_effect_twinkle:000000000000012c .Loc.940
/var/folders/xk/fjkh8m297bb3lq7fwx2mh0vh0000gq/T//cch8KZiZ.s:3941   .text.rgblight_effect_twinkle:000000000000013c .Loc.941
/var/folders/xk/fjkh8m297bb3lq7fwx2mh0vh0000gq/T//cch8KZiZ.s:3942   .text.rgblight_effect_twinkle:000000000000013c .Loc.942
/var/folders/xk/fjkh8m297bb3lq7fwx2mh0vh0000gq/T//cch8KZiZ.s:3946   .text.rgblight_effect_twinkle:0000000000000142 .Loc.943
/var/folders/xk/fjkh8m297bb3lq7fwx2mh0vh0000gq/T//cch8KZiZ.s:3949   .text.rgblight_effect_twinkle:0000000000000146 .Loc.944
/var/folders/xk/fjkh8m297bb3lq7fwx2mh0vh0000gq/T//cch8KZiZ.s:3954   .text.rgblight_effect_twinkle:0000000000000150 .Loc.945
/var/folders/xk/fjkh8m297bb3lq7fwx2mh0vh0000gq/T//cch8KZiZ.s:3956   .text.rgblight_effect_twinkle:0000000000000154 .Loc.946
/var/folders/xk/fjkh8m297bb3lq7fwx2mh0vh0000gq/T//cch8KZiZ.s:3959   .text.rgblight_effect_twinkle:0000000000000156 .Loc.947
/var/folders/xk/fjkh8m297bb3lq7fwx2mh0vh0000gq/T//cch8KZiZ.s:3968   .text.rgblight_effect_twinkle:0000000000000166 .Loc.948
/var/folders/xk/fjkh8m297bb3lq7fwx2mh0vh0000gq/T//cch8KZiZ.s:3969   .text.rgblight_effect_twinkle:0000000000000166 .Loc.949
/var/folders/xk/fjkh8m297bb3lq7fwx2mh0vh0000gq/T//cch8KZiZ.s:3971   .text.rgblight_effect_twinkle:0000000000000168 .Loc.950
/var/folders/xk/fjkh8m297bb3lq7fwx2mh0vh0000gq/T//cch8KZiZ.s:3972   .text.rgblight_effect_twinkle:0000000000000168 .Loc.951
/var/folders/xk/fjkh8m297bb3lq7fwx2mh0vh0000gq/T//cch8KZiZ.s:3974   .text.rgblight_effect_twinkle:000000000000016a .Loc.952
/var/folders/xk/fjkh8m297bb3lq7fwx2mh0vh0000gq/T//cch8KZiZ.s:3975   .text.rgblight_effect_twinkle:000000000000016a .Loc.953
/var/folders/xk/fjkh8m297bb3lq7fwx2mh0vh0000gq/T//cch8KZiZ.s:3979   .text.rgblight_effect_twinkle:000000000000016e .Loc.954
/var/folders/xk/fjkh8m297bb3lq7fwx2mh0vh0000gq/T//cch8KZiZ.s:3983   .text.rgblight_effect_twinkle:0000000000000174 .Loc.955
/var/folders/xk/fjkh8m297bb3lq7fwx2mh0vh0000gq/T//cch8KZiZ.s:3988   .text.rgblight_effect_twinkle:000000000000017a L0
/var/folders/xk/fjkh8m297bb3lq7fwx2mh0vh0000gq/T//cch8KZiZ.s:3994   .text.rgblight_get_change_flags:0000000000000000 rgblight_get_change_flags
/var/folders/xk/fjkh8m297bb3lq7fwx2mh0vh0000gq/T//cch8KZiZ.s:3996   .text.rgblight_get_change_flags:0000000000000000 .Loc.956
/var/folders/xk/fjkh8m297bb3lq7fwx2mh0vh0000gq/T//cch8KZiZ.s:3997   .text.rgblight_get_change_flags:0000000000000000 L0
/var/folders/xk/fjkh8m297bb3lq7fwx2mh0vh0000gq/T//cch8KZiZ.s:4002   .text.rgblight_get_change_flags:0000000000000000 .Loc.957
/var/folders/xk/fjkh8m297bb3lq7fwx2mh0vh0000gq/T//cch8KZiZ.s:4003   .text.rgblight_get_change_flags:0000000000000000 .Loc.958
/var/folders/xk/fjkh8m297bb3lq7fwx2mh0vh0000gq/T//cch8KZiZ.s:4007   .text.rgblight_get_change_flags:0000000000000006 L0
/var/folders/xk/fjkh8m297bb3lq7fwx2mh0vh0000gq/T//cch8KZiZ.s:4013   .text.rgblight_clear_change_flags:0000000000000000 rgblight_clear_change_flags
/var/folders/xk/fjkh8m297bb3lq7fwx2mh0vh0000gq/T//cch8KZiZ.s:4015   .text.rgblight_clear_change_flags:0000000000000000 .Loc.959
/var/folders/xk/fjkh8m297bb3lq7fwx2mh0vh0000gq/T//cch8KZiZ.s:4016   .text.rgblight_clear_change_flags:0000000000000000 L0
/var/folders/xk/fjkh8m297bb3lq7fwx2mh0vh0000gq/T//cch8KZiZ.s:4021   .text.rgblight_clear_change_flags:0000000000000000 .Loc.960
/var/folders/xk/fjkh8m297bb3lq7fwx2mh0vh0000gq/T//cch8KZiZ.s:4022   .text.rgblight_clear_change_flags:0000000000000000 .Loc.961
/var/folders/xk/fjkh8m297bb3lq7fwx2mh0vh0000gq/T//cch8KZiZ.s:4025   .text.rgblight_clear_change_flags:0000000000000004 .Loc.962
/var/folders/xk/fjkh8m297bb3lq7fwx2mh0vh0000gq/T//cch8KZiZ.s:4027   .text.rgblight_clear_change_flags:0000000000000006 L0
/var/folders/xk/fjkh8m297bb3lq7fwx2mh0vh0000gq/T//cch8KZiZ.s:4033   .text.rgblight_get_syncinfo:0000000000000000 rgblight_get_syncinfo
/var/folders/xk/fjkh8m297bb3lq7fwx2mh0vh0000gq/T//cch8KZiZ.s:4036   .text.rgblight_get_syncinfo:0000000000000000 .Loc.963
/var/folders/xk/fjkh8m297bb3lq7fwx2mh0vh0000gq/T//cch8KZiZ.s:4037   .text.rgblight_get_syncinfo:0000000000000000 L0
/var/folders/xk/fjkh8m297bb3lq7fwx2mh0vh0000gq/T//cch8KZiZ.s:4042   .text.rgblight_get_syncinfo:0000000000000000 .Loc.964
/var/folders/xk/fjkh8m297bb3lq7fwx2mh0vh0000gq/T//cch8KZiZ.s:4043   .text.rgblight_get_syncinfo:0000000000000000 .Loc.965
/var/folders/xk/fjkh8m297bb3lq7fwx2mh0vh0000gq/T//cch8KZiZ.s:4053   .text.rgblight_get_syncinfo:0000000000000010 .Loc.966
/var/folders/xk/fjkh8m297bb3lq7fwx2mh0vh0000gq/T//cch8KZiZ.s:4054   .text.rgblight_get_syncinfo:0000000000000010 .Loc.967
/var/folders/xk/fjkh8m297bb3lq7fwx2mh0vh0000gq/T//cch8KZiZ.s:4063   .text.rgblight_get_syncinfo:0000000000000024 .Loc.968
/var/folders/xk/fjkh8m297bb3lq7fwx2mh0vh0000gq/T//cch8KZiZ.s:4065   .text.rgblight_get_syncinfo:0000000000000026 L0
/var/folders/xk/fjkh8m297bb3lq7fwx2mh0vh0000gq/T//cch8KZiZ.s:4071   .text.rgblight_timer_init:0000000000000000 rgblight_timer_init
/var/folders/xk/fjkh8m297bb3lq7fwx2mh0vh0000gq/T//cch8KZiZ.s:4073   .text.rgblight_timer_init:0000000000000000 .Loc.969
/var/folders/xk/fjkh8m297bb3lq7fwx2mh0vh0000gq/T//cch8KZiZ.s:4074   .text.rgblight_timer_init:0000000000000000 L0
/var/folders/xk/fjkh8m297bb3lq7fwx2mh0vh0000gq/T//cch8KZiZ.s:4079   .text.rgblight_timer_init:0000000000000000 .Loc.970
/var/folders/xk/fjkh8m297bb3lq7fwx2mh0vh0000gq/T//cch8KZiZ.s:4080   .text.rgblight_timer_init:0000000000000000 .Loc.971
/var/folders/xk/fjkh8m297bb3lq7fwx2mh0vh0000gq/T//cch8KZiZ.s:4084   .text.rgblight_timer_init:0000000000000006 .Loc.972
/var/folders/xk/fjkh8m297bb3lq7fwx2mh0vh0000gq/T//cch8KZiZ.s:4089   .text.rgblight_timer_init:000000000000000c .Loc.973
/var/folders/xk/fjkh8m297bb3lq7fwx2mh0vh0000gq/T//cch8KZiZ.s:4091   .text.rgblight_timer_init:000000000000000e L0
/var/folders/xk/fjkh8m297bb3lq7fwx2mh0vh0000gq/T//cch8KZiZ.s:4097   .text.rgblight_disable_noeeprom:0000000000000000 rgblight_disable_noeeprom
/var/folders/xk/fjkh8m297bb3lq7fwx2mh0vh0000gq/T//cch8KZiZ.s:4099   .text.rgblight_disable_noeeprom:0000000000000000 .Loc.974
/var/folders/xk/fjkh8m297bb3lq7fwx2mh0vh0000gq/T//cch8KZiZ.s:4100   .text.rgblight_disable_noeeprom:0000000000000000 L0
/var/folders/xk/fjkh8m297bb3lq7fwx2mh0vh0000gq/T//cch8KZiZ.s:4105   .text.rgblight_disable_noeeprom:0000000000000000 .Loc.975
/var/folders/xk/fjkh8m297bb3lq7fwx2mh0vh0000gq/T//cch8KZiZ.s:4106   .text.rgblight_disable_noeeprom:0000000000000000 .Loc.976
/var/folders/xk/fjkh8m297bb3lq7fwx2mh0vh0000gq/T//cch8KZiZ.s:4112   .text.rgblight_disable_noeeprom:000000000000000a .Loc.977
/var/folders/xk/fjkh8m297bb3lq7fwx2mh0vh0000gq/T//cch8KZiZ.s:4113   .text.rgblight_disable_noeeprom:000000000000000a .Loc.978
/var/folders/xk/fjkh8m297bb3lq7fwx2mh0vh0000gq/T//cch8KZiZ.s:4116   .text.rgblight_disable_noeeprom:000000000000000e .Loc.979
/var/folders/xk/fjkh8m297bb3lq7fwx2mh0vh0000gq/T//cch8KZiZ.s:4122   .text.rgblight_disable_noeeprom:0000000000000018 .Loc.980
/var/folders/xk/fjkh8m297bb3lq7fwx2mh0vh0000gq/T//cch8KZiZ.s:4126   .text.rgblight_disable_noeeprom:0000000000000018 .Loc.981
/var/folders/xk/fjkh8m297bb3lq7fwx2mh0vh0000gq/T//cch8KZiZ.s:4128   .text.rgblight_disable_noeeprom:0000000000000018 .Loc.982
/var/folders/xk/fjkh8m297bb3lq7fwx2mh0vh0000gq/T//cch8KZiZ.s:4129   .text.rgblight_disable_noeeprom:0000000000000018 .Loc.983
/var/folders/xk/fjkh8m297bb3lq7fwx2mh0vh0000gq/T//cch8KZiZ.s:4130   .text.rgblight_disable_noeeprom:0000000000000018 .Loc.984
/var/folders/xk/fjkh8m297bb3lq7fwx2mh0vh0000gq/T//cch8KZiZ.s:4131   .text.rgblight_disable_noeeprom:0000000000000018 .Loc.985
/var/folders/xk/fjkh8m297bb3lq7fwx2mh0vh0000gq/T//cch8KZiZ.s:4132   .text.rgblight_disable_noeeprom:0000000000000018 .Loc.986
/var/folders/xk/fjkh8m297bb3lq7fwx2mh0vh0000gq/T//cch8KZiZ.s:4133   .text.rgblight_disable_noeeprom:0000000000000018 .Loc.987
/var/folders/xk/fjkh8m297bb3lq7fwx2mh0vh0000gq/T//cch8KZiZ.s:4141   .text.rgblight_disable_noeeprom:0000000000000028 L0
/var/folders/xk/fjkh8m297bb3lq7fwx2mh0vh0000gq/T//cch8KZiZ.s:4144   .text.rgblight_disable_noeeprom:000000000000002a .Loc.988
/var/folders/xk/fjkh8m297bb3lq7fwx2mh0vh0000gq/T//cch8KZiZ.s:4147   .text.rgblight_disable_noeeprom:000000000000002a .Loc.989
/var/folders/xk/fjkh8m297bb3lq7fwx2mh0vh0000gq/T//cch8KZiZ.s:4150   .text.rgblight_disable_noeeprom:000000000000002e L0
/var/folders/xk/fjkh8m297bb3lq7fwx2mh0vh0000gq/T//cch8KZiZ.s:4156   .text.rgblight_disable:0000000000000000 rgblight_disable
/var/folders/xk/fjkh8m297bb3lq7fwx2mh0vh0000gq/T//cch8KZiZ.s:4158   .text.rgblight_disable:0000000000000000 .Loc.990
/var/folders/xk/fjkh8m297bb3lq7fwx2mh0vh0000gq/T//cch8KZiZ.s:4159   .text.rgblight_disable:0000000000000000 L0
/var/folders/xk/fjkh8m297bb3lq7fwx2mh0vh0000gq/T//cch8KZiZ.s:4164   .text.rgblight_disable:0000000000000000 .Loc.991
/var/folders/xk/fjkh8m297bb3lq7fwx2mh0vh0000gq/T//cch8KZiZ.s:4165   .text.rgblight_disable:0000000000000000 .Loc.992
/var/folders/xk/fjkh8m297bb3lq7fwx2mh0vh0000gq/T//cch8KZiZ.s:4171   .text.rgblight_disable:000000000000000a .Loc.993
/var/folders/xk/fjkh8m297bb3lq7fwx2mh0vh0000gq/T//cch8KZiZ.s:4178   .text.rgblight_disable:0000000000000016 .Loc.994
/var/folders/xk/fjkh8m297bb3lq7fwx2mh0vh0000gq/T//cch8KZiZ.s:4179   .text.rgblight_disable:0000000000000016 .Loc.995
/var/folders/xk/fjkh8m297bb3lq7fwx2mh0vh0000gq/T//cch8KZiZ.s:4182   .text.rgblight_disable:000000000000001a .Loc.996
/var/folders/xk/fjkh8m297bb3lq7fwx2mh0vh0000gq/T//cch8KZiZ.s:4188   .text.rgblight_disable:0000000000000024 .Loc.997
/var/folders/xk/fjkh8m297bb3lq7fwx2mh0vh0000gq/T//cch8KZiZ.s:4192   .text.rgblight_disable:0000000000000024 .Loc.998
/var/folders/xk/fjkh8m297bb3lq7fwx2mh0vh0000gq/T//cch8KZiZ.s:4194   .text.rgblight_disable:0000000000000024 .Loc.999
/var/folders/xk/fjkh8m297bb3lq7fwx2mh0vh0000gq/T//cch8KZiZ.s:4195   .text.rgblight_disable:0000000000000024 .Loc.1000
/var/folders/xk/fjkh8m297bb3lq7fwx2mh0vh0000gq/T//cch8KZiZ.s:4196   .text.rgblight_disable:0000000000000024 .Loc.1001
/var/folders/xk/fjkh8m297bb3lq7fwx2mh0vh0000gq/T//cch8KZiZ.s:4197   .text.rgblight_disable:0000000000000024 .Loc.1002
/var/folders/xk/fjkh8m297bb3lq7fwx2mh0vh0000gq/T//cch8KZiZ.s:4198   .text.rgblight_disable:0000000000000024 .Loc.1003
/var/folders/xk/fjkh8m297bb3lq7fwx2mh0vh0000gq/T//cch8KZiZ.s:4199   .text.rgblight_disable:0000000000000024 .Loc.1004
/var/folders/xk/fjkh8m297bb3lq7fwx2mh0vh0000gq/T//cch8KZiZ.s:4207   .text.rgblight_disable:0000000000000034 L0
/var/folders/xk/fjkh8m297bb3lq7fwx2mh0vh0000gq/T//cch8KZiZ.s:4210   .text.rgblight_disable:0000000000000036 .Loc.1005
/var/folders/xk/fjkh8m297bb3lq7fwx2mh0vh0000gq/T//cch8KZiZ.s:4213   .text.rgblight_disable:0000000000000036 .Loc.1006
/var/folders/xk/fjkh8m297bb3lq7fwx2mh0vh0000gq/T//cch8KZiZ.s:4216   .text.rgblight_disable:000000000000003a L0
/var/folders/xk/fjkh8m297bb3lq7fwx2mh0vh0000gq/T//cch8KZiZ.s:4222   .text.rgblight_timer_enable:0000000000000000 rgblight_timer_enable
/var/folders/xk/fjkh8m297bb3lq7fwx2mh0vh0000gq/T//cch8KZiZ.s:4224   .text.rgblight_timer_enable:0000000000000000 .Loc.1007
/var/folders/xk/fjkh8m297bb3lq7fwx2mh0vh0000gq/T//cch8KZiZ.s:4225   .text.rgblight_timer_enable:0000000000000000 L0
/var/folders/xk/fjkh8m297bb3lq7fwx2mh0vh0000gq/T//cch8KZiZ.s:4230   .text.rgblight_timer_enable:0000000000000000 .Loc.1008
/var/folders/xk/fjkh8m297bb3lq7fwx2mh0vh0000gq/T//cch8KZiZ.s:4234   .text.rgblight_timer_enable:0000000000000000 .Loc.1009
/var/folders/xk/fjkh8m297bb3lq7fwx2mh0vh0000gq/T//cch8KZiZ.s:4236   .text.rgblight_timer_enable:0000000000000000 .Loc.1010
/var/folders/xk/fjkh8m297bb3lq7fwx2mh0vh0000gq/T//cch8KZiZ.s:4239   .text.rgblight_timer_enable:0000000000000000 .Loc.1011
/var/folders/xk/fjkh8m297bb3lq7fwx2mh0vh0000gq/T//cch8KZiZ.s:4244   .text.rgblight_timer_enable:0000000000000006 .Loc.1012
/var/folders/xk/fjkh8m297bb3lq7fwx2mh0vh0000gq/T//cch8KZiZ.s:6127   .data.static_effect_table:0000000000000000 static_effect_table
/var/folders/xk/fjkh8m297bb3lq7fwx2mh0vh0000gq/T//cch8KZiZ.s:4252   .text.rgblight_timer_enable:0000000000000014 .Loc.1013
/var/folders/xk/fjkh8m297bb3lq7fwx2mh0vh0000gq/T//cch8KZiZ.s:4255   .text.rgblight_timer_enable:0000000000000014 .Loc.1014
/var/folders/xk/fjkh8m297bb3lq7fwx2mh0vh0000gq/T//cch8KZiZ.s:4258   .text.rgblight_timer_enable:0000000000000018 .Loc.1015
/var/folders/xk/fjkh8m297bb3lq7fwx2mh0vh0000gq/T//cch8KZiZ.s:4259   .text.rgblight_timer_enable:0000000000000018 .Loc.1016
/var/folders/xk/fjkh8m297bb3lq7fwx2mh0vh0000gq/T//cch8KZiZ.s:4263   .text.rgblight_timer_enable:000000000000001e .Loc.1017
/var/folders/xk/fjkh8m297bb3lq7fwx2mh0vh0000gq/T//cch8KZiZ.s:4264   .text.rgblight_timer_enable:000000000000001e .Loc.1018
/var/folders/xk/fjkh8m297bb3lq7fwx2mh0vh0000gq/T//cch8KZiZ.s:4267   .text.rgblight_timer_enable:0000000000000022 .Loc.1019
/var/folders/xk/fjkh8m297bb3lq7fwx2mh0vh0000gq/T//cch8KZiZ.s:6052   .bss.animation_status:0000000000000000 animation_status
/var/folders/xk/fjkh8m297bb3lq7fwx2mh0vh0000gq/T//cch8KZiZ.s:4270   .text.rgblight_timer_enable:000000000000002a .Loc.1020
/var/folders/xk/fjkh8m297bb3lq7fwx2mh0vh0000gq/T//cch8KZiZ.s:4274   .text.rgblight_timer_enable:0000000000000034 .Loc.1021
/var/folders/xk/fjkh8m297bb3lq7fwx2mh0vh0000gq/T//cch8KZiZ.s:4276   .text.rgblight_timer_enable:0000000000000034 .Loc.1022
/var/folders/xk/fjkh8m297bb3lq7fwx2mh0vh0000gq/T//cch8KZiZ.s:4278   .text.rgblight_timer_enable:0000000000000036 L0
/var/folders/xk/fjkh8m297bb3lq7fwx2mh0vh0000gq/T//cch8KZiZ.s:4284   .text.rgblight_mode_eeprom_helper:0000000000000000 rgblight_mode_eeprom_helper
/var/folders/xk/fjkh8m297bb3lq7fwx2mh0vh0000gq/T//cch8KZiZ.s:4287   .text.rgblight_mode_eeprom_helper:0000000000000000 .Loc.1023
/var/folders/xk/fjkh8m297bb3lq7fwx2mh0vh0000gq/T//cch8KZiZ.s:4288   .text.rgblight_mode_eeprom_helper:0000000000000000 L0
/var/folders/xk/fjkh8m297bb3lq7fwx2mh0vh0000gq/T//cch8KZiZ.s:4293   .text.rgblight_mode_eeprom_helper:0000000000000000 .Loc.1024
/var/folders/xk/fjkh8m297bb3lq7fwx2mh0vh0000gq/T//cch8KZiZ.s:4294   .text.rgblight_mode_eeprom_helper:0000000000000000 .Loc.1025
/var/folders/xk/fjkh8m297bb3lq7fwx2mh0vh0000gq/T//cch8KZiZ.s:4296   .text.rgblight_mode_eeprom_helper:0000000000000004 .Loc.1026
/var/folders/xk/fjkh8m297bb3lq7fwx2mh0vh0000gq/T//cch8KZiZ.s:4299   .text.rgblight_mode_eeprom_helper:0000000000000008 .Loc.1027
/var/folders/xk/fjkh8m297bb3lq7fwx2mh0vh0000gq/T//cch8KZiZ.s:4301   .text.rgblight_mode_eeprom_helper:000000000000000a .Loc.1028
/var/folders/xk/fjkh8m297bb3lq7fwx2mh0vh0000gq/T//cch8KZiZ.s:4304   .text.rgblight_mode_eeprom_helper:000000000000000e .Loc.1029
/var/folders/xk/fjkh8m297bb3lq7fwx2mh0vh0000gq/T//cch8KZiZ.s:4305   .text.rgblight_mode_eeprom_helper:000000000000000e .Loc.1030
/var/folders/xk/fjkh8m297bb3lq7fwx2mh0vh0000gq/T//cch8KZiZ.s:4309   .text.rgblight_mode_eeprom_helper:0000000000000010 .Loc.1031
/var/folders/xk/fjkh8m297bb3lq7fwx2mh0vh0000gq/T//cch8KZiZ.s:4311   .text.rgblight_mode_eeprom_helper:0000000000000014 .Loc.1032
/var/folders/xk/fjkh8m297bb3lq7fwx2mh0vh0000gq/T//cch8KZiZ.s:4315   .text.rgblight_mode_eeprom_helper:000000000000001e .Loc.1033
/var/folders/xk/fjkh8m297bb3lq7fwx2mh0vh0000gq/T//cch8KZiZ.s:4316   .text.rgblight_mode_eeprom_helper:000000000000001e .Loc.1034
/var/folders/xk/fjkh8m297bb3lq7fwx2mh0vh0000gq/T//cch8KZiZ.s:4319   .text.rgblight_mode_eeprom_helper:0000000000000022 .Loc.1035
/var/folders/xk/fjkh8m297bb3lq7fwx2mh0vh0000gq/T//cch8KZiZ.s:4325   .text.rgblight_mode_eeprom_helper:0000000000000032 .Loc.1036
/var/folders/xk/fjkh8m297bb3lq7fwx2mh0vh0000gq/T//cch8KZiZ.s:4328   .text.rgblight_mode_eeprom_helper:0000000000000036 .Loc.1037
/var/folders/xk/fjkh8m297bb3lq7fwx2mh0vh0000gq/T//cch8KZiZ.s:4330   .text.rgblight_mode_eeprom_helper:0000000000000036 .Loc.1038
/var/folders/xk/fjkh8m297bb3lq7fwx2mh0vh0000gq/T//cch8KZiZ.s:4331   .text.rgblight_mode_eeprom_helper:0000000000000036 .Loc.1039
/var/folders/xk/fjkh8m297bb3lq7fwx2mh0vh0000gq/T//cch8KZiZ.s:4334   .text.rgblight_mode_eeprom_helper:0000000000000036 .Loc.1040
/var/folders/xk/fjkh8m297bb3lq7fwx2mh0vh0000gq/T//cch8KZiZ.s:4336   .text.rgblight_mode_eeprom_helper:0000000000000036 .Loc.1041
/var/folders/xk/fjkh8m297bb3lq7fwx2mh0vh0000gq/T//cch8KZiZ.s:4339   .text.rgblight_mode_eeprom_helper:0000000000000036 .Loc.1042
/var/folders/xk/fjkh8m297bb3lq7fwx2mh0vh0000gq/T//cch8KZiZ.s:4344   .text.rgblight_mode_eeprom_helper:000000000000003c .Loc.1043
/var/folders/xk/fjkh8m297bb3lq7fwx2mh0vh0000gq/T//cch8KZiZ.s:4352   .text.rgblight_mode_eeprom_helper:000000000000004a .Loc.1044
/var/folders/xk/fjkh8m297bb3lq7fwx2mh0vh0000gq/T//cch8KZiZ.s:4355   .text.rgblight_mode_eeprom_helper:000000000000004a .Loc.1045
/var/folders/xk/fjkh8m297bb3lq7fwx2mh0vh0000gq/T//cch8KZiZ.s:4358   .text.rgblight_mode_eeprom_helper:000000000000004e .Loc.1046
/var/folders/xk/fjkh8m297bb3lq7fwx2mh0vh0000gq/T//cch8KZiZ.s:4362   .text.rgblight_mode_eeprom_helper:0000000000000052 .Loc.1047
/var/folders/xk/fjkh8m297bb3lq7fwx2mh0vh0000gq/T//cch8KZiZ.s:4363   .text.rgblight_mode_eeprom_helper:0000000000000052 .Loc.1048
/var/folders/xk/fjkh8m297bb3lq7fwx2mh0vh0000gq/T//cch8KZiZ.s:4366   .text.rgblight_mode_eeprom_helper:0000000000000058 .Loc.1049
/var/folders/xk/fjkh8m297bb3lq7fwx2mh0vh0000gq/T//cch8KZiZ.s:4373   .text.rgblight_mode_eeprom_helper:0000000000000068 .Loc.1050
/var/folders/xk/fjkh8m297bb3lq7fwx2mh0vh0000gq/T//cch8KZiZ.s:4374   .text.rgblight_mode_eeprom_helper:0000000000000068 .Loc.1051
/var/folders/xk/fjkh8m297bb3lq7fwx2mh0vh0000gq/T//cch8KZiZ.s:4377   .text.rgblight_mode_eeprom_helper:000000000000006c .Loc.1052
/var/folders/xk/fjkh8m297bb3lq7fwx2mh0vh0000gq/T//cch8KZiZ.s:4378   .text.rgblight_mode_eeprom_helper:000000000000006c .Loc.1053
/var/folders/xk/fjkh8m297bb3lq7fwx2mh0vh0000gq/T//cch8KZiZ.s:4382   .text.rgblight_mode_eeprom_helper:0000000000000070 .Loc.1054
/var/folders/xk/fjkh8m297bb3lq7fwx2mh0vh0000gq/T//cch8KZiZ.s:4383   .text.rgblight_mode_eeprom_helper:0000000000000070 .Loc.1055
/var/folders/xk/fjkh8m297bb3lq7fwx2mh0vh0000gq/T//cch8KZiZ.s:4386   .text.rgblight_mode_eeprom_helper:0000000000000072 .Loc.1056
/var/folders/xk/fjkh8m297bb3lq7fwx2mh0vh0000gq/T//cch8KZiZ.s:4391   .text.rgblight_mode_eeprom_helper:0000000000000076 .Loc.1057
/var/folders/xk/fjkh8m297bb3lq7fwx2mh0vh0000gq/T//cch8KZiZ.s:4398   .text.rgblight_mode_eeprom_helper:000000000000007c .Loc.1058
/var/folders/xk/fjkh8m297bb3lq7fwx2mh0vh0000gq/T//cch8KZiZ.s:4400   .text.rgblight_mode_eeprom_helper:000000000000007e L0
/var/folders/xk/fjkh8m297bb3lq7fwx2mh0vh0000gq/T//cch8KZiZ.s:4406   .text.rgblight_step_helper:0000000000000000 rgblight_step_helper
/var/folders/xk/fjkh8m297bb3lq7fwx2mh0vh0000gq/T//cch8KZiZ.s:4409   .text.rgblight_step_helper:0000000000000000 .Loc.1059
/var/folders/xk/fjkh8m297bb3lq7fwx2mh0vh0000gq/T//cch8KZiZ.s:4410   .text.rgblight_step_helper:0000000000000000 L0
/var/folders/xk/fjkh8m297bb3lq7fwx2mh0vh0000gq/T//cch8KZiZ.s:4415   .text.rgblight_step_helper:0000000000000000 .Loc.1060
/var/folders/xk/fjkh8m297bb3lq7fwx2mh0vh0000gq/T//cch8KZiZ.s:4417   .text.rgblight_step_helper:0000000000000002 .Loc.1061
/var/folders/xk/fjkh8m297bb3lq7fwx2mh0vh0000gq/T//cch8KZiZ.s:4419   .text.rgblight_step_helper:0000000000000002 .Loc.1062
/var/folders/xk/fjkh8m297bb3lq7fwx2mh0vh0000gq/T//cch8KZiZ.s:4420   .text.rgblight_step_helper:0000000000000002 .Loc.1063
/var/folders/xk/fjkh8m297bb3lq7fwx2mh0vh0000gq/T//cch8KZiZ.s:4423   .text.rgblight_step_helper:0000000000000008 .Loc.1064
/var/folders/xk/fjkh8m297bb3lq7fwx2mh0vh0000gq/T//cch8KZiZ.s:4426   .text.rgblight_step_helper:000000000000000a .Loc.1065
/var/folders/xk/fjkh8m297bb3lq7fwx2mh0vh0000gq/T//cch8KZiZ.s:4429   .text.rgblight_step_helper:000000000000000c .Loc.1066
/var/folders/xk/fjkh8m297bb3lq7fwx2mh0vh0000gq/T//cch8KZiZ.s:4430   .text.rgblight_step_helper:000000000000000c .Loc.1067
/var/folders/xk/fjkh8m297bb3lq7fwx2mh0vh0000gq/T//cch8KZiZ.s:4433   .text.rgblight_step_helper:0000000000000010 .Loc.1068
/var/folders/xk/fjkh8m297bb3lq7fwx2mh0vh0000gq/T//cch8KZiZ.s:4437   .text.rgblight_step_helper:0000000000000012 .Loc.1069
/var/folders/xk/fjkh8m297bb3lq7fwx2mh0vh0000gq/T//cch8KZiZ.s:4440   .text.rgblight_step_helper:0000000000000016 .Loc.1070
/var/folders/xk/fjkh8m297bb3lq7fwx2mh0vh0000gq/T//cch8KZiZ.s:4441   .text.rgblight_step_helper:0000000000000016 L0
/var/folders/xk/fjkh8m297bb3lq7fwx2mh0vh0000gq/T//cch8KZiZ.s:4447   .text.rgblight_step_noeeprom:0000000000000000 rgblight_step_noeeprom
/var/folders/xk/fjkh8m297bb3lq7fwx2mh0vh0000gq/T//cch8KZiZ.s:4449   .text.rgblight_step_noeeprom:0000000000000000 .Loc.1071
/var/folders/xk/fjkh8m297bb3lq7fwx2mh0vh0000gq/T//cch8KZiZ.s:4450   .text.rgblight_step_noeeprom:0000000000000000 L0
/var/folders/xk/fjkh8m297bb3lq7fwx2mh0vh0000gq/T//cch8KZiZ.s:4455   .text.rgblight_step_noeeprom:0000000000000000 .Loc.1072
/var/folders/xk/fjkh8m297bb3lq7fwx2mh0vh0000gq/T//cch8KZiZ.s:4459   .text.rgblight_step_noeeprom:0000000000000006 L0
/var/folders/xk/fjkh8m297bb3lq7fwx2mh0vh0000gq/T//cch8KZiZ.s:4465   .text.rgblight_step:0000000000000000 rgblight_step
/var/folders/xk/fjkh8m297bb3lq7fwx2mh0vh0000gq/T//cch8KZiZ.s:4467   .text.rgblight_step:0000000000000000 .Loc.1073
/var/folders/xk/fjkh8m297bb3lq7fwx2mh0vh0000gq/T//cch8KZiZ.s:4468   .text.rgblight_step:0000000000000000 L0
/var/folders/xk/fjkh8m297bb3lq7fwx2mh0vh0000gq/T//cch8KZiZ.s:4473   .text.rgblight_step:0000000000000000 .Loc.1074
/var/folders/xk/fjkh8m297bb3lq7fwx2mh0vh0000gq/T//cch8KZiZ.s:4477   .text.rgblight_step:0000000000000006 L0
/var/folders/xk/fjkh8m297bb3lq7fwx2mh0vh0000gq/T//cch8KZiZ.s:4483   .text.rgblight_step_reverse_helper:0000000000000000 rgblight_step_reverse_helper
/var/folders/xk/fjkh8m297bb3lq7fwx2mh0vh0000gq/T//cch8KZiZ.s:4486   .text.rgblight_step_reverse_helper:0000000000000000 .Loc.1075
/var/folders/xk/fjkh8m297bb3lq7fwx2mh0vh0000gq/T//cch8KZiZ.s:4487   .text.rgblight_step_reverse_helper:0000000000000000 L0
/var/folders/xk/fjkh8m297bb3lq7fwx2mh0vh0000gq/T//cch8KZiZ.s:4492   .text.rgblight_step_reverse_helper:0000000000000000 .Loc.1076
/var/folders/xk/fjkh8m297bb3lq7fwx2mh0vh0000gq/T//cch8KZiZ.s:4494   .text.rgblight_step_reverse_helper:0000000000000002 .Loc.1077
/var/folders/xk/fjkh8m297bb3lq7fwx2mh0vh0000gq/T//cch8KZiZ.s:4496   .text.rgblight_step_reverse_helper:0000000000000002 .Loc.1078
/var/folders/xk/fjkh8m297bb3lq7fwx2mh0vh0000gq/T//cch8KZiZ.s:4497   .text.rgblight_step_reverse_helper:0000000000000002 .Loc.1079
/var/folders/xk/fjkh8m297bb3lq7fwx2mh0vh0000gq/T//cch8KZiZ.s:4500   .text.rgblight_step_reverse_helper:0000000000000008 .Loc.1080
/var/folders/xk/fjkh8m297bb3lq7fwx2mh0vh0000gq/T//cch8KZiZ.s:4503   .text.rgblight_step_reverse_helper:000000000000000a .Loc.1081
/var/folders/xk/fjkh8m297bb3lq7fwx2mh0vh0000gq/T//cch8KZiZ.s:4506   .text.rgblight_step_reverse_helper:000000000000000c .Loc.1082
/var/folders/xk/fjkh8m297bb3lq7fwx2mh0vh0000gq/T//cch8KZiZ.s:4507   .text.rgblight_step_reverse_helper:000000000000000c .Loc.1083
/var/folders/xk/fjkh8m297bb3lq7fwx2mh0vh0000gq/T//cch8KZiZ.s:4509   .text.rgblight_step_reverse_helper:000000000000000e .Loc.1084
/var/folders/xk/fjkh8m297bb3lq7fwx2mh0vh0000gq/T//cch8KZiZ.s:4513   .text.rgblight_step_reverse_helper:0000000000000010 .Loc.1085
/var/folders/xk/fjkh8m297bb3lq7fwx2mh0vh0000gq/T//cch8KZiZ.s:4516   .text.rgblight_step_reverse_helper:0000000000000014 .Loc.1086
/var/folders/xk/fjkh8m297bb3lq7fwx2mh0vh0000gq/T//cch8KZiZ.s:4517   .text.rgblight_step_reverse_helper:0000000000000014 L0
/var/folders/xk/fjkh8m297bb3lq7fwx2mh0vh0000gq/T//cch8KZiZ.s:4523   .text.rgblight_step_reverse_noeeprom:0000000000000000 rgblight_step_reverse_noeeprom
/var/folders/xk/fjkh8m297bb3lq7fwx2mh0vh0000gq/T//cch8KZiZ.s:4525   .text.rgblight_step_reverse_noeeprom:0000000000000000 .Loc.1087
/var/folders/xk/fjkh8m297bb3lq7fwx2mh0vh0000gq/T//cch8KZiZ.s:4526   .text.rgblight_step_reverse_noeeprom:0000000000000000 L0
/var/folders/xk/fjkh8m297bb3lq7fwx2mh0vh0000gq/T//cch8KZiZ.s:4531   .text.rgblight_step_reverse_noeeprom:0000000000000000 .Loc.1088
/var/folders/xk/fjkh8m297bb3lq7fwx2mh0vh0000gq/T//cch8KZiZ.s:4535   .text.rgblight_step_reverse_noeeprom:0000000000000006 L0
/var/folders/xk/fjkh8m297bb3lq7fwx2mh0vh0000gq/T//cch8KZiZ.s:4541   .text.rgblight_step_reverse:0000000000000000 rgblight_step_reverse
/var/folders/xk/fjkh8m297bb3lq7fwx2mh0vh0000gq/T//cch8KZiZ.s:4543   .text.rgblight_step_reverse:0000000000000000 .Loc.1089
/var/folders/xk/fjkh8m297bb3lq7fwx2mh0vh0000gq/T//cch8KZiZ.s:4544   .text.rgblight_step_reverse:0000000000000000 L0
/var/folders/xk/fjkh8m297bb3lq7fwx2mh0vh0000gq/T//cch8KZiZ.s:4549   .text.rgblight_step_reverse:0000000000000000 .Loc.1090
/var/folders/xk/fjkh8m297bb3lq7fwx2mh0vh0000gq/T//cch8KZiZ.s:4553   .text.rgblight_step_reverse:0000000000000006 L0
/var/folders/xk/fjkh8m297bb3lq7fwx2mh0vh0000gq/T//cch8KZiZ.s:4559   .text.rgblight_mode:0000000000000000 rgblight_mode
/var/folders/xk/fjkh8m297bb3lq7fwx2mh0vh0000gq/T//cch8KZiZ.s:4562   .text.rgblight_mode:0000000000000000 .Loc.1091
/var/folders/xk/fjkh8m297bb3lq7fwx2mh0vh0000gq/T//cch8KZiZ.s:4563   .text.rgblight_mode:0000000000000000 L0
/var/folders/xk/fjkh8m297bb3lq7fwx2mh0vh0000gq/T//cch8KZiZ.s:4568   .text.rgblight_mode:0000000000000000 .Loc.1092
/var/folders/xk/fjkh8m297bb3lq7fwx2mh0vh0000gq/T//cch8KZiZ.s:4572   .text.rgblight_mode:0000000000000006 .Loc.1093
/var/folders/xk/fjkh8m297bb3lq7fwx2mh0vh0000gq/T//cch8KZiZ.s:4573   .text.rgblight_mode:0000000000000006 L0
/var/folders/xk/fjkh8m297bb3lq7fwx2mh0vh0000gq/T//cch8KZiZ.s:4579   .text.rgblight_increase:0000000000000000 rgblight_increase
/var/folders/xk/fjkh8m297bb3lq7fwx2mh0vh0000gq/T//cch8KZiZ.s:4581   .text.rgblight_increase:0000000000000000 .Loc.1094
/var/folders/xk/fjkh8m297bb3lq7fwx2mh0vh0000gq/T//cch8KZiZ.s:4582   .text.rgblight_increase:0000000000000000 L0
/var/folders/xk/fjkh8m297bb3lq7fwx2mh0vh0000gq/T//cch8KZiZ.s:4587   .text.rgblight_increase:0000000000000000 .Loc.1095
/var/folders/xk/fjkh8m297bb3lq7fwx2mh0vh0000gq/T//cch8KZiZ.s:4589   .text.rgblight_increase:0000000000000000 .Loc.1096
/var/folders/xk/fjkh8m297bb3lq7fwx2mh0vh0000gq/T//cch8KZiZ.s:4590   .text.rgblight_increase:0000000000000000 .Loc.1097
/var/folders/xk/fjkh8m297bb3lq7fwx2mh0vh0000gq/T//cch8KZiZ.s:4593   .text.rgblight_increase:0000000000000006 .Loc.1098
/var/folders/xk/fjkh8m297bb3lq7fwx2mh0vh0000gq/T//cch8KZiZ.s:4596   .text.rgblight_increase:000000000000000a .Loc.1099
/var/folders/xk/fjkh8m297bb3lq7fwx2mh0vh0000gq/T//cch8KZiZ.s:4597   .text.rgblight_increase:000000000000000a .Loc.1100
/var/folders/xk/fjkh8m297bb3lq7fwx2mh0vh0000gq/T//cch8KZiZ.s:4601   .text.rgblight_increase:000000000000000c .Loc.1101
/var/folders/xk/fjkh8m297bb3lq7fwx2mh0vh0000gq/T//cch8KZiZ.s:4605   .text.rgblight_increase:0000000000000010 .Loc.1102
/var/folders/xk/fjkh8m297bb3lq7fwx2mh0vh0000gq/T//cch8KZiZ.s:4608   .text.rgblight_increase:0000000000000014 L0
/var/folders/xk/fjkh8m297bb3lq7fwx2mh0vh0000gq/T//cch8KZiZ.s:4614   .text.rgblight_decrease:0000000000000000 rgblight_decrease
/var/folders/xk/fjkh8m297bb3lq7fwx2mh0vh0000gq/T//cch8KZiZ.s:4616   .text.rgblight_decrease:0000000000000000 .Loc.1103
/var/folders/xk/fjkh8m297bb3lq7fwx2mh0vh0000gq/T//cch8KZiZ.s:4617   .text.rgblight_decrease:0000000000000000 L0
/var/folders/xk/fjkh8m297bb3lq7fwx2mh0vh0000gq/T//cch8KZiZ.s:4622   .text.rgblight_decrease:0000000000000000 .Loc.1104
/var/folders/xk/fjkh8m297bb3lq7fwx2mh0vh0000gq/T//cch8KZiZ.s:4624   .text.rgblight_decrease:0000000000000000 .Loc.1105
/var/folders/xk/fjkh8m297bb3lq7fwx2mh0vh0000gq/T//cch8KZiZ.s:4625   .text.rgblight_decrease:0000000000000000 .Loc.1106
/var/folders/xk/fjkh8m297bb3lq7fwx2mh0vh0000gq/T//cch8KZiZ.s:4628   .text.rgblight_decrease:0000000000000006 .Loc.1107
/var/folders/xk/fjkh8m297bb3lq7fwx2mh0vh0000gq/T//cch8KZiZ.s:4631   .text.rgblight_decrease:000000000000000a .Loc.1108
/var/folders/xk/fjkh8m297bb3lq7fwx2mh0vh0000gq/T//cch8KZiZ.s:4632   .text.rgblight_decrease:000000000000000a .Loc.1109
/var/folders/xk/fjkh8m297bb3lq7fwx2mh0vh0000gq/T//cch8KZiZ.s:4636   .text.rgblight_decrease:000000000000000c .Loc.1110
/var/folders/xk/fjkh8m297bb3lq7fwx2mh0vh0000gq/T//cch8KZiZ.s:4640   .text.rgblight_decrease:0000000000000010 .Loc.1111
/var/folders/xk/fjkh8m297bb3lq7fwx2mh0vh0000gq/T//cch8KZiZ.s:4643   .text.rgblight_decrease:0000000000000014 L0
/var/folders/xk/fjkh8m297bb3lq7fwx2mh0vh0000gq/T//cch8KZiZ.s:4649   .text.rgblight_enable:0000000000000000 rgblight_enable
/var/folders/xk/fjkh8m297bb3lq7fwx2mh0vh0000gq/T//cch8KZiZ.s:4651   .text.rgblight_enable:0000000000000000 .Loc.1112
/var/folders/xk/fjkh8m297bb3lq7fwx2mh0vh0000gq/T//cch8KZiZ.s:4652   .text.rgblight_enable:0000000000000000 L0
/var/folders/xk/fjkh8m297bb3lq7fwx2mh0vh0000gq/T//cch8KZiZ.s:4657   .text.rgblight_enable:0000000000000000 .Loc.1113
/var/folders/xk/fjkh8m297bb3lq7fwx2mh0vh0000gq/T//cch8KZiZ.s:4658   .text.rgblight_enable:0000000000000000 .Loc.1114
/var/folders/xk/fjkh8m297bb3lq7fwx2mh0vh0000gq/T//cch8KZiZ.s:4664   .text.rgblight_enable:000000000000000a .Loc.1115
/var/folders/xk/fjkh8m297bb3lq7fwx2mh0vh0000gq/T//cch8KZiZ.s:4665   .text.rgblight_enable:000000000000000a .Loc.1116
/var/folders/xk/fjkh8m297bb3lq7fwx2mh0vh0000gq/T//cch8KZiZ.s:4669   .text.rgblight_enable:0000000000000010 L0
/var/folders/xk/fjkh8m297bb3lq7fwx2mh0vh0000gq/T//cch8KZiZ.s:4675   .text.rgblight_toggle:0000000000000000 rgblight_toggle
/var/folders/xk/fjkh8m297bb3lq7fwx2mh0vh0000gq/T//cch8KZiZ.s:4677   .text.rgblight_toggle:0000000000000000 .Loc.1117
/var/folders/xk/fjkh8m297bb3lq7fwx2mh0vh0000gq/T//cch8KZiZ.s:4678   .text.rgblight_toggle:0000000000000000 L0
/var/folders/xk/fjkh8m297bb3lq7fwx2mh0vh0000gq/T//cch8KZiZ.s:4683   .text.rgblight_toggle:0000000000000000 .Loc.1118
/var/folders/xk/fjkh8m297bb3lq7fwx2mh0vh0000gq/T//cch8KZiZ.s:4684   .text.rgblight_toggle:0000000000000000 .Loc.1119
/var/folders/xk/fjkh8m297bb3lq7fwx2mh0vh0000gq/T//cch8KZiZ.s:4685   .text.rgblight_toggle:0000000000000000 .Loc.1120
/var/folders/xk/fjkh8m297bb3lq7fwx2mh0vh0000gq/T//cch8KZiZ.s:4687   .text.rgblight_toggle:0000000000000004 .Loc.1121
/var/folders/xk/fjkh8m297bb3lq7fwx2mh0vh0000gq/T//cch8KZiZ.s:4689   .text.rgblight_toggle:0000000000000006 .Loc.1122
/var/folders/xk/fjkh8m297bb3lq7fwx2mh0vh0000gq/T//cch8KZiZ.s:4693   .text.rgblight_toggle:000000000000000a .Loc.1123
/var/folders/xk/fjkh8m297bb3lq7fwx2mh0vh0000gq/T//cch8KZiZ.s:4696   .text.rgblight_toggle:000000000000000e L0
/var/folders/xk/fjkh8m297bb3lq7fwx2mh0vh0000gq/T//cch8KZiZ.s:4702   .text.rgblight_mode_noeeprom:0000000000000000 rgblight_mode_noeeprom
/var/folders/xk/fjkh8m297bb3lq7fwx2mh0vh0000gq/T//cch8KZiZ.s:4705   .text.rgblight_mode_noeeprom:0000000000000000 .Loc.1124
/var/folders/xk/fjkh8m297bb3lq7fwx2mh0vh0000gq/T//cch8KZiZ.s:4706   .text.rgblight_mode_noeeprom:0000000000000000 L0
/var/folders/xk/fjkh8m297bb3lq7fwx2mh0vh0000gq/T//cch8KZiZ.s:4711   .text.rgblight_mode_noeeprom:0000000000000000 .Loc.1125
/var/folders/xk/fjkh8m297bb3lq7fwx2mh0vh0000gq/T//cch8KZiZ.s:4715   .text.rgblight_mode_noeeprom:0000000000000006 .Loc.1126
/var/folders/xk/fjkh8m297bb3lq7fwx2mh0vh0000gq/T//cch8KZiZ.s:4716   .text.rgblight_mode_noeeprom:0000000000000006 L0
/var/folders/xk/fjkh8m297bb3lq7fwx2mh0vh0000gq/T//cch8KZiZ.s:4722   .text.rgblight_init:0000000000000000 rgblight_init
/var/folders/xk/fjkh8m297bb3lq7fwx2mh0vh0000gq/T//cch8KZiZ.s:4724   .text.rgblight_init:0000000000000000 .Loc.1127
/var/folders/xk/fjkh8m297bb3lq7fwx2mh0vh0000gq/T//cch8KZiZ.s:4725   .text.rgblight_init:0000000000000000 L0
/var/folders/xk/fjkh8m297bb3lq7fwx2mh0vh0000gq/T//cch8KZiZ.s:4730   .text.rgblight_init:0000000000000000 .Loc.1128
/var/folders/xk/fjkh8m297bb3lq7fwx2mh0vh0000gq/T//cch8KZiZ.s:4731   .text.rgblight_init:0000000000000000 .Loc.1129
/var/folders/xk/fjkh8m297bb3lq7fwx2mh0vh0000gq/T//cch8KZiZ.s:6058   .bss.is_rgblight_initialized:0000000000000000 is_rgblight_initialized
/var/folders/xk/fjkh8m297bb3lq7fwx2mh0vh0000gq/T//cch8KZiZ.s:4735   .text.rgblight_init:0000000000000008 .Loc.1130
/var/folders/xk/fjkh8m297bb3lq7fwx2mh0vh0000gq/T//cch8KZiZ.s:4736   .text.rgblight_init:0000000000000008 .Loc.1131
/var/folders/xk/fjkh8m297bb3lq7fwx2mh0vh0000gq/T//cch8KZiZ.s:4737   .text.rgblight_init:0000000000000008 .Loc.1132
/var/folders/xk/fjkh8m297bb3lq7fwx2mh0vh0000gq/T//cch8KZiZ.s:4738   .text.rgblight_init:0000000000000008 .Loc.1133
/var/folders/xk/fjkh8m297bb3lq7fwx2mh0vh0000gq/T//cch8KZiZ.s:4741   .text.rgblight_init:000000000000000c .Loc.1134
/var/folders/xk/fjkh8m297bb3lq7fwx2mh0vh0000gq/T//cch8KZiZ.s:4744   .text.rgblight_init:0000000000000010 .Loc.1135
/var/folders/xk/fjkh8m297bb3lq7fwx2mh0vh0000gq/T//cch8KZiZ.s:4745   .text.rgblight_init:0000000000000010 .Loc.1136
/var/folders/xk/fjkh8m297bb3lq7fwx2mh0vh0000gq/T//cch8KZiZ.s:4748   .text.rgblight_init:0000000000000014 .Loc.1137
/var/folders/xk/fjkh8m297bb3lq7fwx2mh0vh0000gq/T//cch8KZiZ.s:4752   .text.rgblight_init:0000000000000018 .Loc.1138
/var/folders/xk/fjkh8m297bb3lq7fwx2mh0vh0000gq/T//cch8KZiZ.s:4753   .text.rgblight_init:0000000000000018 .Loc.1139
/var/folders/xk/fjkh8m297bb3lq7fwx2mh0vh0000gq/T//cch8KZiZ.s:4756   .text.rgblight_init:000000000000001c .Loc.1140
/var/folders/xk/fjkh8m297bb3lq7fwx2mh0vh0000gq/T//cch8KZiZ.s:4761   .text.rgblight_init:000000000000002c .Loc.1141
/var/folders/xk/fjkh8m297bb3lq7fwx2mh0vh0000gq/T//cch8KZiZ.s:4765   .text.rgblight_init:0000000000000036 .Loc.1142
/var/folders/xk/fjkh8m297bb3lq7fwx2mh0vh0000gq/T//cch8KZiZ.s:4766   .text.rgblight_init:0000000000000036 .Loc.1143
/var/folders/xk/fjkh8m297bb3lq7fwx2mh0vh0000gq/T//cch8KZiZ.s:4768   .text.rgblight_init:0000000000000038 .Loc.1144
/var/folders/xk/fjkh8m297bb3lq7fwx2mh0vh0000gq/T//cch8KZiZ.s:4770   .text.rgblight_init:000000000000003a .Loc.1145
/var/folders/xk/fjkh8m297bb3lq7fwx2mh0vh0000gq/T//cch8KZiZ.s:4771   .text.rgblight_init:000000000000003a .Loc.1146
/var/folders/xk/fjkh8m297bb3lq7fwx2mh0vh0000gq/T//cch8KZiZ.s:4774   .text.rgblight_init:000000000000003e .Loc.1147
/var/folders/xk/fjkh8m297bb3lq7fwx2mh0vh0000gq/T//cch8KZiZ.s:4775   .text.rgblight_init:000000000000003e .Loc.1148
/var/folders/xk/fjkh8m297bb3lq7fwx2mh0vh0000gq/T//cch8KZiZ.s:4778   .text.rgblight_init:0000000000000042 .Loc.1149
/var/folders/xk/fjkh8m297bb3lq7fwx2mh0vh0000gq/T//cch8KZiZ.s:4784   .text.rgblight_init:0000000000000052 .Loc.1150
/var/folders/xk/fjkh8m297bb3lq7fwx2mh0vh0000gq/T//cch8KZiZ.s:4787   .text.rgblight_init:0000000000000056 .Loc.1151
/var/folders/xk/fjkh8m297bb3lq7fwx2mh0vh0000gq/T//cch8KZiZ.s:4788   .text.rgblight_init:0000000000000056 .Loc.1152
/var/folders/xk/fjkh8m297bb3lq7fwx2mh0vh0000gq/T//cch8KZiZ.s:4791   .text.rgblight_init:000000000000005a .Loc.1153
/var/folders/xk/fjkh8m297bb3lq7fwx2mh0vh0000gq/T//cch8KZiZ.s:4792   .text.rgblight_init:000000000000005a .Loc.1154
/var/folders/xk/fjkh8m297bb3lq7fwx2mh0vh0000gq/T//cch8KZiZ.s:4794   .text.rgblight_init:000000000000005e .Loc.1155
/var/folders/xk/fjkh8m297bb3lq7fwx2mh0vh0000gq/T//cch8KZiZ.s:4797   .text.rgblight_init:0000000000000062 .Loc.1156
/var/folders/xk/fjkh8m297bb3lq7fwx2mh0vh0000gq/T//cch8KZiZ.s:4802   .text.rgblight_init:0000000000000068 .Loc.1157
/var/folders/xk/fjkh8m297bb3lq7fwx2mh0vh0000gq/T//cch8KZiZ.s:4803   .text.rgblight_init:0000000000000068 .Loc.1158
/var/folders/xk/fjkh8m297bb3lq7fwx2mh0vh0000gq/T//cch8KZiZ.s:4808   .text.rgblight_init:000000000000006e .Loc.1159
/var/folders/xk/fjkh8m297bb3lq7fwx2mh0vh0000gq/T//cch8KZiZ.s:4810   .text.rgblight_init:0000000000000070 L0
/var/folders/xk/fjkh8m297bb3lq7fwx2mh0vh0000gq/T//cch8KZiZ.s:4816   .text.rgblight_enable_noeeprom:0000000000000000 rgblight_enable_noeeprom
/var/folders/xk/fjkh8m297bb3lq7fwx2mh0vh0000gq/T//cch8KZiZ.s:4818   .text.rgblight_enable_noeeprom:0000000000000000 .Loc.1160
/var/folders/xk/fjkh8m297bb3lq7fwx2mh0vh0000gq/T//cch8KZiZ.s:4819   .text.rgblight_enable_noeeprom:0000000000000000 L0
/var/folders/xk/fjkh8m297bb3lq7fwx2mh0vh0000gq/T//cch8KZiZ.s:4824   .text.rgblight_enable_noeeprom:0000000000000000 .Loc.1161
/var/folders/xk/fjkh8m297bb3lq7fwx2mh0vh0000gq/T//cch8KZiZ.s:4825   .text.rgblight_enable_noeeprom:0000000000000000 .Loc.1162
/var/folders/xk/fjkh8m297bb3lq7fwx2mh0vh0000gq/T//cch8KZiZ.s:4831   .text.rgblight_enable_noeeprom:000000000000000a .Loc.1163
/var/folders/xk/fjkh8m297bb3lq7fwx2mh0vh0000gq/T//cch8KZiZ.s:4832   .text.rgblight_enable_noeeprom:000000000000000a .Loc.1164
/var/folders/xk/fjkh8m297bb3lq7fwx2mh0vh0000gq/T//cch8KZiZ.s:4836   .text.rgblight_enable_noeeprom:0000000000000010 L0
/var/folders/xk/fjkh8m297bb3lq7fwx2mh0vh0000gq/T//cch8KZiZ.s:4842   .text.rgblight_toggle_noeeprom:0000000000000000 rgblight_toggle_noeeprom
/var/folders/xk/fjkh8m297bb3lq7fwx2mh0vh0000gq/T//cch8KZiZ.s:4844   .text.rgblight_toggle_noeeprom:0000000000000000 .Loc.1165
/var/folders/xk/fjkh8m297bb3lq7fwx2mh0vh0000gq/T//cch8KZiZ.s:4845   .text.rgblight_toggle_noeeprom:0000000000000000 L0
/var/folders/xk/fjkh8m297bb3lq7fwx2mh0vh0000gq/T//cch8KZiZ.s:4850   .text.rgblight_toggle_noeeprom:0000000000000000 .Loc.1166
/var/folders/xk/fjkh8m297bb3lq7fwx2mh0vh0000gq/T//cch8KZiZ.s:4851   .text.rgblight_toggle_noeeprom:0000000000000000 .Loc.1167
/var/folders/xk/fjkh8m297bb3lq7fwx2mh0vh0000gq/T//cch8KZiZ.s:4852   .text.rgblight_toggle_noeeprom:0000000000000000 .Loc.1168
/var/folders/xk/fjkh8m297bb3lq7fwx2mh0vh0000gq/T//cch8KZiZ.s:4854   .text.rgblight_toggle_noeeprom:0000000000000004 .Loc.1169
/var/folders/xk/fjkh8m297bb3lq7fwx2mh0vh0000gq/T//cch8KZiZ.s:4856   .text.rgblight_toggle_noeeprom:0000000000000006 .Loc.1170
/var/folders/xk/fjkh8m297bb3lq7fwx2mh0vh0000gq/T//cch8KZiZ.s:4860   .text.rgblight_toggle_noeeprom:000000000000000a .Loc.1171
/var/folders/xk/fjkh8m297bb3lq7fwx2mh0vh0000gq/T//cch8KZiZ.s:4863   .text.rgblight_toggle_noeeprom:000000000000000e L0
/var/folders/xk/fjkh8m297bb3lq7fwx2mh0vh0000gq/T//cch8KZiZ.s:4869   .text.rgblight_update_dword:0000000000000000 rgblight_update_dword
/var/folders/xk/fjkh8m297bb3lq7fwx2mh0vh0000gq/T//cch8KZiZ.s:4872   .text.rgblight_update_dword:0000000000000000 .Loc.1172
/var/folders/xk/fjkh8m297bb3lq7fwx2mh0vh0000gq/T//cch8KZiZ.s:4873   .text.rgblight_update_dword:0000000000000000 L0
/var/folders/xk/fjkh8m297bb3lq7fwx2mh0vh0000gq/T//cch8KZiZ.s:4878   .text.rgblight_update_dword:0000000000000000 .Loc.1173
/var/folders/xk/fjkh8m297bb3lq7fwx2mh0vh0000gq/T//cch8KZiZ.s:4882   .text.rgblight_update_dword:000000000000000a .Loc.1174
/var/folders/xk/fjkh8m297bb3lq7fwx2mh0vh0000gq/T//cch8KZiZ.s:4883   .text.rgblight_update_dword:000000000000000a .Loc.1175
/var/folders/xk/fjkh8m297bb3lq7fwx2mh0vh0000gq/T//cch8KZiZ.s:4888   .text.rgblight_update_dword:000000000000001a .Loc.1176
/var/folders/xk/fjkh8m297bb3lq7fwx2mh0vh0000gq/T//cch8KZiZ.s:4889   .text.rgblight_update_dword:000000000000001a .Loc.1177
/var/folders/xk/fjkh8m297bb3lq7fwx2mh0vh0000gq/T//cch8KZiZ.s:4892   .text.rgblight_update_dword:000000000000001e .Loc.1178
/var/folders/xk/fjkh8m297bb3lq7fwx2mh0vh0000gq/T//cch8KZiZ.s:4898   .text.rgblight_update_dword:0000000000000026 .Loc.1179
/var/folders/xk/fjkh8m297bb3lq7fwx2mh0vh0000gq/T//cch8KZiZ.s:4901   .text.rgblight_update_dword:000000000000002a .Loc.1180
/var/folders/xk/fjkh8m297bb3lq7fwx2mh0vh0000gq/T//cch8KZiZ.s:4904   .text.rgblight_update_dword:000000000000002e L0
/var/folders/xk/fjkh8m297bb3lq7fwx2mh0vh0000gq/T//cch8KZiZ.s:4910   .text.rgblight_update_sync:0000000000000000 rgblight_update_sync
/var/folders/xk/fjkh8m297bb3lq7fwx2mh0vh0000gq/T//cch8KZiZ.s:4913   .text.rgblight_update_sync:0000000000000000 .Loc.1181
/var/folders/xk/fjkh8m297bb3lq7fwx2mh0vh0000gq/T//cch8KZiZ.s:4914   .text.rgblight_update_sync:0000000000000000 L0
/var/folders/xk/fjkh8m297bb3lq7fwx2mh0vh0000gq/T//cch8KZiZ.s:4915   .text.rgblight_update_sync:0000000000000000 .Loc.1182
/var/folders/xk/fjkh8m297bb3lq7fwx2mh0vh0000gq/T//cch8KZiZ.s:4934   .text.rgblight_update_sync:000000000000000a .Loc.1183
/var/folders/xk/fjkh8m297bb3lq7fwx2mh0vh0000gq/T//cch8KZiZ.s:4935   .text.rgblight_update_sync:000000000000000a .Loc.1184
/var/folders/xk/fjkh8m297bb3lq7fwx2mh0vh0000gq/T//cch8KZiZ.s:4938   .text.rgblight_update_sync:000000000000000c .Loc.1185
/var/folders/xk/fjkh8m297bb3lq7fwx2mh0vh0000gq/T//cch8KZiZ.s:4941   .text.rgblight_update_sync:0000000000000010 .Loc.1186
/var/folders/xk/fjkh8m297bb3lq7fwx2mh0vh0000gq/T//cch8KZiZ.s:4942   .text.rgblight_update_sync:0000000000000010 .Loc.1187
/var/folders/xk/fjkh8m297bb3lq7fwx2mh0vh0000gq/T//cch8KZiZ.s:4944   .text.rgblight_update_sync:0000000000000012 .Loc.1188
/var/folders/xk/fjkh8m297bb3lq7fwx2mh0vh0000gq/T//cch8KZiZ.s:4947   .text.rgblight_update_sync:0000000000000016 .Loc.1189
/var/folders/xk/fjkh8m297bb3lq7fwx2mh0vh0000gq/T//cch8KZiZ.s:4948   .text.rgblight_update_sync:0000000000000016 .Loc.1190
/var/folders/xk/fjkh8m297bb3lq7fwx2mh0vh0000gq/T//cch8KZiZ.s:4952   .text.rgblight_update_sync:0000000000000020 .Loc.1191
/var/folders/xk/fjkh8m297bb3lq7fwx2mh0vh0000gq/T//cch8KZiZ.s:4953   .text.rgblight_update_sync:0000000000000020 .Loc.1192
/var/folders/xk/fjkh8m297bb3lq7fwx2mh0vh0000gq/T//cch8KZiZ.s:4955   .text.rgblight_update_sync:0000000000000022 .Loc.1193
/var/folders/xk/fjkh8m297bb3lq7fwx2mh0vh0000gq/T//cch8KZiZ.s:4960   .text.rgblight_update_sync:0000000000000028 .Loc.1194
/var/folders/xk/fjkh8m297bb3lq7fwx2mh0vh0000gq/T//cch8KZiZ.s:4961   .text.rgblight_update_sync:0000000000000028 .Loc.1195
/var/folders/xk/fjkh8m297bb3lq7fwx2mh0vh0000gq/T//cch8KZiZ.s:4965   .text.rgblight_update_sync:000000000000002e .Loc.1196
/var/folders/xk/fjkh8m297bb3lq7fwx2mh0vh0000gq/T//cch8KZiZ.s:4973   .text.rgblight_update_sync:000000000000003a .Loc.1197
/var/folders/xk/fjkh8m297bb3lq7fwx2mh0vh0000gq/T//cch8KZiZ.s:4974   .text.rgblight_update_sync:000000000000003a .Loc.1198
/var/folders/xk/fjkh8m297bb3lq7fwx2mh0vh0000gq/T//cch8KZiZ.s:4978   .text.rgblight_update_sync:0000000000000040 .Loc.1199
/var/folders/xk/fjkh8m297bb3lq7fwx2mh0vh0000gq/T//cch8KZiZ.s:4979   .text.rgblight_update_sync:0000000000000040 .Loc.1200
/var/folders/xk/fjkh8m297bb3lq7fwx2mh0vh0000gq/T//cch8KZiZ.s:4983   .text.rgblight_update_sync:0000000000000046 .Loc.1201
/var/folders/xk/fjkh8m297bb3lq7fwx2mh0vh0000gq/T//cch8KZiZ.s:4987   .text.rgblight_update_sync:000000000000004a .Loc.1202
/var/folders/xk/fjkh8m297bb3lq7fwx2mh0vh0000gq/T//cch8KZiZ.s:4988   .text.rgblight_update_sync:000000000000004a .Loc.1203
/var/folders/xk/fjkh8m297bb3lq7fwx2mh0vh0000gq/T//cch8KZiZ.s:4992   .text.rgblight_update_sync:0000000000000050 .Loc.1204
/var/folders/xk/fjkh8m297bb3lq7fwx2mh0vh0000gq/T//cch8KZiZ.s:4993   .text.rgblight_update_sync:0000000000000050 .Loc.1205
/var/folders/xk/fjkh8m297bb3lq7fwx2mh0vh0000gq/T//cch8KZiZ.s:4998   .text.rgblight_update_sync:0000000000000056 .Loc.1206
/var/folders/xk/fjkh8m297bb3lq7fwx2mh0vh0000gq/T//cch8KZiZ.s:5002   .text.rgblight_update_sync:000000000000005a .Loc.1207
/var/folders/xk/fjkh8m297bb3lq7fwx2mh0vh0000gq/T//cch8KZiZ.s:5005   .text.rgblight_update_sync:000000000000005c .Loc.1208
/var/folders/xk/fjkh8m297bb3lq7fwx2mh0vh0000gq/T//cch8KZiZ.s:5009   .text.rgblight_update_sync:000000000000005e .Loc.1209
/var/folders/xk/fjkh8m297bb3lq7fwx2mh0vh0000gq/T//cch8KZiZ.s:5014   .text.rgblight_update_sync:0000000000000064 .Loc.1210
/var/folders/xk/fjkh8m297bb3lq7fwx2mh0vh0000gq/T//cch8KZiZ.s:5018   .text.rgblight_update_sync:000000000000006a L0
/var/folders/xk/fjkh8m297bb3lq7fwx2mh0vh0000gq/T//cch8KZiZ.s:5024   .text.rgblight_timer_disable:0000000000000000 rgblight_timer_disable
/var/folders/xk/fjkh8m297bb3lq7fwx2mh0vh0000gq/T//cch8KZiZ.s:5026   .text.rgblight_timer_disable:0000000000000000 L0
/var/folders/xk/fjkh8m297bb3lq7fwx2mh0vh0000gq/T//cch8KZiZ.s:5032   .text.rgblight_timer_disable:0000000000000004 L0
/var/folders/xk/fjkh8m297bb3lq7fwx2mh0vh0000gq/T//cch8KZiZ.s:5038   .text.rgblight_timer_toggle:0000000000000000 rgblight_timer_toggle
/var/folders/xk/fjkh8m297bb3lq7fwx2mh0vh0000gq/T//cch8KZiZ.s:5040   .text.rgblight_timer_toggle:0000000000000000 .Loc.1211
/var/folders/xk/fjkh8m297bb3lq7fwx2mh0vh0000gq/T//cch8KZiZ.s:5041   .text.rgblight_timer_toggle:0000000000000000 L0
/var/folders/xk/fjkh8m297bb3lq7fwx2mh0vh0000gq/T//cch8KZiZ.s:5046   .text.rgblight_timer_toggle:0000000000000000 .Loc.1212
/var/folders/xk/fjkh8m297bb3lq7fwx2mh0vh0000gq/T//cch8KZiZ.s:5047   .text.rgblight_timer_toggle:0000000000000000 .Loc.1213
/var/folders/xk/fjkh8m297bb3lq7fwx2mh0vh0000gq/T//cch8KZiZ.s:5048   .text.rgblight_timer_toggle:0000000000000000 .Loc.1214
/var/folders/xk/fjkh8m297bb3lq7fwx2mh0vh0000gq/T//cch8KZiZ.s:5051   .text.rgblight_timer_toggle:0000000000000006 .Loc.1215
/var/folders/xk/fjkh8m297bb3lq7fwx2mh0vh0000gq/T//cch8KZiZ.s:5055   .text.rgblight_timer_toggle:000000000000000a .Loc.1216
/var/folders/xk/fjkh8m297bb3lq7fwx2mh0vh0000gq/T//cch8KZiZ.s:5058   .text.rgblight_timer_toggle:000000000000000e L0
/var/folders/xk/fjkh8m297bb3lq7fwx2mh0vh0000gq/T//cch8KZiZ.s:5064   .text.rgblight_show_solid_color:0000000000000000 rgblight_show_solid_color
/var/folders/xk/fjkh8m297bb3lq7fwx2mh0vh0000gq/T//cch8KZiZ.s:5067   .text.rgblight_show_solid_color:0000000000000000 .Loc.1217
/var/folders/xk/fjkh8m297bb3lq7fwx2mh0vh0000gq/T//cch8KZiZ.s:5068   .text.rgblight_show_solid_color:0000000000000000 L0
/var/folders/xk/fjkh8m297bb3lq7fwx2mh0vh0000gq/T//cch8KZiZ.s:5069   .text.rgblight_show_solid_color:0000000000000000 .Loc.1218
/var/folders/xk/fjkh8m297bb3lq7fwx2mh0vh0000gq/T//cch8KZiZ.s:5089   .text.rgblight_show_solid_color:000000000000000c .Loc.1219
/var/folders/xk/fjkh8m297bb3lq7fwx2mh0vh0000gq/T//cch8KZiZ.s:5092   .text.rgblight_show_solid_color:0000000000000010 .Loc.1220
/var/folders/xk/fjkh8m297bb3lq7fwx2mh0vh0000gq/T//cch8KZiZ.s:5096   .text.rgblight_show_solid_color:0000000000000016 .Loc.1221
/var/folders/xk/fjkh8m297bb3lq7fwx2mh0vh0000gq/T//cch8KZiZ.s:5101   .text.rgblight_show_solid_color:000000000000001c .Loc.1222
/var/folders/xk/fjkh8m297bb3lq7fwx2mh0vh0000gq/T//cch8KZiZ.s:5104   .text.rgblight_show_solid_color:000000000000001e .Loc.1223
/var/folders/xk/fjkh8m297bb3lq7fwx2mh0vh0000gq/T//cch8KZiZ.s:5107   .text.rgblight_show_solid_color:0000000000000020 .Loc.1224
/var/folders/xk/fjkh8m297bb3lq7fwx2mh0vh0000gq/T//cch8KZiZ.s:5110   .text.rgblight_show_solid_color:0000000000000022 .Loc.1225
/var/folders/xk/fjkh8m297bb3lq7fwx2mh0vh0000gq/T//cch8KZiZ.s:5113   .text.rgblight_show_solid_color:0000000000000026 .Loc.1226
/var/folders/xk/fjkh8m297bb3lq7fwx2mh0vh0000gq/T//cch8KZiZ.s:5114   .text.rgblight_show_solid_color:0000000000000026 L0
/var/folders/xk/fjkh8m297bb3lq7fwx2mh0vh0000gq/T//cch8KZiZ.s:5120   .text.rgblight_task:0000000000000000 rgblight_task
/var/folders/xk/fjkh8m297bb3lq7fwx2mh0vh0000gq/T//cch8KZiZ.s:5122   .text.rgblight_task:0000000000000000 .Loc.1227
/var/folders/xk/fjkh8m297bb3lq7fwx2mh0vh0000gq/T//cch8KZiZ.s:5123   .text.rgblight_task:0000000000000000 L0
/var/folders/xk/fjkh8m297bb3lq7fwx2mh0vh0000gq/T//cch8KZiZ.s:5152   .text.rgblight_task:000000000000000c .Loc.1228
/var/folders/xk/fjkh8m297bb3lq7fwx2mh0vh0000gq/T//cch8KZiZ.s:5153   .text.rgblight_task:000000000000000c .Loc.1229
/var/folders/xk/fjkh8m297bb3lq7fwx2mh0vh0000gq/T//cch8KZiZ.s:5156   .text.rgblight_task:0000000000000014 L0
/var/folders/xk/fjkh8m297bb3lq7fwx2mh0vh0000gq/T//cch8KZiZ.s:5159   .text.rgblight_task:0000000000000016 .Loc.1230
/var/folders/xk/fjkh8m297bb3lq7fwx2mh0vh0000gq/T//cch8KZiZ.s:5161   .text.rgblight_task:0000000000000016 .Loc.1231
/var/folders/xk/fjkh8m297bb3lq7fwx2mh0vh0000gq/T//cch8KZiZ.s:5162   .text.rgblight_task:0000000000000016 .Loc.1232
/var/folders/xk/fjkh8m297bb3lq7fwx2mh0vh0000gq/T//cch8KZiZ.s:5163   .text.rgblight_task:0000000000000016 .Loc.1233
/var/folders/xk/fjkh8m297bb3lq7fwx2mh0vh0000gq/T//cch8KZiZ.s:5165   .text.rgblight_task:000000000000001a .Loc.1234
/var/folders/xk/fjkh8m297bb3lq7fwx2mh0vh0000gq/T//cch8KZiZ.s:5168   .text.rgblight_task:0000000000000020 .Loc.1235
/var/folders/xk/fjkh8m297bb3lq7fwx2mh0vh0000gq/T//cch8KZiZ.s:5171   .text.rgblight_task:0000000000000022 .Loc.1236
/var/folders/xk/fjkh8m297bb3lq7fwx2mh0vh0000gq/T//cch8KZiZ.s:5172   .text.rgblight_task:0000000000000022 .Loc.1237
/var/folders/xk/fjkh8m297bb3lq7fwx2mh0vh0000gq/T//cch8KZiZ.s:5174   .text.rgblight_task:0000000000000026 .Loc.1238
/var/folders/xk/fjkh8m297bb3lq7fwx2mh0vh0000gq/T//cch8KZiZ.s:5175   .text.rgblight_task:0000000000000026 .Loc.1239
/var/folders/xk/fjkh8m297bb3lq7fwx2mh0vh0000gq/T//cch8KZiZ.s:5176   .text.rgblight_task:0000000000000026 .Loc.1240
/var/folders/xk/fjkh8m297bb3lq7fwx2mh0vh0000gq/T//cch8KZiZ.s:5178   .text.rgblight_task:000000000000002a L0
/var/folders/xk/fjkh8m297bb3lq7fwx2mh0vh0000gq/T//cch8KZiZ.s:5180   .text.rgblight_task:000000000000002c .Loc.1241
/var/folders/xk/fjkh8m297bb3lq7fwx2mh0vh0000gq/T//cch8KZiZ.s:5184   .text.rgblight_task:000000000000002c .Loc.1242
/var/folders/xk/fjkh8m297bb3lq7fwx2mh0vh0000gq/T//cch8KZiZ.s:5185   .text.rgblight_task:000000000000002c .Loc.1243
/var/folders/xk/fjkh8m297bb3lq7fwx2mh0vh0000gq/T//cch8KZiZ.s:5188   .text.rgblight_task:000000000000002c .Loc.1244
/var/folders/xk/fjkh8m297bb3lq7fwx2mh0vh0000gq/T//cch8KZiZ.s:5192   .text.rgblight_task:000000000000002c .Loc.1245
/var/folders/xk/fjkh8m297bb3lq7fwx2mh0vh0000gq/T//cch8KZiZ.s:5193   .text.rgblight_task:000000000000002c .Loc.1246
/var/folders/xk/fjkh8m297bb3lq7fwx2mh0vh0000gq/T//cch8KZiZ.s:5194   .text.rgblight_task:000000000000002c .Loc.1247
/var/folders/xk/fjkh8m297bb3lq7fwx2mh0vh0000gq/T//cch8KZiZ.s:5197   .text.rgblight_task:000000000000002c .Loc.1248
/var/folders/xk/fjkh8m297bb3lq7fwx2mh0vh0000gq/T//cch8KZiZ.s:5771   .progmem.data.RGBLED_BREATHING_INTERVALS:0000000000000000 RGBLED_BREATHING_INTERVALS
/var/folders/xk/fjkh8m297bb3lq7fwx2mh0vh0000gq/T//cch8KZiZ.s:5204   .text.rgblight_task:0000000000000032 .Loc.1249
/var/folders/xk/fjkh8m297bb3lq7fwx2mh0vh0000gq/T//cch8KZiZ.s:5211   .text.rgblight_task:0000000000000034 .Loc.1250
/var/folders/xk/fjkh8m297bb3lq7fwx2mh0vh0000gq/T//cch8KZiZ.s:5212   .text.rgblight_task:0000000000000034 .Loc.1251
/var/folders/xk/fjkh8m297bb3lq7fwx2mh0vh0000gq/T//cch8KZiZ.s:5216   .text.rgblight_task:0000000000000034 .Loc.1252
/var/folders/xk/fjkh8m297bb3lq7fwx2mh0vh0000gq/T//cch8KZiZ.s:5220   .text.rgblight_task:0000000000000038 .Loc.1253
/var/folders/xk/fjkh8m297bb3lq7fwx2mh0vh0000gq/T//cch8KZiZ.s:5221   .text.rgblight_task:0000000000000038 .Loc.1254
/var/folders/xk/fjkh8m297bb3lq7fwx2mh0vh0000gq/T//cch8KZiZ.s:5226   .text.rgblight_task:000000000000003c .Loc.1255
/var/folders/xk/fjkh8m297bb3lq7fwx2mh0vh0000gq/T//cch8KZiZ.s:5227   .text.rgblight_task:000000000000003c .Loc.1256
/var/folders/xk/fjkh8m297bb3lq7fwx2mh0vh0000gq/T//cch8KZiZ.s:5231   .text.rgblight_task:0000000000000044 .Loc.1257
/var/folders/xk/fjkh8m297bb3lq7fwx2mh0vh0000gq/T//cch8KZiZ.s:5232   .text.rgblight_task:0000000000000044 .Loc.1258
/var/folders/xk/fjkh8m297bb3lq7fwx2mh0vh0000gq/T//cch8KZiZ.s:5234   .text.rgblight_task:0000000000000048 .Loc.1259
/var/folders/xk/fjkh8m297bb3lq7fwx2mh0vh0000gq/T//cch8KZiZ.s:5235   .text.rgblight_task:0000000000000048 .Loc.1260
/var/folders/xk/fjkh8m297bb3lq7fwx2mh0vh0000gq/T//cch8KZiZ.s:5238   .text.rgblight_task:000000000000004c .Loc.1261
/var/folders/xk/fjkh8m297bb3lq7fwx2mh0vh0000gq/T//cch8KZiZ.s:5244   .text.rgblight_task:0000000000000056 .Loc.1262
/var/folders/xk/fjkh8m297bb3lq7fwx2mh0vh0000gq/T//cch8KZiZ.s:5247   .text.rgblight_task:000000000000005e .Loc.1263
/var/folders/xk/fjkh8m297bb3lq7fwx2mh0vh0000gq/T//cch8KZiZ.s:5248   .text.rgblight_task:000000000000005e .Loc.1264
/var/folders/xk/fjkh8m297bb3lq7fwx2mh0vh0000gq/T//cch8KZiZ.s:5252   .text.rgblight_task:0000000000000066 .Loc.1265
/var/folders/xk/fjkh8m297bb3lq7fwx2mh0vh0000gq/T//cch8KZiZ.s:5253   .text.rgblight_task:0000000000000066 .Loc.1266
/var/folders/xk/fjkh8m297bb3lq7fwx2mh0vh0000gq/T//cch8KZiZ.s:5258   .text.rgblight_task:0000000000000072 .Loc.1267
/var/folders/xk/fjkh8m297bb3lq7fwx2mh0vh0000gq/T//cch8KZiZ.s:5263   .text.rgblight_task:0000000000000078 .Loc.1268
/var/folders/xk/fjkh8m297bb3lq7fwx2mh0vh0000gq/T//cch8KZiZ.s:5264   .text.rgblight_task:0000000000000078 .Loc.1269
/var/folders/xk/fjkh8m297bb3lq7fwx2mh0vh0000gq/T//cch8KZiZ.s:5265   .text.rgblight_task:0000000000000078 .Loc.1270
/var/folders/xk/fjkh8m297bb3lq7fwx2mh0vh0000gq/T//cch8KZiZ.s:5266   .text.rgblight_task:0000000000000078 .Loc.1271
/var/folders/xk/fjkh8m297bb3lq7fwx2mh0vh0000gq/T//cch8KZiZ.s:5267   .text.rgblight_task:0000000000000078 .Loc.1272
/var/folders/xk/fjkh8m297bb3lq7fwx2mh0vh0000gq/T//cch8KZiZ.s:5714   .bss.tick_flag.3370:0000000000000000 tick_flag.3370
/var/folders/xk/fjkh8m297bb3lq7fwx2mh0vh0000gq/T//cch8KZiZ.s:5271   .text.rgblight_task:0000000000000080 .Loc.1273
/var/folders/xk/fjkh8m297bb3lq7fwx2mh0vh0000gq/T//cch8KZiZ.s:5272   .text.rgblight_task:0000000000000080 .Loc.1274
/var/folders/xk/fjkh8m297bb3lq7fwx2mh0vh0000gq/T//cch8KZiZ.s:5274   .text.rgblight_task:0000000000000084 .Loc.1275
/var/folders/xk/fjkh8m297bb3lq7fwx2mh0vh0000gq/T//cch8KZiZ.s:5275   .text.rgblight_task:0000000000000084 .Loc.1276
/var/folders/xk/fjkh8m297bb3lq7fwx2mh0vh0000gq/T//cch8KZiZ.s:5709   .bss.report_last_timer.3369:0000000000000000 report_last_timer.3369
/var/folders/xk/fjkh8m297bb3lq7fwx2mh0vh0000gq/T//cch8KZiZ.s:5280   .text.rgblight_task:0000000000000090 .Loc.1277
/var/folders/xk/fjkh8m297bb3lq7fwx2mh0vh0000gq/T//cch8KZiZ.s:5284   .text.rgblight_task:0000000000000096 .Loc.1278
/var/folders/xk/fjkh8m297bb3lq7fwx2mh0vh0000gq/T//cch8KZiZ.s:5285   .text.rgblight_task:0000000000000096 .Loc.1279
/var/folders/xk/fjkh8m297bb3lq7fwx2mh0vh0000gq/T//cch8KZiZ.s:5288   .text.rgblight_task:000000000000009a .Loc.1280
/var/folders/xk/fjkh8m297bb3lq7fwx2mh0vh0000gq/T//cch8KZiZ.s:5291   .text.rgblight_task:00000000000000a2 .Loc.1281
/var/folders/xk/fjkh8m297bb3lq7fwx2mh0vh0000gq/T//cch8KZiZ.s:5292   .text.rgblight_task:00000000000000a2 .Loc.1282
/var/folders/xk/fjkh8m297bb3lq7fwx2mh0vh0000gq/T//cch8KZiZ.s:5297   .text.rgblight_task:00000000000000ac .Loc.1283
/var/folders/xk/fjkh8m297bb3lq7fwx2mh0vh0000gq/T//cch8KZiZ.s:5298   .text.rgblight_task:00000000000000ac .Loc.1284
/var/folders/xk/fjkh8m297bb3lq7fwx2mh0vh0000gq/T//cch8KZiZ.s:5302   .text.rgblight_task:00000000000000b4 .Loc.1285
/var/folders/xk/fjkh8m297bb3lq7fwx2mh0vh0000gq/T//cch8KZiZ.s:5303   .text.rgblight_task:00000000000000b4 .Loc.1286
/var/folders/xk/fjkh8m297bb3lq7fwx2mh0vh0000gq/T//cch8KZiZ.s:5309   .text.rgblight_task:00000000000000c0 .Loc.1287
/var/folders/xk/fjkh8m297bb3lq7fwx2mh0vh0000gq/T//cch8KZiZ.s:5312   .text.rgblight_task:00000000000000c8 .Loc.1288
/var/folders/xk/fjkh8m297bb3lq7fwx2mh0vh0000gq/T//cch8KZiZ.s:5318   .text.rgblight_task:00000000000000d0 .Loc.1289
/var/folders/xk/fjkh8m297bb3lq7fwx2mh0vh0000gq/T//cch8KZiZ.s:5319   .text.rgblight_task:00000000000000d0 .Loc.1290
/var/folders/xk/fjkh8m297bb3lq7fwx2mh0vh0000gq/T//cch8KZiZ.s:5324   .text.rgblight_task:00000000000000dc .Loc.1291
/var/folders/xk/fjkh8m297bb3lq7fwx2mh0vh0000gq/T//cch8KZiZ.s:5327   .text.rgblight_task:00000000000000e0 .Loc.1292
/var/folders/xk/fjkh8m297bb3lq7fwx2mh0vh0000gq/T//cch8KZiZ.s:5328   .text.rgblight_task:00000000000000e0 .Loc.1293
/var/folders/xk/fjkh8m297bb3lq7fwx2mh0vh0000gq/T//cch8KZiZ.s:5334   .text.rgblight_task:00000000000000e6 .Loc.1294
/var/folders/xk/fjkh8m297bb3lq7fwx2mh0vh0000gq/T//cch8KZiZ.s:5337   .text.rgblight_task:00000000000000e6 .Loc.1295
/var/folders/xk/fjkh8m297bb3lq7fwx2mh0vh0000gq/T//cch8KZiZ.s:5348   .text.rgblight_task:00000000000000f4 .Loc.1296
/var/folders/xk/fjkh8m297bb3lq7fwx2mh0vh0000gq/T//cch8KZiZ.s:5349   .text.rgblight_task:00000000000000f4 .Loc.1297
/var/folders/xk/fjkh8m297bb3lq7fwx2mh0vh0000gq/T//cch8KZiZ.s:5352   .text.rgblight_task:00000000000000f8 .Loc.1298
/var/folders/xk/fjkh8m297bb3lq7fwx2mh0vh0000gq/T//cch8KZiZ.s:5356   .text.rgblight_task:00000000000000f8 .Loc.1299
/var/folders/xk/fjkh8m297bb3lq7fwx2mh0vh0000gq/T//cch8KZiZ.s:5357   .text.rgblight_task:00000000000000f8 .Loc.1300
/var/folders/xk/fjkh8m297bb3lq7fwx2mh0vh0000gq/T//cch8KZiZ.s:5360   .text.rgblight_task:00000000000000f8 .Loc.1301
/var/folders/xk/fjkh8m297bb3lq7fwx2mh0vh0000gq/T//cch8KZiZ.s:5364   .text.rgblight_task:00000000000000f8 .Loc.1302
/var/folders/xk/fjkh8m297bb3lq7fwx2mh0vh0000gq/T//cch8KZiZ.s:5365   .text.rgblight_task:00000000000000f8 .Loc.1303
/var/folders/xk/fjkh8m297bb3lq7fwx2mh0vh0000gq/T//cch8KZiZ.s:5366   .text.rgblight_task:00000000000000f8 .Loc.1304
/var/folders/xk/fjkh8m297bb3lq7fwx2mh0vh0000gq/T//cch8KZiZ.s:5369   .text.rgblight_task:00000000000000f8 .Loc.1305
/var/folders/xk/fjkh8m297bb3lq7fwx2mh0vh0000gq/T//cch8KZiZ.s:5763   .progmem.data.RGBLED_RAINBOW_MOOD_INTERVALS:0000000000000000 RGBLED_RAINBOW_MOOD_INTERVALS
/var/folders/xk/fjkh8m297bb3lq7fwx2mh0vh0000gq/T//cch8KZiZ.s:5376   .text.rgblight_task:00000000000000fe .Loc.1306
/var/folders/xk/fjkh8m297bb3lq7fwx2mh0vh0000gq/T//cch8KZiZ.s:5383   .text.rgblight_task:0000000000000100 .Loc.1307
/var/folders/xk/fjkh8m297bb3lq7fwx2mh0vh0000gq/T//cch8KZiZ.s:5384   .text.rgblight_task:0000000000000100 .Loc.1308
/var/folders/xk/fjkh8m297bb3lq7fwx2mh0vh0000gq/T//cch8KZiZ.s:5388   .text.rgblight_task:0000000000000100 .Loc.1309
/var/folders/xk/fjkh8m297bb3lq7fwx2mh0vh0000gq/T//cch8KZiZ.s:5392   .text.rgblight_task:0000000000000104 .Loc.1310
/var/folders/xk/fjkh8m297bb3lq7fwx2mh0vh0000gq/T//cch8KZiZ.s:5393   .text.rgblight_task:0000000000000104 .Loc.1311
/var/folders/xk/fjkh8m297bb3lq7fwx2mh0vh0000gq/T//cch8KZiZ.s:5399   .text.rgblight_task:000000000000010a .Loc.1312
/var/folders/xk/fjkh8m297bb3lq7fwx2mh0vh0000gq/T//cch8KZiZ.s:5400   .text.rgblight_task:000000000000010a .Loc.1313
/var/folders/xk/fjkh8m297bb3lq7fwx2mh0vh0000gq/T//cch8KZiZ.s:5403   .text.rgblight_task:000000000000010e .Loc.1314
/var/folders/xk/fjkh8m297bb3lq7fwx2mh0vh0000gq/T//cch8KZiZ.s:5407   .text.rgblight_task:000000000000010e .Loc.1315
/var/folders/xk/fjkh8m297bb3lq7fwx2mh0vh0000gq/T//cch8KZiZ.s:5408   .text.rgblight_task:000000000000010e .Loc.1316
/var/folders/xk/fjkh8m297bb3lq7fwx2mh0vh0000gq/T//cch8KZiZ.s:5411   .text.rgblight_task:000000000000010e .Loc.1317
/var/folders/xk/fjkh8m297bb3lq7fwx2mh0vh0000gq/T//cch8KZiZ.s:5415   .text.rgblight_task:000000000000010e .Loc.1318
/var/folders/xk/fjkh8m297bb3lq7fwx2mh0vh0000gq/T//cch8KZiZ.s:5416   .text.rgblight_task:000000000000010e .Loc.1319
/var/folders/xk/fjkh8m297bb3lq7fwx2mh0vh0000gq/T//cch8KZiZ.s:5417   .text.rgblight_task:000000000000010e .Loc.1320
/var/folders/xk/fjkh8m297bb3lq7fwx2mh0vh0000gq/T//cch8KZiZ.s:5420   .text.rgblight_task:000000000000010e .Loc.1321
/var/folders/xk/fjkh8m297bb3lq7fwx2mh0vh0000gq/T//cch8KZiZ.s:5423   .text.rgblight_task:0000000000000110 .Loc.1322
/var/folders/xk/fjkh8m297bb3lq7fwx2mh0vh0000gq/T//cch8KZiZ.s:5755   .progmem.data.RGBLED_RAINBOW_SWIRL_INTERVALS:0000000000000000 RGBLED_RAINBOW_SWIRL_INTERVALS
/var/folders/xk/fjkh8m297bb3lq7fwx2mh0vh0000gq/T//cch8KZiZ.s:5429   .text.rgblight_task:0000000000000116 .Loc.1323
/var/folders/xk/fjkh8m297bb3lq7fwx2mh0vh0000gq/T//cch8KZiZ.s:5436   .text.rgblight_task:0000000000000118 .Loc.1324
/var/folders/xk/fjkh8m297bb3lq7fwx2mh0vh0000gq/T//cch8KZiZ.s:5437   .text.rgblight_task:0000000000000118 .Loc.1325
/var/folders/xk/fjkh8m297bb3lq7fwx2mh0vh0000gq/T//cch8KZiZ.s:5441   .text.rgblight_task:0000000000000118 .Loc.1326
/var/folders/xk/fjkh8m297bb3lq7fwx2mh0vh0000gq/T//cch8KZiZ.s:5445   .text.rgblight_task:000000000000011c .Loc.1327
/var/folders/xk/fjkh8m297bb3lq7fwx2mh0vh0000gq/T//cch8KZiZ.s:5446   .text.rgblight_task:000000000000011c .Loc.1328
/var/folders/xk/fjkh8m297bb3lq7fwx2mh0vh0000gq/T//cch8KZiZ.s:5452   .text.rgblight_task:0000000000000122 .Loc.1329
/var/folders/xk/fjkh8m297bb3lq7fwx2mh0vh0000gq/T//cch8KZiZ.s:5453   .text.rgblight_task:0000000000000122 .Loc.1330
/var/folders/xk/fjkh8m297bb3lq7fwx2mh0vh0000gq/T//cch8KZiZ.s:5456   .text.rgblight_task:0000000000000126 .Loc.1331
/var/folders/xk/fjkh8m297bb3lq7fwx2mh0vh0000gq/T//cch8KZiZ.s:5460   .text.rgblight_task:0000000000000126 .Loc.1332
/var/folders/xk/fjkh8m297bb3lq7fwx2mh0vh0000gq/T//cch8KZiZ.s:5461   .text.rgblight_task:0000000000000126 .Loc.1333
/var/folders/xk/fjkh8m297bb3lq7fwx2mh0vh0000gq/T//cch8KZiZ.s:5464   .text.rgblight_task:0000000000000126 .Loc.1334
/var/folders/xk/fjkh8m297bb3lq7fwx2mh0vh0000gq/T//cch8KZiZ.s:5468   .text.rgblight_task:0000000000000126 .Loc.1335
/var/folders/xk/fjkh8m297bb3lq7fwx2mh0vh0000gq/T//cch8KZiZ.s:5469   .text.rgblight_task:0000000000000126 .Loc.1336
/var/folders/xk/fjkh8m297bb3lq7fwx2mh0vh0000gq/T//cch8KZiZ.s:5470   .text.rgblight_task:0000000000000126 .Loc.1337
/var/folders/xk/fjkh8m297bb3lq7fwx2mh0vh0000gq/T//cch8KZiZ.s:5473   .text.rgblight_task:0000000000000126 .Loc.1338
/var/folders/xk/fjkh8m297bb3lq7fwx2mh0vh0000gq/T//cch8KZiZ.s:5476   .text.rgblight_task:0000000000000128 .Loc.1339
/var/folders/xk/fjkh8m297bb3lq7fwx2mh0vh0000gq/T//cch8KZiZ.s:5747   .progmem.data.RGBLED_SNAKE_INTERVALS:0000000000000000 RGBLED_SNAKE_INTERVALS
/var/folders/xk/fjkh8m297bb3lq7fwx2mh0vh0000gq/T//cch8KZiZ.s:5482   .text.rgblight_task:000000000000012e .Loc.1340
/var/folders/xk/fjkh8m297bb3lq7fwx2mh0vh0000gq/T//cch8KZiZ.s:5489   .text.rgblight_task:0000000000000130 .Loc.1341
/var/folders/xk/fjkh8m297bb3lq7fwx2mh0vh0000gq/T//cch8KZiZ.s:5490   .text.rgblight_task:0000000000000130 .Loc.1342
/var/folders/xk/fjkh8m297bb3lq7fwx2mh0vh0000gq/T//cch8KZiZ.s:5494   .text.rgblight_task:0000000000000130 .Loc.1343
/var/folders/xk/fjkh8m297bb3lq7fwx2mh0vh0000gq/T//cch8KZiZ.s:5498   .text.rgblight_task:0000000000000134 .Loc.1344
/var/folders/xk/fjkh8m297bb3lq7fwx2mh0vh0000gq/T//cch8KZiZ.s:5499   .text.rgblight_task:0000000000000134 .Loc.1345
/var/folders/xk/fjkh8m297bb3lq7fwx2mh0vh0000gq/T//cch8KZiZ.s:5505   .text.rgblight_task:000000000000013a .Loc.1346
/var/folders/xk/fjkh8m297bb3lq7fwx2mh0vh0000gq/T//cch8KZiZ.s:5506   .text.rgblight_task:000000000000013a .Loc.1347
/var/folders/xk/fjkh8m297bb3lq7fwx2mh0vh0000gq/T//cch8KZiZ.s:5509   .text.rgblight_task:000000000000013e .Loc.1348
/var/folders/xk/fjkh8m297bb3lq7fwx2mh0vh0000gq/T//cch8KZiZ.s:5513   .text.rgblight_task:000000000000013e .Loc.1349
/var/folders/xk/fjkh8m297bb3lq7fwx2mh0vh0000gq/T//cch8KZiZ.s:5514   .text.rgblight_task:000000000000013e .Loc.1350
/var/folders/xk/fjkh8m297bb3lq7fwx2mh0vh0000gq/T//cch8KZiZ.s:5517   .text.rgblight_task:000000000000013e .Loc.1351
/var/folders/xk/fjkh8m297bb3lq7fwx2mh0vh0000gq/T//cch8KZiZ.s:5521   .text.rgblight_task:000000000000013e .Loc.1352
/var/folders/xk/fjkh8m297bb3lq7fwx2mh0vh0000gq/T//cch8KZiZ.s:5522   .text.rgblight_task:000000000000013e .Loc.1353
/var/folders/xk/fjkh8m297bb3lq7fwx2mh0vh0000gq/T//cch8KZiZ.s:5523   .text.rgblight_task:000000000000013e .Loc.1354
/var/folders/xk/fjkh8m297bb3lq7fwx2mh0vh0000gq/T//cch8KZiZ.s:5526   .text.rgblight_task:000000000000013e .Loc.1355
/var/folders/xk/fjkh8m297bb3lq7fwx2mh0vh0000gq/T//cch8KZiZ.s:5739   .progmem.data.RGBLED_KNIGHT_INTERVALS:0000000000000000 RGBLED_KNIGHT_INTERVALS
/var/folders/xk/fjkh8m297bb3lq7fwx2mh0vh0000gq/T//cch8KZiZ.s:5533   .text.rgblight_task:0000000000000144 .Loc.1356
/var/folders/xk/fjkh8m297bb3lq7fwx2mh0vh0000gq/T//cch8KZiZ.s:5540   .text.rgblight_task:0000000000000146 .Loc.1357
/var/folders/xk/fjkh8m297bb3lq7fwx2mh0vh0000gq/T//cch8KZiZ.s:5541   .text.rgblight_task:0000000000000146 .Loc.1358
/var/folders/xk/fjkh8m297bb3lq7fwx2mh0vh0000gq/T//cch8KZiZ.s:5545   .text.rgblight_task:0000000000000146 .Loc.1359
/var/folders/xk/fjkh8m297bb3lq7fwx2mh0vh0000gq/T//cch8KZiZ.s:5549   .text.rgblight_task:000000000000014a .Loc.1360
/var/folders/xk/fjkh8m297bb3lq7fwx2mh0vh0000gq/T//cch8KZiZ.s:5550   .text.rgblight_task:000000000000014a .Loc.1361
/var/folders/xk/fjkh8m297bb3lq7fwx2mh0vh0000gq/T//cch8KZiZ.s:5556   .text.rgblight_task:0000000000000150 .Loc.1362
/var/folders/xk/fjkh8m297bb3lq7fwx2mh0vh0000gq/T//cch8KZiZ.s:5557   .text.rgblight_task:0000000000000150 .Loc.1363
/var/folders/xk/fjkh8m297bb3lq7fwx2mh0vh0000gq/T//cch8KZiZ.s:5560   .text.rgblight_task:0000000000000154 .Loc.1364
/var/folders/xk/fjkh8m297bb3lq7fwx2mh0vh0000gq/T//cch8KZiZ.s:5563   .text.rgblight_task:0000000000000158 .Loc.1365
/var/folders/xk/fjkh8m297bb3lq7fwx2mh0vh0000gq/T//cch8KZiZ.s:5565   .text.rgblight_task:000000000000015c L0
/var/folders/xk/fjkh8m297bb3lq7fwx2mh0vh0000gq/T//cch8KZiZ.s:5567   .text.rgblight_task:000000000000015e .Loc.1366
/var/folders/xk/fjkh8m297bb3lq7fwx2mh0vh0000gq/T//cch8KZiZ.s:5568   .text.rgblight_task:000000000000015e .Loc.1367
/var/folders/xk/fjkh8m297bb3lq7fwx2mh0vh0000gq/T//cch8KZiZ.s:5571   .text.rgblight_task:0000000000000162 .Loc.1368
/var/folders/xk/fjkh8m297bb3lq7fwx2mh0vh0000gq/T//cch8KZiZ.s:5573   .text.rgblight_task:0000000000000162 .Loc.1369
/var/folders/xk/fjkh8m297bb3lq7fwx2mh0vh0000gq/T//cch8KZiZ.s:5575   .text.rgblight_task:0000000000000162 .Loc.1370
/var/folders/xk/fjkh8m297bb3lq7fwx2mh0vh0000gq/T//cch8KZiZ.s:5576   .text.rgblight_task:0000000000000162 .Loc.1371
/var/folders/xk/fjkh8m297bb3lq7fwx2mh0vh0000gq/T//cch8KZiZ.s:5733   .progmem.data.RGBLED_RGBTEST_INTERVALS:0000000000000000 RGBLED_RGBTEST_INTERVALS
/var/folders/xk/fjkh8m297bb3lq7fwx2mh0vh0000gq/T//cch8KZiZ.s:5580   .text.rgblight_task:0000000000000166 .Loc.1372
/var/folders/xk/fjkh8m297bb3lq7fwx2mh0vh0000gq/T//cch8KZiZ.s:5588   .text.rgblight_task:000000000000016a .Loc.1373
/var/folders/xk/fjkh8m297bb3lq7fwx2mh0vh0000gq/T//cch8KZiZ.s:5589   .text.rgblight_task:000000000000016a .Loc.1374
/var/folders/xk/fjkh8m297bb3lq7fwx2mh0vh0000gq/T//cch8KZiZ.s:5592   .text.rgblight_task:000000000000016a .Loc.1375
/var/folders/xk/fjkh8m297bb3lq7fwx2mh0vh0000gq/T//cch8KZiZ.s:5593   .text.rgblight_task:000000000000016a .Loc.1376
/var/folders/xk/fjkh8m297bb3lq7fwx2mh0vh0000gq/T//cch8KZiZ.s:5599   .text.rgblight_task:0000000000000170 .Loc.1377
/var/folders/xk/fjkh8m297bb3lq7fwx2mh0vh0000gq/T//cch8KZiZ.s:5600   .text.rgblight_task:0000000000000170 .Loc.1378
/var/folders/xk/fjkh8m297bb3lq7fwx2mh0vh0000gq/T//cch8KZiZ.s:5603   .text.rgblight_task:0000000000000174 .Loc.1379
/var/folders/xk/fjkh8m297bb3lq7fwx2mh0vh0000gq/T//cch8KZiZ.s:5606   .text.rgblight_task:0000000000000178 .Loc.1380
/var/folders/xk/fjkh8m297bb3lq7fwx2mh0vh0000gq/T//cch8KZiZ.s:5608   .text.rgblight_task:000000000000017c L0
/var/folders/xk/fjkh8m297bb3lq7fwx2mh0vh0000gq/T//cch8KZiZ.s:5610   .text.rgblight_task:000000000000017e .Loc.1381
/var/folders/xk/fjkh8m297bb3lq7fwx2mh0vh0000gq/T//cch8KZiZ.s:5611   .text.rgblight_task:000000000000017e .Loc.1382
/var/folders/xk/fjkh8m297bb3lq7fwx2mh0vh0000gq/T//cch8KZiZ.s:5614   .text.rgblight_task:0000000000000182 .Loc.1383
/var/folders/xk/fjkh8m297bb3lq7fwx2mh0vh0000gq/T//cch8KZiZ.s:5617   .text.rgblight_task:0000000000000186 .Loc.1384
/var/folders/xk/fjkh8m297bb3lq7fwx2mh0vh0000gq/T//cch8KZiZ.s:5619   .text.rgblight_task:000000000000018a L0
/var/folders/xk/fjkh8m297bb3lq7fwx2mh0vh0000gq/T//cch8KZiZ.s:5621   .text.rgblight_task:000000000000018c .Loc.1385
/var/folders/xk/fjkh8m297bb3lq7fwx2mh0vh0000gq/T//cch8KZiZ.s:5625   .text.rgblight_task:000000000000018c .Loc.1386
/var/folders/xk/fjkh8m297bb3lq7fwx2mh0vh0000gq/T//cch8KZiZ.s:5626   .text.rgblight_task:000000000000018c .Loc.1387
/var/folders/xk/fjkh8m297bb3lq7fwx2mh0vh0000gq/T//cch8KZiZ.s:5629   .text.rgblight_task:000000000000018c .Loc.1388
/var/folders/xk/fjkh8m297bb3lq7fwx2mh0vh0000gq/T//cch8KZiZ.s:5633   .text.rgblight_task:000000000000018c .Loc.1389
/var/folders/xk/fjkh8m297bb3lq7fwx2mh0vh0000gq/T//cch8KZiZ.s:5634   .text.rgblight_task:000000000000018c .Loc.1390
/var/folders/xk/fjkh8m297bb3lq7fwx2mh0vh0000gq/T//cch8KZiZ.s:5635   .text.rgblight_task:000000000000018c .Loc.1391
/var/folders/xk/fjkh8m297bb3lq7fwx2mh0vh0000gq/T//cch8KZiZ.s:5638   .text.rgblight_task:000000000000018c .Loc.1392
/var/folders/xk/fjkh8m297bb3lq7fwx2mh0vh0000gq/T//cch8KZiZ.s:5642   .text.rgblight_task:0000000000000194 .Loc.1393
/var/folders/xk/fjkh8m297bb3lq7fwx2mh0vh0000gq/T//cch8KZiZ.s:5645   .text.rgblight_task:0000000000000196 .Loc.1394
/var/folders/xk/fjkh8m297bb3lq7fwx2mh0vh0000gq/T//cch8KZiZ.s:5725   .progmem.data.RGBLED_TWINKLE_INTERVALS:0000000000000000 RGBLED_TWINKLE_INTERVALS
/var/folders/xk/fjkh8m297bb3lq7fwx2mh0vh0000gq/T//cch8KZiZ.s:5651   .text.rgblight_task:000000000000019c .Loc.1395
/var/folders/xk/fjkh8m297bb3lq7fwx2mh0vh0000gq/T//cch8KZiZ.s:5658   .text.rgblight_task:000000000000019e .Loc.1396
/var/folders/xk/fjkh8m297bb3lq7fwx2mh0vh0000gq/T//cch8KZiZ.s:5659   .text.rgblight_task:000000000000019e .Loc.1397
/var/folders/xk/fjkh8m297bb3lq7fwx2mh0vh0000gq/T//cch8KZiZ.s:5663   .text.rgblight_task:000000000000019e .Loc.1398
/var/folders/xk/fjkh8m297bb3lq7fwx2mh0vh0000gq/T//cch8KZiZ.s:5667   .text.rgblight_task:00000000000001a2 .Loc.1399
/var/folders/xk/fjkh8m297bb3lq7fwx2mh0vh0000gq/T//cch8KZiZ.s:5668   .text.rgblight_task:00000000000001a2 .Loc.1400
/var/folders/xk/fjkh8m297bb3lq7fwx2mh0vh0000gq/T//cch8KZiZ.s:5673   .text.rgblight_task:00000000000001a8 L0
/var/folders/xk/fjkh8m297bb3lq7fwx2mh0vh0000gq/T//cch8KZiZ.s:28     .text.rgblight_effect_dummy:0000000000000002 L0
/var/folders/xk/fjkh8m297bb3lq7fwx2mh0vh0000gq/T//cch8KZiZ.s:54     .text.rgblight_set_clipping_range:000000000000000a L0
/var/folders/xk/fjkh8m297bb3lq7fwx2mh0vh0000gq/T//cch8KZiZ.s:100    .text.rgblight_set_effect_range:0000000000000022 L0
/var/folders/xk/fjkh8m297bb3lq7fwx2mh0vh0000gq/T//cch8KZiZ.s:120    .text.rgblight_hsv_to_rgb:0000000000000004 L0
/var/folders/xk/fjkh8m297bb3lq7fwx2mh0vh0000gq/T//cch8KZiZ.s:182    .text.sethsv_raw:000000000000001c L0
/var/folders/xk/fjkh8m297bb3lq7fwx2mh0vh0000gq/T//cch8KZiZ.s:207    .text.sethsv:000000000000000a L0
/var/folders/xk/fjkh8m297bb3lq7fwx2mh0vh0000gq/T//cch8KZiZ.s:236    .text.setrgb:000000000000000a L0
/var/folders/xk/fjkh8m297bb3lq7fwx2mh0vh0000gq/T//cch8KZiZ.s:288    .text.rgblight_check_config:000000000000002c L0
/var/folders/xk/fjkh8m297bb3lq7fwx2mh0vh0000gq/T//cch8KZiZ.s:308    .text.eeconfig_read_rgblight:0000000000000008 L0
/var/folders/xk/fjkh8m297bb3lq7fwx2mh0vh0000gq/T//cch8KZiZ.s:359    .text.eeconfig_update_rgblight:0000000000000024 L0
/var/folders/xk/fjkh8m297bb3lq7fwx2mh0vh0000gq/T//cch8KZiZ.s:380    .text.eeconfig_update_rgblight_current:0000000000000014 L0
/var/folders/xk/fjkh8m297bb3lq7fwx2mh0vh0000gq/T//cch8KZiZ.s:431    .text.eeconfig_update_rgblight_default:0000000000000030 L0
/var/folders/xk/fjkh8m297bb3lq7fwx2mh0vh0000gq/T//cch8KZiZ.s:455    .text.eeconfig_debug_rgblight:0000000000000002 L0
/var/folders/xk/fjkh8m297bb3lq7fwx2mh0vh0000gq/T//cch8KZiZ.s:478    .text.rgblight_read_dword:0000000000000012 L0
/var/folders/xk/fjkh8m297bb3lq7fwx2mh0vh0000gq/T//cch8KZiZ.s:508    .text.rgblight_get_mode:0000000000000010 L0
/var/folders/xk/fjkh8m297bb3lq7fwx2mh0vh0000gq/T//cch8KZiZ.s:529    .text.rgblight_is_enabled:0000000000000008 L0
/var/folders/xk/fjkh8m297bb3lq7fwx2mh0vh0000gq/T//cch8KZiZ.s:570    .text.rgblight_increase_speed_helper:0000000000000028 L0
/var/folders/xk/fjkh8m297bb3lq7fwx2mh0vh0000gq/T//cch8KZiZ.s:588    .text.rgblight_increase_speed:0000000000000006 L0
/var/folders/xk/fjkh8m297bb3lq7fwx2mh0vh0000gq/T//cch8KZiZ.s:606    .text.rgblight_increase_speed_noeeprom:0000000000000006 L0
/var/folders/xk/fjkh8m297bb3lq7fwx2mh0vh0000gq/T//cch8KZiZ.s:647    .text.rgblight_decrease_speed_helper:0000000000000028 L0
/var/folders/xk/fjkh8m297bb3lq7fwx2mh0vh0000gq/T//cch8KZiZ.s:665    .text.rgblight_decrease_speed:0000000000000006 L0
/var/folders/xk/fjkh8m297bb3lq7fwx2mh0vh0000gq/T//cch8KZiZ.s:683    .text.rgblight_decrease_speed_noeeprom:0000000000000006 L0
/var/folders/xk/fjkh8m297bb3lq7fwx2mh0vh0000gq/T//cch8KZiZ.s:702    .text.rgblight_get_speed:0000000000000006 L0
/var/folders/xk/fjkh8m297bb3lq7fwx2mh0vh0000gq/T//cch8KZiZ.s:737    .text.rgblight_set_speed_eeprom_helper:000000000000001e L0
/var/folders/xk/fjkh8m297bb3lq7fwx2mh0vh0000gq/T//cch8KZiZ.s:757    .text.rgblight_set_speed:0000000000000006 L0
/var/folders/xk/fjkh8m297bb3lq7fwx2mh0vh0000gq/T//cch8KZiZ.s:777    .text.rgblight_set_speed_noeeprom:0000000000000006 L0
/var/folders/xk/fjkh8m297bb3lq7fwx2mh0vh0000gq/T//cch8KZiZ.s:796    .text.rgblight_get_hue:0000000000000006 L0
/var/folders/xk/fjkh8m297bb3lq7fwx2mh0vh0000gq/T//cch8KZiZ.s:815    .text.rgblight_get_sat:0000000000000006 L0
/var/folders/xk/fjkh8m297bb3lq7fwx2mh0vh0000gq/T//cch8KZiZ.s:834    .text.rgblight_get_val:0000000000000006 L0
/var/folders/xk/fjkh8m297bb3lq7fwx2mh0vh0000gq/T//cch8KZiZ.s:859    .text.rgblight_get_hsv:000000000000000c L0
/var/folders/xk/fjkh8m297bb3lq7fwx2mh0vh0000gq/T//cch8KZiZ.s:879    .text.rgblight_call_driver:0000000000000006 L0
/var/folders/xk/fjkh8m297bb3lq7fwx2mh0vh0000gq/T//cch8KZiZ.s:956    .text.rgblight_set:0000000000000044 L0
/var/folders/xk/fjkh8m297bb3lq7fwx2mh0vh0000gq/T//cch8KZiZ.s:1026   .text.rgblight_setrgb:0000000000000032 L0
/var/folders/xk/fjkh8m297bb3lq7fwx2mh0vh0000gq/T//cch8KZiZ.s:1088   .text.rgblight_sethsv_noeeprom_old:0000000000000034 L0
/var/folders/xk/fjkh8m297bb3lq7fwx2mh0vh0000gq/T//cch8KZiZ.s:1156   .text.rgblight_effect_breathing:0000000000000028 L0
/var/folders/xk/fjkh8m297bb3lq7fwx2mh0vh0000gq/T//cch8KZiZ.s:1203   .text.rgblight_effect_rainbow_mood:0000000000000020 L0
/var/folders/xk/fjkh8m297bb3lq7fwx2mh0vh0000gq/T//cch8KZiZ.s:1348   .text.rgblight_effect_rgbtest:000000000000007e L0
/var/folders/xk/fjkh8m297bb3lq7fwx2mh0vh0000gq/T//cch8KZiZ.s:1689   .text.rgblight_sethsv_eeprom_helper:0000000000000146 L0
/var/folders/xk/fjkh8m297bb3lq7fwx2mh0vh0000gq/T//cch8KZiZ.s:1723   .text.rgblight_increase_hue_helper:0000000000000014 L0
/var/folders/xk/fjkh8m297bb3lq7fwx2mh0vh0000gq/T//cch8KZiZ.s:1741   .text.rgblight_increase_hue_noeeprom:0000000000000006 L0
/var/folders/xk/fjkh8m297bb3lq7fwx2mh0vh0000gq/T//cch8KZiZ.s:1759   .text.rgblight_increase_hue:0000000000000006 L0
/var/folders/xk/fjkh8m297bb3lq7fwx2mh0vh0000gq/T//cch8KZiZ.s:1793   .text.rgblight_decrease_hue_helper:0000000000000014 L0
/var/folders/xk/fjkh8m297bb3lq7fwx2mh0vh0000gq/T//cch8KZiZ.s:1811   .text.rgblight_decrease_hue_noeeprom:0000000000000006 L0
/var/folders/xk/fjkh8m297bb3lq7fwx2mh0vh0000gq/T//cch8KZiZ.s:1829   .text.rgblight_decrease_hue:0000000000000006 L0
/var/folders/xk/fjkh8m297bb3lq7fwx2mh0vh0000gq/T//cch8KZiZ.s:1883   .text.rgblight_increase_sat_helper:0000000000000018 L0
/var/folders/xk/fjkh8m297bb3lq7fwx2mh0vh0000gq/T//cch8KZiZ.s:1901   .text.rgblight_increase_sat_noeeprom:0000000000000006 L0
/var/folders/xk/fjkh8m297bb3lq7fwx2mh0vh0000gq/T//cch8KZiZ.s:1919   .text.rgblight_increase_sat:0000000000000006 L0
/var/folders/xk/fjkh8m297bb3lq7fwx2mh0vh0000gq/T//cch8KZiZ.s:1972   .text.rgblight_decrease_sat_helper:0000000000000018 L0
/var/folders/xk/fjkh8m297bb3lq7fwx2mh0vh0000gq/T//cch8KZiZ.s:1990   .text.rgblight_decrease_sat_noeeprom:0000000000000006 L0
/var/folders/xk/fjkh8m297bb3lq7fwx2mh0vh0000gq/T//cch8KZiZ.s:2008   .text.rgblight_decrease_sat:0000000000000006 L0
/var/folders/xk/fjkh8m297bb3lq7fwx2mh0vh0000gq/T//cch8KZiZ.s:2061   .text.rgblight_increase_val_helper:0000000000000018 L0
/var/folders/xk/fjkh8m297bb3lq7fwx2mh0vh0000gq/T//cch8KZiZ.s:2079   .text.rgblight_increase_val_noeeprom:0000000000000006 L0
/var/folders/xk/fjkh8m297bb3lq7fwx2mh0vh0000gq/T//cch8KZiZ.s:2097   .text.rgblight_increase_val:0000000000000006 L0
/var/folders/xk/fjkh8m297bb3lq7fwx2mh0vh0000gq/T//cch8KZiZ.s:2150   .text.rgblight_decrease_val_helper:0000000000000018 L0
/var/folders/xk/fjkh8m297bb3lq7fwx2mh0vh0000gq/T//cch8KZiZ.s:2168   .text.rgblight_decrease_val_noeeprom:0000000000000006 L0
/var/folders/xk/fjkh8m297bb3lq7fwx2mh0vh0000gq/T//cch8KZiZ.s:2186   .text.rgblight_decrease_val:0000000000000006 L0
/var/folders/xk/fjkh8m297bb3lq7fwx2mh0vh0000gq/T//cch8KZiZ.s:2206   .text.rgblight_sethsv:0000000000000006 L0
/var/folders/xk/fjkh8m297bb3lq7fwx2mh0vh0000gq/T//cch8KZiZ.s:2226   .text.rgblight_sethsv_noeeprom:0000000000000006 L0
/var/folders/xk/fjkh8m297bb3lq7fwx2mh0vh0000gq/T//cch8KZiZ.s:2275   .text.rgblight_setrgb_at:0000000000000028 L0
/var/folders/xk/fjkh8m297bb3lq7fwx2mh0vh0000gq/T//cch8KZiZ.s:2346   .text.rgblight_sethsv_at:000000000000003c L0
/var/folders/xk/fjkh8m297bb3lq7fwx2mh0vh0000gq/T//cch8KZiZ.s:2439   .text.rgblight_setrgb_range:0000000000000040 L0
/var/folders/xk/fjkh8m297bb3lq7fwx2mh0vh0000gq/T//cch8KZiZ.s:2517   .text.rgblight_sethsv_range:0000000000000040 L0
/var/folders/xk/fjkh8m297bb3lq7fwx2mh0vh0000gq/T//cch8KZiZ.s:2649   .text.rgblight_effect_rainbow_swirl:000000000000007a L0
/var/folders/xk/fjkh8m297bb3lq7fwx2mh0vh0000gq/T//cch8KZiZ.s:2969   .text.rgblight_effect_snake:0000000000000136 L0
/var/folders/xk/fjkh8m297bb3lq7fwx2mh0vh0000gq/T//cch8KZiZ.s:3216   .text.rgblight_effect_knight:000000000000010e L0
/var/folders/xk/fjkh8m297bb3lq7fwx2mh0vh0000gq/T//cch8KZiZ.s:3490   .text.rgblight_effect_christmas:0000000000000120 L0
/var/folders/xk/fjkh8m297bb3lq7fwx2mh0vh0000gq/T//cch8KZiZ.s:3628   .text.rgblight_effect_alternating:000000000000007a L0
/var/folders/xk/fjkh8m297bb3lq7fwx2mh0vh0000gq/T//cch8KZiZ.s:3991   .text.rgblight_effect_twinkle:000000000000017a L0
/var/folders/xk/fjkh8m297bb3lq7fwx2mh0vh0000gq/T//cch8KZiZ.s:4010   .text.rgblight_get_change_flags:0000000000000006 L0
/var/folders/xk/fjkh8m297bb3lq7fwx2mh0vh0000gq/T//cch8KZiZ.s:4030   .text.rgblight_clear_change_flags:0000000000000006 L0
/var/folders/xk/fjkh8m297bb3lq7fwx2mh0vh0000gq/T//cch8KZiZ.s:4068   .text.rgblight_get_syncinfo:0000000000000026 L0
/var/folders/xk/fjkh8m297bb3lq7fwx2mh0vh0000gq/T//cch8KZiZ.s:4094   .text.rgblight_timer_init:000000000000000e L0
/var/folders/xk/fjkh8m297bb3lq7fwx2mh0vh0000gq/T//cch8KZiZ.s:4153   .text.rgblight_disable_noeeprom:000000000000002e L0
/var/folders/xk/fjkh8m297bb3lq7fwx2mh0vh0000gq/T//cch8KZiZ.s:4219   .text.rgblight_disable:000000000000003a L0
/var/folders/xk/fjkh8m297bb3lq7fwx2mh0vh0000gq/T//cch8KZiZ.s:4281   .text.rgblight_timer_enable:0000000000000036 L0
/var/folders/xk/fjkh8m297bb3lq7fwx2mh0vh0000gq/T//cch8KZiZ.s:4403   .text.rgblight_mode_eeprom_helper:000000000000007e L0
/var/folders/xk/fjkh8m297bb3lq7fwx2mh0vh0000gq/T//cch8KZiZ.s:4444   .text.rgblight_step_helper:0000000000000016 L0
/var/folders/xk/fjkh8m297bb3lq7fwx2mh0vh0000gq/T//cch8KZiZ.s:4462   .text.rgblight_step_noeeprom:0000000000000006 L0
/var/folders/xk/fjkh8m297bb3lq7fwx2mh0vh0000gq/T//cch8KZiZ.s:4480   .text.rgblight_step:0000000000000006 L0
/var/folders/xk/fjkh8m297bb3lq7fwx2mh0vh0000gq/T//cch8KZiZ.s:4520   .text.rgblight_step_reverse_helper:0000000000000014 L0
/var/folders/xk/fjkh8m297bb3lq7fwx2mh0vh0000gq/T//cch8KZiZ.s:4538   .text.rgblight_step_reverse_noeeprom:0000000000000006 L0
/var/folders/xk/fjkh8m297bb3lq7fwx2mh0vh0000gq/T//cch8KZiZ.s:4556   .text.rgblight_step_reverse:0000000000000006 L0
/var/folders/xk/fjkh8m297bb3lq7fwx2mh0vh0000gq/T//cch8KZiZ.s:4576   .text.rgblight_mode:0000000000000006 L0
/var/folders/xk/fjkh8m297bb3lq7fwx2mh0vh0000gq/T//cch8KZiZ.s:4611   .text.rgblight_increase:0000000000000014 L0
/var/folders/xk/fjkh8m297bb3lq7fwx2mh0vh0000gq/T//cch8KZiZ.s:4646   .text.rgblight_decrease:0000000000000014 L0
/var/folders/xk/fjkh8m297bb3lq7fwx2mh0vh0000gq/T//cch8KZiZ.s:4672   .text.rgblight_enable:0000000000000010 L0
/var/folders/xk/fjkh8m297bb3lq7fwx2mh0vh0000gq/T//cch8KZiZ.s:4699   .text.rgblight_toggle:000000000000000e L0
/var/folders/xk/fjkh8m297bb3lq7fwx2mh0vh0000gq/T//cch8KZiZ.s:4719   .text.rgblight_mode_noeeprom:0000000000000006 L0
/var/folders/xk/fjkh8m297bb3lq7fwx2mh0vh0000gq/T//cch8KZiZ.s:4813   .text.rgblight_init:0000000000000070 L0
/var/folders/xk/fjkh8m297bb3lq7fwx2mh0vh0000gq/T//cch8KZiZ.s:4839   .text.rgblight_enable_noeeprom:0000000000000010 L0
/var/folders/xk/fjkh8m297bb3lq7fwx2mh0vh0000gq/T//cch8KZiZ.s:4866   .text.rgblight_toggle_noeeprom:000000000000000e L0
/var/folders/xk/fjkh8m297bb3lq7fwx2mh0vh0000gq/T//cch8KZiZ.s:4907   .text.rgblight_update_dword:000000000000002e L0
/var/folders/xk/fjkh8m297bb3lq7fwx2mh0vh0000gq/T//cch8KZiZ.s:5021   .text.rgblight_update_sync:000000000000006a L0
/var/folders/xk/fjkh8m297bb3lq7fwx2mh0vh0000gq/T//cch8KZiZ.s:5061   .text.rgblight_timer_toggle:000000000000000e L0
/var/folders/xk/fjkh8m297bb3lq7fwx2mh0vh0000gq/T//cch8KZiZ.s:5117   .text.rgblight_show_solid_color:0000000000000026 L0
/var/folders/xk/fjkh8m297bb3lq7fwx2mh0vh0000gq/T//cch8KZiZ.s:5676   .text.rgblight_task:00000000000001a8 L0
                     .debug_frame:0000000000000000 L0
/var/folders/xk/fjkh8m297bb3lq7fwx2mh0vh0000gq/T//cch8KZiZ.s:93     .text.rgblight_set_effect_range:0000000000000020 .L3
/var/folders/xk/fjkh8m297bb3lq7fwx2mh0vh0000gq/T//cch8KZiZ.s:199    .text.sethsv:0000000000000006 .L8
/var/folders/xk/fjkh8m297bb3lq7fwx2mh0vh0000gq/T//cch8KZiZ.s:275    .text.rgblight_check_config:0000000000000022 .L11
/var/folders/xk/fjkh8m297bb3lq7fwx2mh0vh0000gq/T//cch8KZiZ.s:271    .text.rgblight_check_config:0000000000000020 .L10
/var/folders/xk/fjkh8m297bb3lq7fwx2mh0vh0000gq/T//cch8KZiZ.s:261    .text.rgblight_check_config:0000000000000012 .L12
/var/folders/xk/fjkh8m297bb3lq7fwx2mh0vh0000gq/T//cch8KZiZ.s:258    .text.rgblight_check_config:000000000000000e .L14
/var/folders/xk/fjkh8m297bb3lq7fwx2mh0vh0000gq/T//cch8KZiZ.s:499    .text.rgblight_get_mode:000000000000000c .L23
/var/folders/xk/fjkh8m297bb3lq7fwx2mh0vh0000gq/T//cch8KZiZ.s:551    .text.rgblight_increase_speed_helper:000000000000000e .L26
/var/folders/xk/fjkh8m297bb3lq7fwx2mh0vh0000gq/T//cch8KZiZ.s:563    .text.rgblight_increase_speed_helper:0000000000000026 .L25
/var/folders/xk/fjkh8m297bb3lq7fwx2mh0vh0000gq/T//cch8KZiZ.s:628    .text.rgblight_decrease_speed_helper:000000000000000e .L31
/var/folders/xk/fjkh8m297bb3lq7fwx2mh0vh0000gq/T//cch8KZiZ.s:640    .text.rgblight_decrease_speed_helper:0000000000000026 .L30
/var/folders/xk/fjkh8m297bb3lq7fwx2mh0vh0000gq/T//cch8KZiZ.s:730    .text.rgblight_set_speed_eeprom_helper:000000000000001c .L39
/var/folders/xk/fjkh8m297bb3lq7fwx2mh0vh0000gq/T//cch8KZiZ.s:916    .text.rgblight_set:0000000000000020 .L49
/var/folders/xk/fjkh8m297bb3lq7fwx2mh0vh0000gq/T//cch8KZiZ.s:901    .text.rgblight_set:000000000000000c .L52
/var/folders/xk/fjkh8m297bb3lq7fwx2mh0vh0000gq/T//cch8KZiZ.s:931    .text.rgblight_set:0000000000000034 .L50
/var/folders/xk/fjkh8m297bb3lq7fwx2mh0vh0000gq/T//cch8KZiZ.s:1017   .text.rgblight_setrgb:0000000000000030 .L53
/var/folders/xk/fjkh8m297bb3lq7fwx2mh0vh0000gq/T//cch8KZiZ.s:998    .text.rgblight_setrgb:0000000000000024 .L56
/var/folders/xk/fjkh8m297bb3lq7fwx2mh0vh0000gq/T//cch8KZiZ.s:988    .text.rgblight_setrgb:000000000000001c .L55
/var/folders/xk/fjkh8m297bb3lq7fwx2mh0vh0000gq/T//cch8KZiZ.s:1075   .text.rgblight_sethsv_noeeprom_old:0000000000000028 .L57
/var/folders/xk/fjkh8m297bb3lq7fwx2mh0vh0000gq/T//cch8KZiZ.s:1266   .text.rgblight_effect_rgbtest:000000000000002e .L65
/var/folders/xk/fjkh8m297bb3lq7fwx2mh0vh0000gq/T//cch8KZiZ.s:1305   .text.rgblight_effect_rgbtest:0000000000000050 .L66
/var/folders/xk/fjkh8m297bb3lq7fwx2mh0vh0000gq/T//cch8KZiZ.s:1316   .text.rgblight_effect_rgbtest:0000000000000058 .L69
/var/folders/xk/fjkh8m297bb3lq7fwx2mh0vh0000gq/T//cch8KZiZ.s:1294   .text.rgblight_effect_rgbtest:000000000000004a .L70
/var/folders/xk/fjkh8m297bb3lq7fwx2mh0vh0000gq/T//cch8KZiZ.s:1499   .text.rgblight_sethsv_eeprom_helper:00000000000000a0 .L71
/var/folders/xk/fjkh8m297bb3lq7fwx2mh0vh0000gq/T//cch8KZiZ.s:1525   .text.rgblight_sethsv_eeprom_helper:00000000000000bc .L74
/var/folders/xk/fjkh8m297bb3lq7fwx2mh0vh0000gq/T//cch8KZiZ.s:1471   .text.rgblight_sethsv_eeprom_helper:0000000000000072 .L83
/var/folders/xk/fjkh8m297bb3lq7fwx2mh0vh0000gq/T//cch8KZiZ.s:1476   .text.rgblight_sethsv_eeprom_helper:000000000000007c .L84
/var/folders/xk/fjkh8m297bb3lq7fwx2mh0vh0000gq/T//cch8KZiZ.s:1537   .text.rgblight_sethsv_eeprom_helper:00000000000000c6 .L76
/var/folders/xk/fjkh8m297bb3lq7fwx2mh0vh0000gq/T//cch8KZiZ.s:1455   .text.rgblight_sethsv_eeprom_helper:000000000000005a .L75
/var/folders/xk/fjkh8m297bb3lq7fwx2mh0vh0000gq/T//cch8KZiZ.s:1549   .text.rgblight_sethsv_eeprom_helper:00000000000000d0 .L77
/var/folders/xk/fjkh8m297bb3lq7fwx2mh0vh0000gq/T//cch8KZiZ.s:1542   .text.rgblight_sethsv_eeprom_helper:00000000000000ca .L78
/var/folders/xk/fjkh8m297bb3lq7fwx2mh0vh0000gq/T//cch8KZiZ.s:1615   .text.rgblight_sethsv_eeprom_helper:00000000000000fe .L82
/var/folders/xk/fjkh8m297bb3lq7fwx2mh0vh0000gq/T//cch8KZiZ.s:1675   .text.rgblight_sethsv_eeprom_helper:0000000000000142 .L80
/var/folders/xk/fjkh8m297bb3lq7fwx2mh0vh0000gq/T//cch8KZiZ.s:1601   .text.rgblight_sethsv_eeprom_helper:00000000000000f0 .L79
/var/folders/xk/fjkh8m297bb3lq7fwx2mh0vh0000gq/T//cch8KZiZ.s:1645   .text.rgblight_sethsv_eeprom_helper:000000000000011e .L81
/var/folders/xk/fjkh8m297bb3lq7fwx2mh0vh0000gq/T//cch8KZiZ.s:2268   .text.rgblight_setrgb_at:0000000000000026 .L112
/var/folders/xk/fjkh8m297bb3lq7fwx2mh0vh0000gq/T//cch8KZiZ.s:2331   .text.rgblight_sethsv_at:000000000000002e .L117
/var/folders/xk/fjkh8m297bb3lq7fwx2mh0vh0000gq/T//cch8KZiZ.s:2426   .text.rgblight_setrgb_range:000000000000003c .L120
/var/folders/xk/fjkh8m297bb3lq7fwx2mh0vh0000gq/T//cch8KZiZ.s:2382   .text.rgblight_setrgb_range:000000000000001e .L122
/var/folders/xk/fjkh8m297bb3lq7fwx2mh0vh0000gq/T//cch8KZiZ.s:2421   .text.rgblight_setrgb_range:0000000000000034 .L11
/var/folders/xk/fjkh8m297bb3lq7fwx2mh0vh0000gq/T//cch8KZiZ.s:2499   .text.rgblight_sethsv_range:0000000000000030 .L127
/var/folders/xk/fjkh8m297bb3lq7fwx2mh0vh0000gq/T//cch8KZiZ.s:2598   .text.rgblight_effect_rainbow_swirl:0000000000000038 .L132
/var/folders/xk/fjkh8m297bb3lq7fwx2mh0vh0000gq/T//cch8KZiZ.s:2641   .text.rgblight_effect_rainbow_swirl:0000000000000076 .L133
/var/folders/xk/fjkh8m297bb3lq7fwx2mh0vh0000gq/T//cch8KZiZ.s:2562   .text.rgblight_effect_rainbow_swirl:0000000000000014 .L131
/var/folders/xk/fjkh8m297bb3lq7fwx2mh0vh0000gq/T//cch8KZiZ.s:2582   .text.rgblight_effect_rainbow_swirl:000000000000002a .L135
/var/folders/xk/fjkh8m297bb3lq7fwx2mh0vh0000gq/T//cch8KZiZ.s:2729   .text.rgblight_effect_snake:0000000000000028 .L137
/var/folders/xk/fjkh8m297bb3lq7fwx2mh0vh0000gq/T//cch8KZiZ.s:2752   .text.rgblight_effect_snake:0000000000000042 .L138
/var/folders/xk/fjkh8m297bb3lq7fwx2mh0vh0000gq/T//cch8KZiZ.s:2813   .text.rgblight_effect_snake:0000000000000088 .L139
/var/folders/xk/fjkh8m297bb3lq7fwx2mh0vh0000gq/T//cch8KZiZ.s:2819   .text.rgblight_effect_snake:000000000000008e .L146
/var/folders/xk/fjkh8m297bb3lq7fwx2mh0vh0000gq/T//cch8KZiZ.s:2949   .text.rgblight_effect_snake:0000000000000120 .L147
/var/folders/xk/fjkh8m297bb3lq7fwx2mh0vh0000gq/T//cch8KZiZ.s:2938   .text.rgblight_effect_snake:0000000000000116 .L148
/var/folders/xk/fjkh8m297bb3lq7fwx2mh0vh0000gq/T//cch8KZiZ.s:2747   .text.rgblight_effect_snake:000000000000003e .L140
/var/folders/xk/fjkh8m297bb3lq7fwx2mh0vh0000gq/T//cch8KZiZ.s:2924   .text.rgblight_effect_snake:000000000000010a .L142
/var/folders/xk/fjkh8m297bb3lq7fwx2mh0vh0000gq/T//cch8KZiZ.s:2907   .text.rgblight_effect_snake:00000000000000fc .L144
/var/folders/xk/fjkh8m297bb3lq7fwx2mh0vh0000gq/T//cch8KZiZ.s:2857   .text.rgblight_effect_snake:00000000000000ba .L145
/var/folders/xk/fjkh8m297bb3lq7fwx2mh0vh0000gq/T//cch8KZiZ.s:2759   .text.rgblight_effect_snake:0000000000000048 .L141
/var/folders/xk/fjkh8m297bb3lq7fwx2mh0vh0000gq/T//cch8KZiZ.s:2876   .text.rgblight_effect_snake:00000000000000cc .L143
/var/folders/xk/fjkh8m297bb3lq7fwx2mh0vh0000gq/T//cch8KZiZ.s:2790   .text.rgblight_effect_snake:000000000000006e .L136
/var/folders/xk/fjkh8m297bb3lq7fwx2mh0vh0000gq/T//cch8KZiZ.s:3032   .text.rgblight_effect_knight:0000000000000026 .L153
/var/folders/xk/fjkh8m297bb3lq7fwx2mh0vh0000gq/T//cch8KZiZ.s:3120   .text.rgblight_effect_knight:0000000000000098 .L155
/var/folders/xk/fjkh8m297bb3lq7fwx2mh0vh0000gq/T//cch8KZiZ.s:3138   .text.rgblight_effect_knight:00000000000000a4 .L159
/var/folders/xk/fjkh8m297bb3lq7fwx2mh0vh0000gq/T//cch8KZiZ.s:3093   .text.rgblight_effect_knight:000000000000007e .L160
/var/folders/xk/fjkh8m297bb3lq7fwx2mh0vh0000gq/T//cch8KZiZ.s:3105   .text.rgblight_effect_knight:000000000000008a .L152
/var/folders/xk/fjkh8m297bb3lq7fwx2mh0vh0000gq/T//cch8KZiZ.s:3045   .text.rgblight_effect_knight:000000000000003a .L154
/var/folders/xk/fjkh8m297bb3lq7fwx2mh0vh0000gq/T//cch8KZiZ.s:3195   .text.rgblight_effect_knight:00000000000000f8 .L157
/var/folders/xk/fjkh8m297bb3lq7fwx2mh0vh0000gq/T//cch8KZiZ.s:3055   .text.rgblight_effect_knight:0000000000000042 .L156
/var/folders/xk/fjkh8m297bb3lq7fwx2mh0vh0000gq/T//cch8KZiZ.s:3187   .text.rgblight_effect_knight:00000000000000f4 .L158
/var/folders/xk/fjkh8m297bb3lq7fwx2mh0vh0000gq/T//cch8KZiZ.s:3427   .text.rgblight_effect_christmas:00000000000000d4 .L164
/var/folders/xk/fjkh8m297bb3lq7fwx2mh0vh0000gq/T//cch8KZiZ.s:3447   .text.rgblight_effect_christmas:00000000000000f2 .L170
/var/folders/xk/fjkh8m297bb3lq7fwx2mh0vh0000gq/T//cch8KZiZ.s:3393   .text.rgblight_effect_christmas:00000000000000ae .L174
/var/folders/xk/fjkh8m297bb3lq7fwx2mh0vh0000gq/T//cch8KZiZ.s:3395   .text.rgblight_effect_christmas:00000000000000b2 .L172
/var/folders/xk/fjkh8m297bb3lq7fwx2mh0vh0000gq/T//cch8KZiZ.s:3350   .text.rgblight_effect_christmas:0000000000000084 .L167
/var/folders/xk/fjkh8m297bb3lq7fwx2mh0vh0000gq/T//cch8KZiZ.s:3367   .text.rgblight_effect_christmas:0000000000000094 .L168
/var/folders/xk/fjkh8m297bb3lq7fwx2mh0vh0000gq/T//cch8KZiZ.s:3564   .text.rgblight_effect_alternating:0000000000000034 .L180
/var/folders/xk/fjkh8m297bb3lq7fwx2mh0vh0000gq/T//cch8KZiZ.s:3613   .text.rgblight_effect_alternating:0000000000000072 .L177
/var/folders/xk/fjkh8m297bb3lq7fwx2mh0vh0000gq/T//cch8KZiZ.s:3619   .text.rgblight_effect_alternating:0000000000000076 .L178
/var/folders/xk/fjkh8m297bb3lq7fwx2mh0vh0000gq/T//cch8KZiZ.s:3528   .text.rgblight_effect_alternating:000000000000000e .L176
/var/folders/xk/fjkh8m297bb3lq7fwx2mh0vh0000gq/T//cch8KZiZ.s:3596   .text.rgblight_effect_alternating:0000000000000064 .L185
/var/folders/xk/fjkh8m297bb3lq7fwx2mh0vh0000gq/T//cch8KZiZ.s:3599   .text.rgblight_effect_alternating:0000000000000068 .L184
/var/folders/xk/fjkh8m297bb3lq7fwx2mh0vh0000gq/T//cch8KZiZ.s:3763   .text.rgblight_effect_twinkle:000000000000005e .L199
/var/folders/xk/fjkh8m297bb3lq7fwx2mh0vh0000gq/T//cch8KZiZ.s:3829   .text.rgblight_effect_twinkle:00000000000000ac .L188
/var/folders/xk/fjkh8m297bb3lq7fwx2mh0vh0000gq/T//cch8KZiZ.s:3729   .text.rgblight_effect_twinkle:000000000000003a .L187
/var/folders/xk/fjkh8m297bb3lq7fwx2mh0vh0000gq/T//cch8KZiZ.s:3908   .text.rgblight_effect_twinkle:0000000000000110 .L190
/var/folders/xk/fjkh8m297bb3lq7fwx2mh0vh0000gq/T//cch8KZiZ.s:3851   .text.rgblight_effect_twinkle:00000000000000c2 .L191
/var/folders/xk/fjkh8m297bb3lq7fwx2mh0vh0000gq/T//cch8KZiZ.s:3886   .text.rgblight_effect_twinkle:00000000000000ee .L192
/var/folders/xk/fjkh8m297bb3lq7fwx2mh0vh0000gq/T//cch8KZiZ.s:3790   .text.rgblight_effect_twinkle:0000000000000078 .L189
/var/folders/xk/fjkh8m297bb3lq7fwx2mh0vh0000gq/T//cch8KZiZ.s:3978   .text.rgblight_effect_twinkle:000000000000016e .L195
/var/folders/xk/fjkh8m297bb3lq7fwx2mh0vh0000gq/T//cch8KZiZ.s:3982   .text.rgblight_effect_twinkle:0000000000000174 .L197
/var/folders/xk/fjkh8m297bb3lq7fwx2mh0vh0000gq/T//cch8KZiZ.s:3931   .text.rgblight_effect_twinkle:000000000000012c .L196
/var/folders/xk/fjkh8m297bb3lq7fwx2mh0vh0000gq/T//cch8KZiZ.s:3958   .text.rgblight_effect_twinkle:0000000000000156 .L198
/var/folders/xk/fjkh8m297bb3lq7fwx2mh0vh0000gq/T//cch8KZiZ.s:4048   .text.rgblight_get_syncinfo:0000000000000008 .L1
/var/folders/xk/fjkh8m297bb3lq7fwx2mh0vh0000gq/T//cch8KZiZ.s:4137   .text.rgblight_disable_noeeprom:000000000000001e .L12
/var/folders/xk/fjkh8m297bb3lq7fwx2mh0vh0000gq/T//cch8KZiZ.s:4203   .text.rgblight_disable:000000000000002a .L13
/var/folders/xk/fjkh8m297bb3lq7fwx2mh0vh0000gq/T//cch8KZiZ.s:4262   .text.rgblight_timer_enable:000000000000001e .L211
/var/folders/xk/fjkh8m297bb3lq7fwx2mh0vh0000gq/T//cch8KZiZ.s:4396   .text.rgblight_mode_eeprom_helper:000000000000007c .L212
/var/folders/xk/fjkh8m297bb3lq7fwx2mh0vh0000gq/T//cch8KZiZ.s:4372   .text.rgblight_mode_eeprom_helper:0000000000000068 .L214
/var/folders/xk/fjkh8m297bb3lq7fwx2mh0vh0000gq/T//cch8KZiZ.s:4329   .text.rgblight_mode_eeprom_helper:0000000000000036 .L217
/var/folders/xk/fjkh8m297bb3lq7fwx2mh0vh0000gq/T//cch8KZiZ.s:4390   .text.rgblight_mode_eeprom_helper:0000000000000076 .L218
/var/folders/xk/fjkh8m297bb3lq7fwx2mh0vh0000gq/T//cch8KZiZ.s:4381   .text.rgblight_mode_eeprom_helper:0000000000000070 .L216
/var/folders/xk/fjkh8m297bb3lq7fwx2mh0vh0000gq/T//cch8KZiZ.s:4308   .text.rgblight_mode_eeprom_helper:0000000000000010 .L223
/var/folders/xk/fjkh8m297bb3lq7fwx2mh0vh0000gq/T//cch8KZiZ.s:4361   .text.rgblight_mode_eeprom_helper:0000000000000052 .L219
/var/folders/xk/fjkh8m297bb3lq7fwx2mh0vh0000gq/T//cch8KZiZ.s:4436   .text.rgblight_step_helper:0000000000000012 .L225
/var/folders/xk/fjkh8m297bb3lq7fwx2mh0vh0000gq/T//cch8KZiZ.s:4512   .text.rgblight_step_reverse_helper:0000000000000010 .L229
/var/folders/xk/fjkh8m297bb3lq7fwx2mh0vh0000gq/T//cch8KZiZ.s:4604   .text.rgblight_increase:0000000000000010 .L235
/var/folders/xk/fjkh8m297bb3lq7fwx2mh0vh0000gq/T//cch8KZiZ.s:4600   .text.rgblight_increase:000000000000000c .L234
/var/folders/xk/fjkh8m297bb3lq7fwx2mh0vh0000gq/T//cch8KZiZ.s:4639   .text.rgblight_decrease:0000000000000010 .L238
/var/folders/xk/fjkh8m297bb3lq7fwx2mh0vh0000gq/T//cch8KZiZ.s:4635   .text.rgblight_decrease:000000000000000c .L237
/var/folders/xk/fjkh8m297bb3lq7fwx2mh0vh0000gq/T//cch8KZiZ.s:4806   .text.rgblight_init:000000000000006e .L243
/var/folders/xk/fjkh8m297bb3lq7fwx2mh0vh0000gq/T//cch8KZiZ.s:4751   .text.rgblight_init:0000000000000018 .L245
/var/folders/xk/fjkh8m297bb3lq7fwx2mh0vh0000gq/T//cch8KZiZ.s:4783   .text.rgblight_init:0000000000000052 .L246
/var/folders/xk/fjkh8m297bb3lq7fwx2mh0vh0000gq/T//cch8KZiZ.s:4801   .text.rgblight_init:0000000000000068 .L247
/var/folders/xk/fjkh8m297bb3lq7fwx2mh0vh0000gq/T//cch8KZiZ.s:4897   .text.rgblight_update_dword:0000000000000026 .L255
/var/folders/xk/fjkh8m297bb3lq7fwx2mh0vh0000gq/T//cch8KZiZ.s:4959   .text.rgblight_update_sync:0000000000000028 .L257
/var/folders/xk/fjkh8m297bb3lq7fwx2mh0vh0000gq/T//cch8KZiZ.s:5008   .text.rgblight_update_sync:000000000000005e .L258
/var/folders/xk/fjkh8m297bb3lq7fwx2mh0vh0000gq/T//cch8KZiZ.s:4972   .text.rgblight_update_sync:000000000000003a .L259
/var/folders/xk/fjkh8m297bb3lq7fwx2mh0vh0000gq/T//cch8KZiZ.s:4986   .text.rgblight_update_sync:000000000000004a .L260
/var/folders/xk/fjkh8m297bb3lq7fwx2mh0vh0000gq/T//cch8KZiZ.s:5013   .text.rgblight_update_sync:0000000000000064 .L261
/var/folders/xk/fjkh8m297bb3lq7fwx2mh0vh0000gq/T//cch8KZiZ.s:4996   .text.rgblight_update_sync:0000000000000056 .L256
/var/folders/xk/fjkh8m297bb3lq7fwx2mh0vh0000gq/T//cch8KZiZ.s:5332   .text.rgblight_task:00000000000000e6 .L279
/var/folders/xk/fjkh8m297bb3lq7fwx2mh0vh0000gq/T//cch8KZiZ.s:5346   .text.rgblight_task:00000000000000f4 .L282
/var/folders/xk/fjkh8m297bb3lq7fwx2mh0vh0000gq/T//cch8KZiZ.s:5251   .text.rgblight_task:0000000000000066 .L289
/var/folders/xk/fjkh8m297bb3lq7fwx2mh0vh0000gq/T//cch8KZiZ.s:5296   .text.rgblight_task:00000000000000ac .L292
/var/folders/xk/fjkh8m297bb3lq7fwx2mh0vh0000gq/T//cch8KZiZ.s:5398   .text.rgblight_task:000000000000010a .L284
/var/folders/xk/fjkh8m297bb3lq7fwx2mh0vh0000gq/T//cch8KZiZ.s:5225   .text.rgblight_task:000000000000003c .L283
/var/folders/xk/fjkh8m297bb3lq7fwx2mh0vh0000gq/T//cch8KZiZ.s:5451   .text.rgblight_task:0000000000000122 .L285
/var/folders/xk/fjkh8m297bb3lq7fwx2mh0vh0000gq/T//cch8KZiZ.s:5504   .text.rgblight_task:000000000000013a .L286
/var/folders/xk/fjkh8m297bb3lq7fwx2mh0vh0000gq/T//cch8KZiZ.s:5555   .text.rgblight_task:0000000000000150 .L287
/var/folders/xk/fjkh8m297bb3lq7fwx2mh0vh0000gq/T//cch8KZiZ.s:5598   .text.rgblight_task:0000000000000170 .L288
/var/folders/xk/fjkh8m297bb3lq7fwx2mh0vh0000gq/T//cch8KZiZ.s:11962  .debug_abbrev:0000000000000000 .Ldebug_abbrev0
/var/folders/xk/fjkh8m297bb3lq7fwx2mh0vh0000gq/T//cch8KZiZ.s:18852  .debug_ranges:0000000000000000 .Ldebug_ranges0
/var/folders/xk/fjkh8m297bb3lq7fwx2mh0vh0000gq/T//cch8KZiZ.s:19218  .debug_line:0000000000000000 .Ldebug_line0
/var/folders/xk/fjkh8m297bb3lq7fwx2mh0vh0000gq/T//cch8KZiZ.s:3633   .text.rgblight_effect_twinkle:0000000000000000 .LFB181
/var/folders/xk/fjkh8m297bb3lq7fwx2mh0vh0000gq/T//cch8KZiZ.s:3989   .text.rgblight_effect_twinkle:000000000000017a .LFE181
/var/folders/xk/fjkh8m297bb3lq7fwx2mh0vh0000gq/T//cch8KZiZ.s:13494  .debug_loc:0000000000000000 .LLST137
/var/folders/xk/fjkh8m297bb3lq7fwx2mh0vh0000gq/T//cch8KZiZ.s:13582  .debug_loc:00000000000000b7 .LLST138
/var/folders/xk/fjkh8m297bb3lq7fwx2mh0vh0000gq/T//cch8KZiZ.s:13575  .debug_loc:00000000000000b1 .LVUS138
/var/folders/xk/fjkh8m297bb3lq7fwx2mh0vh0000gq/T//cch8KZiZ.s:13615  .debug_loc:00000000000000f1 .LLST139
/var/folders/xk/fjkh8m297bb3lq7fwx2mh0vh0000gq/T//cch8KZiZ.s:13610  .debug_loc:00000000000000ed .LVUS139
/var/folders/xk/fjkh8m297bb3lq7fwx2mh0vh0000gq/T//cch8KZiZ.s:13645  .debug_loc:0000000000000121 .LLST140
/var/folders/xk/fjkh8m297bb3lq7fwx2mh0vh0000gq/T//cch8KZiZ.s:13640  .debug_loc:000000000000011d .LVUS140
/var/folders/xk/fjkh8m297bb3lq7fwx2mh0vh0000gq/T//cch8KZiZ.s:13675  .debug_loc:0000000000000151 .LLST141
/var/folders/xk/fjkh8m297bb3lq7fwx2mh0vh0000gq/T//cch8KZiZ.s:13668  .debug_loc:000000000000014b .LVUS141
/var/folders/xk/fjkh8m297bb3lq7fwx2mh0vh0000gq/T//cch8KZiZ.s:13694  .debug_loc:000000000000017d .LLST142
/var/folders/xk/fjkh8m297bb3lq7fwx2mh0vh0000gq/T//cch8KZiZ.s:13691  .debug_loc:000000000000017b .LVUS142
/var/folders/xk/fjkh8m297bb3lq7fwx2mh0vh0000gq/T//cch8KZiZ.s:13711  .debug_loc:000000000000019c .LLST143
/var/folders/xk/fjkh8m297bb3lq7fwx2mh0vh0000gq/T//cch8KZiZ.s:13708  .debug_loc:000000000000019a .LVUS143
/var/folders/xk/fjkh8m297bb3lq7fwx2mh0vh0000gq/T//cch8KZiZ.s:13728  .debug_loc:00000000000001bb .LLST144
/var/folders/xk/fjkh8m297bb3lq7fwx2mh0vh0000gq/T//cch8KZiZ.s:13725  .debug_loc:00000000000001b9 .LVUS144
/var/folders/xk/fjkh8m297bb3lq7fwx2mh0vh0000gq/T//cch8KZiZ.s:13756  .debug_loc:00000000000001e8 .LLST145
/var/folders/xk/fjkh8m297bb3lq7fwx2mh0vh0000gq/T//cch8KZiZ.s:13753  .debug_loc:00000000000001e6 .LVUS145
/var/folders/xk/fjkh8m297bb3lq7fwx2mh0vh0000gq/T//cch8KZiZ.s:3820   .text.rgblight_effect_twinkle:00000000000000a8 .LVL251
/var/folders/xk/fjkh8m297bb3lq7fwx2mh0vh0000gq/T//cch8KZiZ.s:3914   .text.rgblight_effect_twinkle:0000000000000114 .LVL255
/var/folders/xk/fjkh8m297bb3lq7fwx2mh0vh0000gq/T//cch8KZiZ.s:3927   .text.rgblight_effect_twinkle:0000000000000126 .LVL256
/var/folders/xk/fjkh8m297bb3lq7fwx2mh0vh0000gq/T//cch8KZiZ.s:3948   .text.rgblight_effect_twinkle:0000000000000146 .LVL257
/var/folders/xk/fjkh8m297bb3lq7fwx2mh0vh0000gq/T//cch8KZiZ.s:3762   .text.rgblight_effect_twinkle:000000000000005e .LVL248
/var/folders/xk/fjkh8m297bb3lq7fwx2mh0vh0000gq/T//cch8KZiZ.s:3495   .text.rgblight_effect_alternating:0000000000000000 .LFB180
/var/folders/xk/fjkh8m297bb3lq7fwx2mh0vh0000gq/T//cch8KZiZ.s:3626   .text.rgblight_effect_alternating:000000000000007a .LFE180
/var/folders/xk/fjkh8m297bb3lq7fwx2mh0vh0000gq/T//cch8KZiZ.s:13763  .debug_loc:00000000000001fb .LLST133
/var/folders/xk/fjkh8m297bb3lq7fwx2mh0vh0000gq/T//cch8KZiZ.s:13805  .debug_loc:000000000000024c .LLST134
/var/folders/xk/fjkh8m297bb3lq7fwx2mh0vh0000gq/T//cch8KZiZ.s:13796  .debug_loc:0000000000000244 .LVUS134
/var/folders/xk/fjkh8m297bb3lq7fwx2mh0vh0000gq/T//cch8KZiZ.s:13849  .debug_loc:0000000000000298 .LLST135
/var/folders/xk/fjkh8m297bb3lq7fwx2mh0vh0000gq/T//cch8KZiZ.s:13842  .debug_loc:0000000000000292 .LVUS135
/var/folders/xk/fjkh8m297bb3lq7fwx2mh0vh0000gq/T//cch8KZiZ.s:13880  .debug_loc:00000000000002d0 .LLST136
/var/folders/xk/fjkh8m297bb3lq7fwx2mh0vh0000gq/T//cch8KZiZ.s:13875  .debug_loc:00000000000002cc .LVUS136
/var/folders/xk/fjkh8m297bb3lq7fwx2mh0vh0000gq/T//cch8KZiZ.s:3602   .text.rgblight_effect_alternating:000000000000006c .LVL236
/var/folders/xk/fjkh8m297bb3lq7fwx2mh0vh0000gq/T//cch8KZiZ.s:3540   .text.rgblight_effect_alternating:000000000000001e .LVL231
/var/folders/xk/fjkh8m297bb3lq7fwx2mh0vh0000gq/T//cch8KZiZ.s:1208   .text.rgblight_effect_rgbtest:0000000000000000 .LFB179
/var/folders/xk/fjkh8m297bb3lq7fwx2mh0vh0000gq/T//cch8KZiZ.s:1346   .text.rgblight_effect_rgbtest:000000000000007e .LFE179
/var/folders/xk/fjkh8m297bb3lq7fwx2mh0vh0000gq/T//cch8KZiZ.s:13901  .debug_loc:00000000000002f8 .LLST43
/var/folders/xk/fjkh8m297bb3lq7fwx2mh0vh0000gq/T//cch8KZiZ.s:13952  .debug_loc:0000000000000360 .LLST44
/var/folders/xk/fjkh8m297bb3lq7fwx2mh0vh0000gq/T//cch8KZiZ.s:13945  .debug_loc:000000000000035a .LVUS44
/var/folders/xk/fjkh8m297bb3lq7fwx2mh0vh0000gq/T//cch8KZiZ.s:13987  .debug_loc:000000000000039c .LLST45
/var/folders/xk/fjkh8m297bb3lq7fwx2mh0vh0000gq/T//cch8KZiZ.s:13982  .debug_loc:0000000000000398 .LVUS45
/var/folders/xk/fjkh8m297bb3lq7fwx2mh0vh0000gq/T//cch8KZiZ.s:14010  .debug_loc:00000000000003c5 .LLST46
/var/folders/xk/fjkh8m297bb3lq7fwx2mh0vh0000gq/T//cch8KZiZ.s:13999  .debug_loc:00000000000003bb .LVUS46
/var/folders/xk/fjkh8m297bb3lq7fwx2mh0vh0000gq/T//cch8KZiZ.s:14045  .debug_loc:0000000000000412 .LLST47
/var/folders/xk/fjkh8m297bb3lq7fwx2mh0vh0000gq/T//cch8KZiZ.s:14036  .debug_loc:000000000000040a .LVUS47
/var/folders/xk/fjkh8m297bb3lq7fwx2mh0vh0000gq/T//cch8KZiZ.s:1252   .text.rgblight_effect_rgbtest:000000000000001a .LBB27
/var/folders/xk/fjkh8m297bb3lq7fwx2mh0vh0000gq/T//cch8KZiZ.s:1267   .text.rgblight_effect_rgbtest:000000000000002e .LBE27
/var/folders/xk/fjkh8m297bb3lq7fwx2mh0vh0000gq/T//cch8KZiZ.s:1261   .text.rgblight_effect_rgbtest:0000000000000028 .LVL65
/var/folders/xk/fjkh8m297bb3lq7fwx2mh0vh0000gq/T//cch8KZiZ.s:1319   .text.rgblight_effect_rgbtest:000000000000005c .LVL73
/var/folders/xk/fjkh8m297bb3lq7fwx2mh0vh0000gq/T//cch8KZiZ.s:3221   .text.rgblight_effect_christmas:0000000000000000 .LFB178
/var/folders/xk/fjkh8m297bb3lq7fwx2mh0vh0000gq/T//cch8KZiZ.s:3488   .text.rgblight_effect_christmas:0000000000000120 .LFE178
/var/folders/xk/fjkh8m297bb3lq7fwx2mh0vh0000gq/T//cch8KZiZ.s:14066  .debug_loc:0000000000000448 .LLST126
/var/folders/xk/fjkh8m297bb3lq7fwx2mh0vh0000gq/T//cch8KZiZ.s:14158  .debug_loc:0000000000000503 .LLST127
/var/folders/xk/fjkh8m297bb3lq7fwx2mh0vh0000gq/T//cch8KZiZ.s:14147  .debug_loc:00000000000004f9 .LVUS127
/var/folders/xk/fjkh8m297bb3lq7fwx2mh0vh0000gq/T//cch8KZiZ.s:14209  .debug_loc:000000000000055d .LLST128
/var/folders/xk/fjkh8m297bb3lq7fwx2mh0vh0000gq/T//cch8KZiZ.s:14204  .debug_loc:0000000000000559 .LVUS128
/var/folders/xk/fjkh8m297bb3lq7fwx2mh0vh0000gq/T//cch8KZiZ.s:14247  .debug_loc:0000000000000595 .LLST129
/var/folders/xk/fjkh8m297bb3lq7fwx2mh0vh0000gq/T//cch8KZiZ.s:14242  .debug_loc:0000000000000591 .LVUS129
/var/folders/xk/fjkh8m297bb3lq7fwx2mh0vh0000gq/T//cch8KZiZ.s:14263  .debug_loc:00000000000005b7 .LLST130
/var/folders/xk/fjkh8m297bb3lq7fwx2mh0vh0000gq/T//cch8KZiZ.s:14258  .debug_loc:00000000000005b3 .LVUS130
/var/folders/xk/fjkh8m297bb3lq7fwx2mh0vh0000gq/T//cch8KZiZ.s:14281  .debug_loc:00000000000005db .LLST131
/var/folders/xk/fjkh8m297bb3lq7fwx2mh0vh0000gq/T//cch8KZiZ.s:14274  .debug_loc:00000000000005d5 .LVUS131
/var/folders/xk/fjkh8m297bb3lq7fwx2mh0vh0000gq/T//cch8KZiZ.s:14300  .debug_loc:0000000000000607 .LLST132
/var/folders/xk/fjkh8m297bb3lq7fwx2mh0vh0000gq/T//cch8KZiZ.s:14297  .debug_loc:0000000000000605 .LVUS132
/var/folders/xk/fjkh8m297bb3lq7fwx2mh0vh0000gq/T//cch8KZiZ.s:3478   .text.rgblight_effect_christmas:000000000000011c .LVL226
/var/folders/xk/fjkh8m297bb3lq7fwx2mh0vh0000gq/T//cch8KZiZ.s:3377   .text.rgblight_effect_christmas:00000000000000a0 .LVL217
/var/folders/xk/fjkh8m297bb3lq7fwx2mh0vh0000gq/T//cch8KZiZ.s:2974   .text.rgblight_effect_knight:0000000000000000 .LFB177
/var/folders/xk/fjkh8m297bb3lq7fwx2mh0vh0000gq/T//cch8KZiZ.s:3214   .text.rgblight_effect_knight:000000000000010e .LFE177
/var/folders/xk/fjkh8m297bb3lq7fwx2mh0vh0000gq/T//cch8KZiZ.s:14307  .debug_loc:000000000000061a .LLST122
/var/folders/xk/fjkh8m297bb3lq7fwx2mh0vh0000gq/T//cch8KZiZ.s:14361  .debug_loc:0000000000000685 .LLST123
/var/folders/xk/fjkh8m297bb3lq7fwx2mh0vh0000gq/T//cch8KZiZ.s:14352  .debug_loc:000000000000067d .LVUS123
/var/folders/xk/fjkh8m297bb3lq7fwx2mh0vh0000gq/T//cch8KZiZ.s:14413  .debug_loc:00000000000006d9 .LLST124
/var/folders/xk/fjkh8m297bb3lq7fwx2mh0vh0000gq/T//cch8KZiZ.s:14398  .debug_loc:00000000000006cb .LVUS124
/var/folders/xk/fjkh8m297bb3lq7fwx2mh0vh0000gq/T//cch8KZiZ.s:14449  .debug_loc:0000000000000732 .LLST125
/var/folders/xk/fjkh8m297bb3lq7fwx2mh0vh0000gq/T//cch8KZiZ.s:14444  .debug_loc:000000000000072e .LVUS125
/var/folders/xk/fjkh8m297bb3lq7fwx2mh0vh0000gq/T//cch8KZiZ.s:3064   .text.rgblight_effect_knight:000000000000004e .LVL197
/var/folders/xk/fjkh8m297bb3lq7fwx2mh0vh0000gq/T//cch8KZiZ.s:3186   .text.rgblight_effect_knight:00000000000000f4 .LVL206
/var/folders/xk/fjkh8m297bb3lq7fwx2mh0vh0000gq/T//cch8KZiZ.s:2654   .text.rgblight_effect_snake:0000000000000000 .LFB176
/var/folders/xk/fjkh8m297bb3lq7fwx2mh0vh0000gq/T//cch8KZiZ.s:2967   .text.rgblight_effect_snake:0000000000000136 .LFE176
/var/folders/xk/fjkh8m297bb3lq7fwx2mh0vh0000gq/T//cch8KZiZ.s:14460  .debug_loc:0000000000000750 .LLST115
/var/folders/xk/fjkh8m297bb3lq7fwx2mh0vh0000gq/T//cch8KZiZ.s:14550  .debug_loc:0000000000000809 .LLST116
/var/folders/xk/fjkh8m297bb3lq7fwx2mh0vh0000gq/T//cch8KZiZ.s:14541  .debug_loc:0000000000000801 .LVUS116
/var/folders/xk/fjkh8m297bb3lq7fwx2mh0vh0000gq/T//cch8KZiZ.s:14592  .debug_loc:0000000000000853 .LLST117
/var/folders/xk/fjkh8m297bb3lq7fwx2mh0vh0000gq/T//cch8KZiZ.s:14587  .debug_loc:000000000000084f .LVUS117
/var/folders/xk/fjkh8m297bb3lq7fwx2mh0vh0000gq/T//cch8KZiZ.s:14606  .debug_loc:0000000000000873 .LLST118
/var/folders/xk/fjkh8m297bb3lq7fwx2mh0vh0000gq/T//cch8KZiZ.s:14603  .debug_loc:0000000000000871 .LVUS118
/var/folders/xk/fjkh8m297bb3lq7fwx2mh0vh0000gq/T//cch8KZiZ.s:14623  .debug_loc:000000000000088f .LLST119
/var/folders/xk/fjkh8m297bb3lq7fwx2mh0vh0000gq/T//cch8KZiZ.s:14614  .debug_loc:0000000000000887 .LVUS119
/var/folders/xk/fjkh8m297bb3lq7fwx2mh0vh0000gq/T//cch8KZiZ.s:14656  .debug_loc:00000000000008d3 .LLST120
/var/folders/xk/fjkh8m297bb3lq7fwx2mh0vh0000gq/T//cch8KZiZ.s:14649  .debug_loc:00000000000008cd .LVUS120
/var/folders/xk/fjkh8m297bb3lq7fwx2mh0vh0000gq/T//cch8KZiZ.s:14675  .debug_loc:00000000000008ff .LLST121
/var/folders/xk/fjkh8m297bb3lq7fwx2mh0vh0000gq/T//cch8KZiZ.s:14672  .debug_loc:00000000000008fd .LVUS121
/var/folders/xk/fjkh8m297bb3lq7fwx2mh0vh0000gq/T//cch8KZiZ.s:2906   .text.rgblight_effect_snake:00000000000000fc .LVL188
/var/folders/xk/fjkh8m297bb3lq7fwx2mh0vh0000gq/T//cch8KZiZ.s:2770   .text.rgblight_effect_snake:0000000000000054 .LVL175
/var/folders/xk/fjkh8m297bb3lq7fwx2mh0vh0000gq/T//cch8KZiZ.s:2522   .text.rgblight_effect_rainbow_swirl:0000000000000000 .LFB175
/var/folders/xk/fjkh8m297bb3lq7fwx2mh0vh0000gq/T//cch8KZiZ.s:2647   .text.rgblight_effect_rainbow_swirl:000000000000007a .LFE175
/var/folders/xk/fjkh8m297bb3lq7fwx2mh0vh0000gq/T//cch8KZiZ.s:14687  .debug_loc:0000000000000917 .LLST111
/var/folders/xk/fjkh8m297bb3lq7fwx2mh0vh0000gq/T//cch8KZiZ.s:14735  .debug_loc:0000000000000975 .LLST112
/var/folders/xk/fjkh8m297bb3lq7fwx2mh0vh0000gq/T//cch8KZiZ.s:14726  .debug_loc:000000000000096d .LVUS112
/var/folders/xk/fjkh8m297bb3lq7fwx2mh0vh0000gq/T//cch8KZiZ.s:14777  .debug_loc:00000000000009bf .LLST113
/var/folders/xk/fjkh8m297bb3lq7fwx2mh0vh0000gq/T//cch8KZiZ.s:14772  .debug_loc:00000000000009bb .LVUS113
/var/folders/xk/fjkh8m297bb3lq7fwx2mh0vh0000gq/T//cch8KZiZ.s:14829  .debug_loc:0000000000000a08 .LLST114
/var/folders/xk/fjkh8m297bb3lq7fwx2mh0vh0000gq/T//cch8KZiZ.s:14822  .debug_loc:0000000000000a02 .LVUS114
/var/folders/xk/fjkh8m297bb3lq7fwx2mh0vh0000gq/T//cch8KZiZ.s:2571   .text.rgblight_effect_rainbow_swirl:0000000000000020 .LVL163
/var/folders/xk/fjkh8m297bb3lq7fwx2mh0vh0000gq/T//cch8KZiZ.s:2634   .text.rgblight_effect_rainbow_swirl:0000000000000072 .LVL168
/var/folders/xk/fjkh8m297bb3lq7fwx2mh0vh0000gq/T//cch8KZiZ.s:1161   .text.rgblight_effect_rainbow_mood:0000000000000000 .LFB174
/var/folders/xk/fjkh8m297bb3lq7fwx2mh0vh0000gq/T//cch8KZiZ.s:1201   .text.rgblight_effect_rainbow_mood:0000000000000020 .LFE174
/var/folders/xk/fjkh8m297bb3lq7fwx2mh0vh0000gq/T//cch8KZiZ.s:14845  .debug_loc:0000000000000a32 .LLST41
/var/folders/xk/fjkh8m297bb3lq7fwx2mh0vh0000gq/T//cch8KZiZ.s:14873  .debug_loc:0000000000000a67 .LLST42
/var/folders/xk/fjkh8m297bb3lq7fwx2mh0vh0000gq/T//cch8KZiZ.s:14866  .debug_loc:0000000000000a61 .LVUS42
/var/folders/xk/fjkh8m297bb3lq7fwx2mh0vh0000gq/T//cch8KZiZ.s:1187   .text.rgblight_effect_rainbow_mood:0000000000000014 .LVL61
/var/folders/xk/fjkh8m297bb3lq7fwx2mh0vh0000gq/T//cch8KZiZ.s:1093   .text.rgblight_effect_breathing:0000000000000000 .LFB173
/var/folders/xk/fjkh8m297bb3lq7fwx2mh0vh0000gq/T//cch8KZiZ.s:1154   .text.rgblight_effect_breathing:0000000000000028 .LFE173
/var/folders/xk/fjkh8m297bb3lq7fwx2mh0vh0000gq/T//cch8KZiZ.s:14901  .debug_loc:0000000000000a9d .LLST36
/var/folders/xk/fjkh8m297bb3lq7fwx2mh0vh0000gq/T//cch8KZiZ.s:14929  .debug_loc:0000000000000ad2 .LLST37
/var/folders/xk/fjkh8m297bb3lq7fwx2mh0vh0000gq/T//cch8KZiZ.s:14922  .debug_loc:0000000000000acc .LVUS37
/var/folders/xk/fjkh8m297bb3lq7fwx2mh0vh0000gq/T//cch8KZiZ.s:14960  .debug_loc:0000000000000b0a .LLST38
/var/folders/xk/fjkh8m297bb3lq7fwx2mh0vh0000gq/T//cch8KZiZ.s:14957  .debug_loc:0000000000000b08 .LVUS38
/var/folders/xk/fjkh8m297bb3lq7fwx2mh0vh0000gq/T//cch8KZiZ.s:1112   .text.rgblight_effect_breathing:0000000000000006 .LBB26
/var/folders/xk/fjkh8m297bb3lq7fwx2mh0vh0000gq/T//cch8KZiZ.s:1130   .text.rgblight_effect_breathing:0000000000000010 .LBE26
/var/folders/xk/fjkh8m297bb3lq7fwx2mh0vh0000gq/T//cch8KZiZ.s:14978  .debug_loc:0000000000000b27 .LLST39
/var/folders/xk/fjkh8m297bb3lq7fwx2mh0vh0000gq/T//cch8KZiZ.s:14973  .debug_loc:0000000000000b23 .LVUS39
/var/folders/xk/fjkh8m297bb3lq7fwx2mh0vh0000gq/T//cch8KZiZ.s:15012  .debug_loc:0000000000000b61 .LLST40
/var/folders/xk/fjkh8m297bb3lq7fwx2mh0vh0000gq/T//cch8KZiZ.s:15009  .debug_loc:0000000000000b5f .LVUS40
/var/folders/xk/fjkh8m297bb3lq7fwx2mh0vh0000gq/T//cch8KZiZ.s:1139   .text.rgblight_effect_breathing:000000000000001c .LVL57
/var/folders/xk/fjkh8m297bb3lq7fwx2mh0vh0000gq/T//cch8KZiZ.s:5121   .text.rgblight_task:0000000000000000 .LFB172
/var/folders/xk/fjkh8m297bb3lq7fwx2mh0vh0000gq/T//cch8KZiZ.s:5674   .text.rgblight_task:00000000000001a8 .LFE172
/var/folders/xk/fjkh8m297bb3lq7fwx2mh0vh0000gq/T//cch8KZiZ.s:15019  .debug_loc:0000000000000b74 .LLST172
/var/folders/xk/fjkh8m297bb3lq7fwx2mh0vh0000gq/T//cch8KZiZ.s:15067  .debug_loc:0000000000000bd9 .LLST173
/var/folders/xk/fjkh8m297bb3lq7fwx2mh0vh0000gq/T//cch8KZiZ.s:15064  .debug_loc:0000000000000bd7 .LVUS173
/var/folders/xk/fjkh8m297bb3lq7fwx2mh0vh0000gq/T//cch8KZiZ.s:15108  .debug_loc:0000000000000c0d .LLST174
/var/folders/xk/fjkh8m297bb3lq7fwx2mh0vh0000gq/T//cch8KZiZ.s:15079  .debug_loc:0000000000000bf1 .LVUS174
/var/folders/xk/fjkh8m297bb3lq7fwx2mh0vh0000gq/T//cch8KZiZ.s:15245  .debug_loc:0000000000000d03 .LLST175
/var/folders/xk/fjkh8m297bb3lq7fwx2mh0vh0000gq/T//cch8KZiZ.s:15216  .debug_loc:0000000000000ce7 .LVUS175
/var/folders/xk/fjkh8m297bb3lq7fwx2mh0vh0000gq/T//cch8KZiZ.s:5572   .text.rgblight_task:0000000000000162 .LBB136
/var/folders/xk/fjkh8m297bb3lq7fwx2mh0vh0000gq/T//cch8KZiZ.s:5591   .text.rgblight_task:000000000000016a .LBE136
/var/folders/xk/fjkh8m297bb3lq7fwx2mh0vh0000gq/T//cch8KZiZ.s:15314  .debug_loc:0000000000000dc3 .LLST202
/var/folders/xk/fjkh8m297bb3lq7fwx2mh0vh0000gq/T//cch8KZiZ.s:15311  .debug_loc:0000000000000dc1 .LVUS202
/var/folders/xk/fjkh8m297bb3lq7fwx2mh0vh0000gq/T//cch8KZiZ.s:5262   .text.rgblight_task:0000000000000078 .LBB115
/var/folders/xk/fjkh8m297bb3lq7fwx2mh0vh0000gq/T//cch8KZiZ.s:5335   .text.rgblight_task:00000000000000e6 .LBE115
/var/folders/xk/fjkh8m297bb3lq7fwx2mh0vh0000gq/T//cch8KZiZ.s:15329  .debug_loc:0000000000000ddd .LLST181
/var/folders/xk/fjkh8m297bb3lq7fwx2mh0vh0000gq/T//cch8KZiZ.s:15326  .debug_loc:0000000000000ddb .LVUS181
/var/folders/xk/fjkh8m297bb3lq7fwx2mh0vh0000gq/T//cch8KZiZ.s:5279   .text.rgblight_task:0000000000000090 .LVL355
/var/folders/xk/fjkh8m297bb3lq7fwx2mh0vh0000gq/T//cch8KZiZ.s:5287   .text.rgblight_task:000000000000009a .LVL356
/var/folders/xk/fjkh8m297bb3lq7fwx2mh0vh0000gq/T//cch8KZiZ.s:5317   .text.rgblight_task:00000000000000d0 .LVL359
/var/folders/xk/fjkh8m297bb3lq7fwx2mh0vh0000gq/T//cch8KZiZ.s:5183   .text.rgblight_task:000000000000002c .LBI110
/var/folders/xk/fjkh8m297bb3lq7fwx2mh0vh0000gq/T//cch8KZiZ.s:15344  .debug_loc:0000000000000df7 .LLST176
/var/folders/xk/fjkh8m297bb3lq7fwx2mh0vh0000gq/T//cch8KZiZ.s:15341  .debug_loc:0000000000000df5 .LVUS176
/var/folders/xk/fjkh8m297bb3lq7fwx2mh0vh0000gq/T//cch8KZiZ.s:15355  .debug_loc:0000000000000e0d .LLST177
/var/folders/xk/fjkh8m297bb3lq7fwx2mh0vh0000gq/T//cch8KZiZ.s:15352  .debug_loc:0000000000000e0b .LVUS177
/var/folders/xk/fjkh8m297bb3lq7fwx2mh0vh0000gq/T//cch8KZiZ.s:15369  .debug_loc:0000000000000e26 .LLST178
/var/folders/xk/fjkh8m297bb3lq7fwx2mh0vh0000gq/T//cch8KZiZ.s:15364  .debug_loc:0000000000000e22 .LVUS178
/var/folders/xk/fjkh8m297bb3lq7fwx2mh0vh0000gq/T//cch8KZiZ.s:15403  .debug_loc:0000000000000e63 .LLST179
/var/folders/xk/fjkh8m297bb3lq7fwx2mh0vh0000gq/T//cch8KZiZ.s:15398  .debug_loc:0000000000000e5f .LVUS179
/var/folders/xk/fjkh8m297bb3lq7fwx2mh0vh0000gq/T//cch8KZiZ.s:15435  .debug_loc:0000000000000e9e .LLST180
/var/folders/xk/fjkh8m297bb3lq7fwx2mh0vh0000gq/T//cch8KZiZ.s:15432  .debug_loc:0000000000000e9c .LVUS180
/var/folders/xk/fjkh8m297bb3lq7fwx2mh0vh0000gq/T//cch8KZiZ.s:5355   .text.rgblight_task:00000000000000f8 .LBI116
/var/folders/xk/fjkh8m297bb3lq7fwx2mh0vh0000gq/T//cch8KZiZ.s:15445  .debug_loc:0000000000000eb3 .LLST182
/var/folders/xk/fjkh8m297bb3lq7fwx2mh0vh0000gq/T//cch8KZiZ.s:15442  .debug_loc:0000000000000eb1 .LVUS182
/var/folders/xk/fjkh8m297bb3lq7fwx2mh0vh0000gq/T//cch8KZiZ.s:15456  .debug_loc:0000000000000ec9 .LLST183
/var/folders/xk/fjkh8m297bb3lq7fwx2mh0vh0000gq/T//cch8KZiZ.s:15453  .debug_loc:0000000000000ec7 .LVUS183
/var/folders/xk/fjkh8m297bb3lq7fwx2mh0vh0000gq/T//cch8KZiZ.s:15470  .debug_loc:0000000000000ee2 .LLST184
/var/folders/xk/fjkh8m297bb3lq7fwx2mh0vh0000gq/T//cch8KZiZ.s:15465  .debug_loc:0000000000000ede .LVUS184
/var/folders/xk/fjkh8m297bb3lq7fwx2mh0vh0000gq/T//cch8KZiZ.s:15504  .debug_loc:0000000000000f1f .LLST185
/var/folders/xk/fjkh8m297bb3lq7fwx2mh0vh0000gq/T//cch8KZiZ.s:15499  .debug_loc:0000000000000f1b .LVUS185
/var/folders/xk/fjkh8m297bb3lq7fwx2mh0vh0000gq/T//cch8KZiZ.s:15536  .debug_loc:0000000000000f5a .LLST186
/var/folders/xk/fjkh8m297bb3lq7fwx2mh0vh0000gq/T//cch8KZiZ.s:15533  .debug_loc:0000000000000f58 .LVUS186
/var/folders/xk/fjkh8m297bb3lq7fwx2mh0vh0000gq/T//cch8KZiZ.s:5406   .text.rgblight_task:000000000000010e .LBI121
/var/folders/xk/fjkh8m297bb3lq7fwx2mh0vh0000gq/T//cch8KZiZ.s:15546  .debug_loc:0000000000000f6f .LLST187
/var/folders/xk/fjkh8m297bb3lq7fwx2mh0vh0000gq/T//cch8KZiZ.s:15543  .debug_loc:0000000000000f6d .LVUS187
/var/folders/xk/fjkh8m297bb3lq7fwx2mh0vh0000gq/T//cch8KZiZ.s:15557  .debug_loc:0000000000000f85 .LLST188
/var/folders/xk/fjkh8m297bb3lq7fwx2mh0vh0000gq/T//cch8KZiZ.s:15554  .debug_loc:0000000000000f83 .LVUS188
/var/folders/xk/fjkh8m297bb3lq7fwx2mh0vh0000gq/T//cch8KZiZ.s:15571  .debug_loc:0000000000000f9e .LLST189
/var/folders/xk/fjkh8m297bb3lq7fwx2mh0vh0000gq/T//cch8KZiZ.s:15566  .debug_loc:0000000000000f9a .LVUS189
/var/folders/xk/fjkh8m297bb3lq7fwx2mh0vh0000gq/T//cch8KZiZ.s:15609  .debug_loc:0000000000000fdf .LLST190
/var/folders/xk/fjkh8m297bb3lq7fwx2mh0vh0000gq/T//cch8KZiZ.s:15604  .debug_loc:0000000000000fdb .LVUS190
/var/folders/xk/fjkh8m297bb3lq7fwx2mh0vh0000gq/T//cch8KZiZ.s:15645  .debug_loc:000000000000101e .LLST191
/var/folders/xk/fjkh8m297bb3lq7fwx2mh0vh0000gq/T//cch8KZiZ.s:15642  .debug_loc:000000000000101c .LVUS191
/var/folders/xk/fjkh8m297bb3lq7fwx2mh0vh0000gq/T//cch8KZiZ.s:5459   .text.rgblight_task:0000000000000126 .LBI126
/var/folders/xk/fjkh8m297bb3lq7fwx2mh0vh0000gq/T//cch8KZiZ.s:15655  .debug_loc:0000000000001033 .LLST192
/var/folders/xk/fjkh8m297bb3lq7fwx2mh0vh0000gq/T//cch8KZiZ.s:15652  .debug_loc:0000000000001031 .LVUS192
/var/folders/xk/fjkh8m297bb3lq7fwx2mh0vh0000gq/T//cch8KZiZ.s:15666  .debug_loc:0000000000001049 .LLST193
/var/folders/xk/fjkh8m297bb3lq7fwx2mh0vh0000gq/T//cch8KZiZ.s:15663  .debug_loc:0000000000001047 .LVUS193
/var/folders/xk/fjkh8m297bb3lq7fwx2mh0vh0000gq/T//cch8KZiZ.s:15680  .debug_loc:0000000000001062 .LLST194
/var/folders/xk/fjkh8m297bb3lq7fwx2mh0vh0000gq/T//cch8KZiZ.s:15675  .debug_loc:000000000000105e .LVUS194
/var/folders/xk/fjkh8m297bb3lq7fwx2mh0vh0000gq/T//cch8KZiZ.s:15718  .debug_loc:00000000000010a3 .LLST195
/var/folders/xk/fjkh8m297bb3lq7fwx2mh0vh0000gq/T//cch8KZiZ.s:15713  .debug_loc:000000000000109f .LVUS195
/var/folders/xk/fjkh8m297bb3lq7fwx2mh0vh0000gq/T//cch8KZiZ.s:15754  .debug_loc:00000000000010e2 .LLST196
/var/folders/xk/fjkh8m297bb3lq7fwx2mh0vh0000gq/T//cch8KZiZ.s:15751  .debug_loc:00000000000010e0 .LVUS196
/var/folders/xk/fjkh8m297bb3lq7fwx2mh0vh0000gq/T//cch8KZiZ.s:5512   .text.rgblight_task:000000000000013e .LBI131
/var/folders/xk/fjkh8m297bb3lq7fwx2mh0vh0000gq/T//cch8KZiZ.s:15764  .debug_loc:00000000000010f7 .LLST197
/var/folders/xk/fjkh8m297bb3lq7fwx2mh0vh0000gq/T//cch8KZiZ.s:15761  .debug_loc:00000000000010f5 .LVUS197
/var/folders/xk/fjkh8m297bb3lq7fwx2mh0vh0000gq/T//cch8KZiZ.s:15775  .debug_loc:000000000000110d .LLST198
/var/folders/xk/fjkh8m297bb3lq7fwx2mh0vh0000gq/T//cch8KZiZ.s:15772  .debug_loc:000000000000110b .LVUS198
/var/folders/xk/fjkh8m297bb3lq7fwx2mh0vh0000gq/T//cch8KZiZ.s:15789  .debug_loc:0000000000001126 .LLST199
/var/folders/xk/fjkh8m297bb3lq7fwx2mh0vh0000gq/T//cch8KZiZ.s:15784  .debug_loc:0000000000001122 .LVUS199
/var/folders/xk/fjkh8m297bb3lq7fwx2mh0vh0000gq/T//cch8KZiZ.s:15823  .debug_loc:0000000000001163 .LLST200
/var/folders/xk/fjkh8m297bb3lq7fwx2mh0vh0000gq/T//cch8KZiZ.s:15818  .debug_loc:000000000000115f .LVUS200
/var/folders/xk/fjkh8m297bb3lq7fwx2mh0vh0000gq/T//cch8KZiZ.s:15855  .debug_loc:000000000000119e .LLST201
/var/folders/xk/fjkh8m297bb3lq7fwx2mh0vh0000gq/T//cch8KZiZ.s:15852  .debug_loc:000000000000119c .LVUS201
/var/folders/xk/fjkh8m297bb3lq7fwx2mh0vh0000gq/T//cch8KZiZ.s:5624   .text.rgblight_task:000000000000018c .LBI137
/var/folders/xk/fjkh8m297bb3lq7fwx2mh0vh0000gq/T//cch8KZiZ.s:15867  .debug_loc:00000000000011b5 .LLST203
/var/folders/xk/fjkh8m297bb3lq7fwx2mh0vh0000gq/T//cch8KZiZ.s:15862  .debug_loc:00000000000011b1 .LVUS203
/var/folders/xk/fjkh8m297bb3lq7fwx2mh0vh0000gq/T//cch8KZiZ.s:15905  .debug_loc:00000000000011f6 .LLST204
/var/folders/xk/fjkh8m297bb3lq7fwx2mh0vh0000gq/T//cch8KZiZ.s:15900  .debug_loc:00000000000011f2 .LVUS204
/var/folders/xk/fjkh8m297bb3lq7fwx2mh0vh0000gq/T//cch8KZiZ.s:15941  .debug_loc:0000000000001235 .LLST205
/var/folders/xk/fjkh8m297bb3lq7fwx2mh0vh0000gq/T//cch8KZiZ.s:15938  .debug_loc:0000000000001233 .LVUS205
/var/folders/xk/fjkh8m297bb3lq7fwx2mh0vh0000gq/T//cch8KZiZ.s:5237   .text.rgblight_task:000000000000004c .LVL353
/var/folders/xk/fjkh8m297bb3lq7fwx2mh0vh0000gq/T//cch8KZiZ.s:5257   .text.rgblight_task:0000000000000072 .LVL354
/var/folders/xk/fjkh8m297bb3lq7fwx2mh0vh0000gq/T//cch8KZiZ.s:14     .text.rgblight_effect_dummy:0000000000000000 .LFB171
/var/folders/xk/fjkh8m297bb3lq7fwx2mh0vh0000gq/T//cch8KZiZ.s:26     .text.rgblight_effect_dummy:0000000000000002 .LFE171
/var/folders/xk/fjkh8m297bb3lq7fwx2mh0vh0000gq/T//cch8KZiZ.s:5066   .text.rgblight_show_solid_color:0000000000000000 .LFB170
/var/folders/xk/fjkh8m297bb3lq7fwx2mh0vh0000gq/T//cch8KZiZ.s:5115   .text.rgblight_show_solid_color:0000000000000026 .LFE170
/var/folders/xk/fjkh8m297bb3lq7fwx2mh0vh0000gq/T//cch8KZiZ.s:15948  .debug_loc:0000000000001248 .LLST168
/var/folders/xk/fjkh8m297bb3lq7fwx2mh0vh0000gq/T//cch8KZiZ.s:15984  .debug_loc:000000000000128c .LLST169
/var/folders/xk/fjkh8m297bb3lq7fwx2mh0vh0000gq/T//cch8KZiZ.s:15975  .debug_loc:0000000000001284 .LVUS169
/var/folders/xk/fjkh8m297bb3lq7fwx2mh0vh0000gq/T//cch8KZiZ.s:16015  .debug_loc:00000000000012cb .LLST170
/var/folders/xk/fjkh8m297bb3lq7fwx2mh0vh0000gq/T//cch8KZiZ.s:16006  .debug_loc:00000000000012c3 .LVUS170
/var/folders/xk/fjkh8m297bb3lq7fwx2mh0vh0000gq/T//cch8KZiZ.s:16046  .debug_loc:000000000000130a .LLST171
/var/folders/xk/fjkh8m297bb3lq7fwx2mh0vh0000gq/T//cch8KZiZ.s:16037  .debug_loc:0000000000001302 .LVUS171
/var/folders/xk/fjkh8m297bb3lq7fwx2mh0vh0000gq/T//cch8KZiZ.s:5091   .text.rgblight_show_solid_color:0000000000000010 .LVL340
/var/folders/xk/fjkh8m297bb3lq7fwx2mh0vh0000gq/T//cch8KZiZ.s:5095   .text.rgblight_show_solid_color:0000000000000016 .LVL341
/var/folders/xk/fjkh8m297bb3lq7fwx2mh0vh0000gq/T//cch8KZiZ.s:5112   .text.rgblight_show_solid_color:0000000000000026 .LVL345
/var/folders/xk/fjkh8m297bb3lq7fwx2mh0vh0000gq/T//cch8KZiZ.s:5039   .text.rgblight_timer_toggle:0000000000000000 .LFB169
/var/folders/xk/fjkh8m297bb3lq7fwx2mh0vh0000gq/T//cch8KZiZ.s:5059   .text.rgblight_timer_toggle:000000000000000e .LFE169
/var/folders/xk/fjkh8m297bb3lq7fwx2mh0vh0000gq/T//cch8KZiZ.s:5053   .text.rgblight_timer_toggle:000000000000000a .LVL337
/var/folders/xk/fjkh8m297bb3lq7fwx2mh0vh0000gq/T//cch8KZiZ.s:5057   .text.rgblight_timer_toggle:000000000000000e .LVL338
/var/folders/xk/fjkh8m297bb3lq7fwx2mh0vh0000gq/T//cch8KZiZ.s:4223   .text.rgblight_timer_enable:0000000000000000 .LFB167
/var/folders/xk/fjkh8m297bb3lq7fwx2mh0vh0000gq/T//cch8KZiZ.s:4279   .text.rgblight_timer_enable:0000000000000036 .LFE167
/var/folders/xk/fjkh8m297bb3lq7fwx2mh0vh0000gq/T//cch8KZiZ.s:4233   .text.rgblight_timer_enable:0000000000000000 .LBI78
/var/folders/xk/fjkh8m297bb3lq7fwx2mh0vh0000gq/T//cch8KZiZ.s:16071  .debug_loc:0000000000001343 .LLST152
/var/folders/xk/fjkh8m297bb3lq7fwx2mh0vh0000gq/T//cch8KZiZ.s:16068  .debug_loc:0000000000001341 .LVUS152
/var/folders/xk/fjkh8m297bb3lq7fwx2mh0vh0000gq/T//cch8KZiZ.s:4251   .text.rgblight_timer_enable:0000000000000014 .LVL269
/var/folders/xk/fjkh8m297bb3lq7fwx2mh0vh0000gq/T//cch8KZiZ.s:4266   .text.rgblight_timer_enable:0000000000000022 .LVL270
/var/folders/xk/fjkh8m297bb3lq7fwx2mh0vh0000gq/T//cch8KZiZ.s:4072   .text.rgblight_timer_init:0000000000000000 .LFB166
/var/folders/xk/fjkh8m297bb3lq7fwx2mh0vh0000gq/T//cch8KZiZ.s:4092   .text.rgblight_timer_init:000000000000000e .LFE166
/var/folders/xk/fjkh8m297bb3lq7fwx2mh0vh0000gq/T//cch8KZiZ.s:4912   .text.rgblight_update_sync:0000000000000000 .LFB165
/var/folders/xk/fjkh8m297bb3lq7fwx2mh0vh0000gq/T//cch8KZiZ.s:5019   .text.rgblight_update_sync:000000000000006a .LFE165
/var/folders/xk/fjkh8m297bb3lq7fwx2mh0vh0000gq/T//cch8KZiZ.s:16088  .debug_loc:0000000000001363 .LLST165
/var/folders/xk/fjkh8m297bb3lq7fwx2mh0vh0000gq/T//cch8KZiZ.s:16124  .debug_loc:00000000000013a7 .LLST166
/var/folders/xk/fjkh8m297bb3lq7fwx2mh0vh0000gq/T//cch8KZiZ.s:16115  .debug_loc:000000000000139f .LVUS166
/var/folders/xk/fjkh8m297bb3lq7fwx2mh0vh0000gq/T//cch8KZiZ.s:16170  .debug_loc:00000000000013f5 .LLST167
/var/folders/xk/fjkh8m297bb3lq7fwx2mh0vh0000gq/T//cch8KZiZ.s:16161  .debug_loc:00000000000013ed .LVUS167
/var/folders/xk/fjkh8m297bb3lq7fwx2mh0vh0000gq/T//cch8KZiZ.s:4958   .text.rgblight_update_sync:0000000000000028 .LVL329
/var/folders/xk/fjkh8m297bb3lq7fwx2mh0vh0000gq/T//cch8KZiZ.s:4971   .text.rgblight_update_sync:000000000000003a .LVL330
/var/folders/xk/fjkh8m297bb3lq7fwx2mh0vh0000gq/T//cch8KZiZ.s:4985   .text.rgblight_update_sync:000000000000004a .LVL331
/var/folders/xk/fjkh8m297bb3lq7fwx2mh0vh0000gq/T//cch8KZiZ.s:5011   .text.rgblight_update_sync:0000000000000062 .LVL335
/var/folders/xk/fjkh8m297bb3lq7fwx2mh0vh0000gq/T//cch8KZiZ.s:5016   .text.rgblight_update_sync:0000000000000068 .LVL336
/var/folders/xk/fjkh8m297bb3lq7fwx2mh0vh0000gq/T//cch8KZiZ.s:4035   .text.rgblight_get_syncinfo:0000000000000000 .LFB164
/var/folders/xk/fjkh8m297bb3lq7fwx2mh0vh0000gq/T//cch8KZiZ.s:4066   .text.rgblight_get_syncinfo:0000000000000026 .LFE164
/var/folders/xk/fjkh8m297bb3lq7fwx2mh0vh0000gq/T//cch8KZiZ.s:4014   .text.rgblight_clear_change_flags:0000000000000000 .LFB163
/var/folders/xk/fjkh8m297bb3lq7fwx2mh0vh0000gq/T//cch8KZiZ.s:4028   .text.rgblight_clear_change_flags:0000000000000006 .LFE163
/var/folders/xk/fjkh8m297bb3lq7fwx2mh0vh0000gq/T//cch8KZiZ.s:3995   .text.rgblight_get_change_flags:0000000000000000 .LFB162
/var/folders/xk/fjkh8m297bb3lq7fwx2mh0vh0000gq/T//cch8KZiZ.s:4008   .text.rgblight_get_change_flags:0000000000000006 .LFE162
/var/folders/xk/fjkh8m297bb3lq7fwx2mh0vh0000gq/T//cch8KZiZ.s:883    .text.rgblight_set:0000000000000000 .LFB161
/var/folders/xk/fjkh8m297bb3lq7fwx2mh0vh0000gq/T//cch8KZiZ.s:954    .text.rgblight_set:0000000000000044 .LFE161
/var/folders/xk/fjkh8m297bb3lq7fwx2mh0vh0000gq/T//cch8KZiZ.s:16195  .debug_loc:000000000000142e .LLST25
/var/folders/xk/fjkh8m297bb3lq7fwx2mh0vh0000gq/T//cch8KZiZ.s:16192  .debug_loc:000000000000142c .LVUS25
/var/folders/xk/fjkh8m297bb3lq7fwx2mh0vh0000gq/T//cch8KZiZ.s:16219  .debug_loc:0000000000001457 .LLST26
/var/folders/xk/fjkh8m297bb3lq7fwx2mh0vh0000gq/T//cch8KZiZ.s:16214  .debug_loc:0000000000001453 .LVUS26
/var/folders/xk/fjkh8m297bb3lq7fwx2mh0vh0000gq/T//cch8KZiZ.s:918    .text.rgblight_set:0000000000000020 .LBB22
/var/folders/xk/fjkh8m297bb3lq7fwx2mh0vh0000gq/T//cch8KZiZ.s:952    .text.rgblight_set:0000000000000044 .LBE22
/var/folders/xk/fjkh8m297bb3lq7fwx2mh0vh0000gq/T//cch8KZiZ.s:16233  .debug_loc:0000000000001477 .LLST27
/var/folders/xk/fjkh8m297bb3lq7fwx2mh0vh0000gq/T//cch8KZiZ.s:16230  .debug_loc:0000000000001475 .LVUS27
/var/folders/xk/fjkh8m297bb3lq7fwx2mh0vh0000gq/T//cch8KZiZ.s:915    .text.rgblight_set:0000000000000020 .LVL42
/var/folders/xk/fjkh8m297bb3lq7fwx2mh0vh0000gq/T//cch8KZiZ.s:864    .text.rgblight_call_driver:0000000000000000 .LFB160
/var/folders/xk/fjkh8m297bb3lq7fwx2mh0vh0000gq/T//cch8KZiZ.s:877    .text.rgblight_call_driver:0000000000000006 .LFE160
/var/folders/xk/fjkh8m297bb3lq7fwx2mh0vh0000gq/T//cch8KZiZ.s:16245  .debug_loc:000000000000148e .LLST23
/var/folders/xk/fjkh8m297bb3lq7fwx2mh0vh0000gq/T//cch8KZiZ.s:16240  .debug_loc:000000000000148a .LVUS23
/var/folders/xk/fjkh8m297bb3lq7fwx2mh0vh0000gq/T//cch8KZiZ.s:16269  .debug_loc:00000000000014b8 .LLST24
/var/folders/xk/fjkh8m297bb3lq7fwx2mh0vh0000gq/T//cch8KZiZ.s:16264  .debug_loc:00000000000014b4 .LVUS24
/var/folders/xk/fjkh8m297bb3lq7fwx2mh0vh0000gq/T//cch8KZiZ.s:874    .text.rgblight_call_driver:0000000000000006 .LVL39
/var/folders/xk/fjkh8m297bb3lq7fwx2mh0vh0000gq/T//cch8KZiZ.s:2444   .text.rgblight_sethsv_range:0000000000000000 .LFB159
/var/folders/xk/fjkh8m297bb3lq7fwx2mh0vh0000gq/T//cch8KZiZ.s:2515   .text.rgblight_sethsv_range:0000000000000040 .LFE159
/var/folders/xk/fjkh8m297bb3lq7fwx2mh0vh0000gq/T//cch8KZiZ.s:16283  .debug_loc:00000000000014d9 .LLST105
/var/folders/xk/fjkh8m297bb3lq7fwx2mh0vh0000gq/T//cch8KZiZ.s:16332  .debug_loc:000000000000153f .LLST106
/var/folders/xk/fjkh8m297bb3lq7fwx2mh0vh0000gq/T//cch8KZiZ.s:16327  .debug_loc:000000000000153b .LVUS106
/var/folders/xk/fjkh8m297bb3lq7fwx2mh0vh0000gq/T//cch8KZiZ.s:16351  .debug_loc:0000000000001564 .LLST107
/var/folders/xk/fjkh8m297bb3lq7fwx2mh0vh0000gq/T//cch8KZiZ.s:16346  .debug_loc:0000000000001560 .LVUS107
/var/folders/xk/fjkh8m297bb3lq7fwx2mh0vh0000gq/T//cch8KZiZ.s:16370  .debug_loc:0000000000001589 .LLST108
/var/folders/xk/fjkh8m297bb3lq7fwx2mh0vh0000gq/T//cch8KZiZ.s:16365  .debug_loc:0000000000001585 .LVUS108
/var/folders/xk/fjkh8m297bb3lq7fwx2mh0vh0000gq/T//cch8KZiZ.s:16391  .debug_loc:00000000000015b0 .LLST109
/var/folders/xk/fjkh8m297bb3lq7fwx2mh0vh0000gq/T//cch8KZiZ.s:16384  .debug_loc:00000000000015aa .LVUS109
/var/folders/xk/fjkh8m297bb3lq7fwx2mh0vh0000gq/T//cch8KZiZ.s:16414  .debug_loc:00000000000015e0 .LLST110
/var/folders/xk/fjkh8m297bb3lq7fwx2mh0vh0000gq/T//cch8KZiZ.s:16409  .debug_loc:00000000000015dc .LVUS110
/var/folders/xk/fjkh8m297bb3lq7fwx2mh0vh0000gq/T//cch8KZiZ.s:2491   .text.rgblight_sethsv_range:0000000000000024 .LVL156
/var/folders/xk/fjkh8m297bb3lq7fwx2mh0vh0000gq/T//cch8KZiZ.s:2498   .text.rgblight_sethsv_range:0000000000000030 .LVL157
/var/folders/xk/fjkh8m297bb3lq7fwx2mh0vh0000gq/T//cch8KZiZ.s:2351   .text.rgblight_setrgb_range:0000000000000000 .LFB158
/var/folders/xk/fjkh8m297bb3lq7fwx2mh0vh0000gq/T//cch8KZiZ.s:2437   .text.rgblight_setrgb_range:0000000000000040 .LFE158
/var/folders/xk/fjkh8m297bb3lq7fwx2mh0vh0000gq/T//cch8KZiZ.s:16428  .debug_loc:0000000000001601 .LLST95
/var/folders/xk/fjkh8m297bb3lq7fwx2mh0vh0000gq/T//cch8KZiZ.s:16448  .debug_loc:0000000000001627 .LLST96
/var/folders/xk/fjkh8m297bb3lq7fwx2mh0vh0000gq/T//cch8KZiZ.s:16443  .debug_loc:0000000000001623 .LVUS96
/var/folders/xk/fjkh8m297bb3lq7fwx2mh0vh0000gq/T//cch8KZiZ.s:16467  .debug_loc:000000000000164c .LLST97
/var/folders/xk/fjkh8m297bb3lq7fwx2mh0vh0000gq/T//cch8KZiZ.s:16462  .debug_loc:0000000000001648 .LVUS97
/var/folders/xk/fjkh8m297bb3lq7fwx2mh0vh0000gq/T//cch8KZiZ.s:16486  .debug_loc:0000000000001671 .LLST98
/var/folders/xk/fjkh8m297bb3lq7fwx2mh0vh0000gq/T//cch8KZiZ.s:16481  .debug_loc:000000000000166d .LVUS98
/var/folders/xk/fjkh8m297bb3lq7fwx2mh0vh0000gq/T//cch8KZiZ.s:16505  .debug_loc:0000000000001696 .LLST99
/var/folders/xk/fjkh8m297bb3lq7fwx2mh0vh0000gq/T//cch8KZiZ.s:16500  .debug_loc:0000000000001692 .LVUS99
/var/folders/xk/fjkh8m297bb3lq7fwx2mh0vh0000gq/T//cch8KZiZ.s:16524  .debug_loc:00000000000016bb .LLST100
/var/folders/xk/fjkh8m297bb3lq7fwx2mh0vh0000gq/T//cch8KZiZ.s:16519  .debug_loc:00000000000016b7 .LVUS100
/var/folders/xk/fjkh8m297bb3lq7fwx2mh0vh0000gq/T//cch8KZiZ.s:2383   .text.rgblight_setrgb_range:000000000000001e .LBB52
/var/folders/xk/fjkh8m297bb3lq7fwx2mh0vh0000gq/T//cch8KZiZ.s:2403   .text.rgblight_setrgb_range:000000000000002c .LBE52
/var/folders/xk/fjkh8m297bb3lq7fwx2mh0vh0000gq/T//cch8KZiZ.s:16541  .debug_loc:00000000000016de .LLST101
/var/folders/xk/fjkh8m297bb3lq7fwx2mh0vh0000gq/T//cch8KZiZ.s:16538  .debug_loc:00000000000016dc .LVUS101
/var/folders/xk/fjkh8m297bb3lq7fwx2mh0vh0000gq/T//cch8KZiZ.s:2409   .text.rgblight_setrgb_range:0000000000000030 .LBI53
/var/folders/xk/fjkh8m297bb3lq7fwx2mh0vh0000gq/T//cch8KZiZ.s:2408   .text.rgblight_setrgb_range:0000000000000030 .LBB53
/var/folders/xk/fjkh8m297bb3lq7fwx2mh0vh0000gq/T//cch8KZiZ.s:2430   .text.rgblight_setrgb_range:000000000000003c .LBE53
/var/folders/xk/fjkh8m297bb3lq7fwx2mh0vh0000gq/T//cch8KZiZ.s:16551  .debug_loc:00000000000016f3 .LLST102
/var/folders/xk/fjkh8m297bb3lq7fwx2mh0vh0000gq/T//cch8KZiZ.s:16548  .debug_loc:00000000000016f1 .LVUS102
/var/folders/xk/fjkh8m297bb3lq7fwx2mh0vh0000gq/T//cch8KZiZ.s:2412   .text.rgblight_setrgb_range:0000000000000030 .LBB54
/var/folders/xk/fjkh8m297bb3lq7fwx2mh0vh0000gq/T//cch8KZiZ.s:2429   .text.rgblight_setrgb_range:000000000000003c .LBE54
/var/folders/xk/fjkh8m297bb3lq7fwx2mh0vh0000gq/T//cch8KZiZ.s:16563  .debug_loc:000000000000170d .LLST103
/var/folders/xk/fjkh8m297bb3lq7fwx2mh0vh0000gq/T//cch8KZiZ.s:16560  .debug_loc:000000000000170b .LVUS103
/var/folders/xk/fjkh8m297bb3lq7fwx2mh0vh0000gq/T//cch8KZiZ.s:16575  .debug_loc:0000000000001727 .LLST104
/var/folders/xk/fjkh8m297bb3lq7fwx2mh0vh0000gq/T//cch8KZiZ.s:16572  .debug_loc:0000000000001725 .LVUS104
/var/folders/xk/fjkh8m297bb3lq7fwx2mh0vh0000gq/T//cch8KZiZ.s:2406   .text.rgblight_setrgb_range:0000000000000030 .LVL151
/var/folders/xk/fjkh8m297bb3lq7fwx2mh0vh0000gq/T//cch8KZiZ.s:2280   .text.rgblight_sethsv_at:0000000000000000 .LFB156
/var/folders/xk/fjkh8m297bb3lq7fwx2mh0vh0000gq/T//cch8KZiZ.s:2344   .text.rgblight_sethsv_at:000000000000003c .LFE156
/var/folders/xk/fjkh8m297bb3lq7fwx2mh0vh0000gq/T//cch8KZiZ.s:16584  .debug_loc:000000000000173d .LLST90
/var/folders/xk/fjkh8m297bb3lq7fwx2mh0vh0000gq/T//cch8KZiZ.s:16627  .debug_loc:0000000000001796 .LLST91
/var/folders/xk/fjkh8m297bb3lq7fwx2mh0vh0000gq/T//cch8KZiZ.s:16622  .debug_loc:0000000000001792 .LVUS91
/var/folders/xk/fjkh8m297bb3lq7fwx2mh0vh0000gq/T//cch8KZiZ.s:16646  .debug_loc:00000000000017bb .LLST92
/var/folders/xk/fjkh8m297bb3lq7fwx2mh0vh0000gq/T//cch8KZiZ.s:16641  .debug_loc:00000000000017b7 .LVUS92
/var/folders/xk/fjkh8m297bb3lq7fwx2mh0vh0000gq/T//cch8KZiZ.s:16665  .debug_loc:00000000000017e0 .LLST93
/var/folders/xk/fjkh8m297bb3lq7fwx2mh0vh0000gq/T//cch8KZiZ.s:16660  .debug_loc:00000000000017dc .LVUS93
/var/folders/xk/fjkh8m297bb3lq7fwx2mh0vh0000gq/T//cch8KZiZ.s:16686  .debug_loc:0000000000001807 .LLST94
/var/folders/xk/fjkh8m297bb3lq7fwx2mh0vh0000gq/T//cch8KZiZ.s:16679  .debug_loc:0000000000001801 .LVUS94
/var/folders/xk/fjkh8m297bb3lq7fwx2mh0vh0000gq/T//cch8KZiZ.s:2323   .text.rgblight_sethsv_at:0000000000000022 .LVL145
/var/folders/xk/fjkh8m297bb3lq7fwx2mh0vh0000gq/T//cch8KZiZ.s:2330   .text.rgblight_sethsv_at:000000000000002e .LVL146
/var/folders/xk/fjkh8m297bb3lq7fwx2mh0vh0000gq/T//cch8KZiZ.s:2231   .text.rgblight_setrgb_at:0000000000000000 .LFB155
/var/folders/xk/fjkh8m297bb3lq7fwx2mh0vh0000gq/T//cch8KZiZ.s:2273   .text.rgblight_setrgb_at:0000000000000028 .LFE155
/var/folders/xk/fjkh8m297bb3lq7fwx2mh0vh0000gq/T//cch8KZiZ.s:16711  .debug_loc:0000000000001839 .LLST86
/var/folders/xk/fjkh8m297bb3lq7fwx2mh0vh0000gq/T//cch8KZiZ.s:16704  .debug_loc:0000000000001833 .LVUS86
/var/folders/xk/fjkh8m297bb3lq7fwx2mh0vh0000gq/T//cch8KZiZ.s:16736  .debug_loc:000000000000186b .LLST87
/var/folders/xk/fjkh8m297bb3lq7fwx2mh0vh0000gq/T//cch8KZiZ.s:16729  .debug_loc:0000000000001865 .LVUS87
/var/folders/xk/fjkh8m297bb3lq7fwx2mh0vh0000gq/T//cch8KZiZ.s:16761  .debug_loc:000000000000189d .LLST88
/var/folders/xk/fjkh8m297bb3lq7fwx2mh0vh0000gq/T//cch8KZiZ.s:16754  .debug_loc:0000000000001897 .LVUS88
/var/folders/xk/fjkh8m297bb3lq7fwx2mh0vh0000gq/T//cch8KZiZ.s:16786  .debug_loc:00000000000018cf .LLST89
/var/folders/xk/fjkh8m297bb3lq7fwx2mh0vh0000gq/T//cch8KZiZ.s:16779  .debug_loc:00000000000018c9 .LVUS89
/var/folders/xk/fjkh8m297bb3lq7fwx2mh0vh0000gq/T//cch8KZiZ.s:2267   .text.rgblight_setrgb_at:0000000000000026 .LVL142
/var/folders/xk/fjkh8m297bb3lq7fwx2mh0vh0000gq/T//cch8KZiZ.s:961    .text.rgblight_setrgb:0000000000000000 .LFB154
/var/folders/xk/fjkh8m297bb3lq7fwx2mh0vh0000gq/T//cch8KZiZ.s:1024   .text.rgblight_setrgb:0000000000000032 .LFE154
/var/folders/xk/fjkh8m297bb3lq7fwx2mh0vh0000gq/T//cch8KZiZ.s:16811  .debug_loc:0000000000001901 .LLST28
/var/folders/xk/fjkh8m297bb3lq7fwx2mh0vh0000gq/T//cch8KZiZ.s:16804  .debug_loc:00000000000018fb .LVUS28
/var/folders/xk/fjkh8m297bb3lq7fwx2mh0vh0000gq/T//cch8KZiZ.s:16836  .debug_loc:0000000000001933 .LLST29
/var/folders/xk/fjkh8m297bb3lq7fwx2mh0vh0000gq/T//cch8KZiZ.s:16829  .debug_loc:000000000000192d .LVUS29
/var/folders/xk/fjkh8m297bb3lq7fwx2mh0vh0000gq/T//cch8KZiZ.s:16861  .debug_loc:0000000000001965 .LLST30
/var/folders/xk/fjkh8m297bb3lq7fwx2mh0vh0000gq/T//cch8KZiZ.s:16854  .debug_loc:000000000000195f .LVUS30
/var/folders/xk/fjkh8m297bb3lq7fwx2mh0vh0000gq/T//cch8KZiZ.s:16884  .debug_loc:0000000000001995 .LLST31
/var/folders/xk/fjkh8m297bb3lq7fwx2mh0vh0000gq/T//cch8KZiZ.s:16879  .debug_loc:0000000000001991 .LVUS31
/var/folders/xk/fjkh8m297bb3lq7fwx2mh0vh0000gq/T//cch8KZiZ.s:997    .text.rgblight_setrgb:0000000000000024 .LVL47
/var/folders/xk/fjkh8m297bb3lq7fwx2mh0vh0000gq/T//cch8KZiZ.s:838    .text.rgblight_get_hsv:0000000000000000 .LFB153
/var/folders/xk/fjkh8m297bb3lq7fwx2mh0vh0000gq/T//cch8KZiZ.s:857    .text.rgblight_get_hsv:000000000000000c .LFE153
/var/folders/xk/fjkh8m297bb3lq7fwx2mh0vh0000gq/T//cch8KZiZ.s:819    .text.rgblight_get_val:0000000000000000 .LFB152
/var/folders/xk/fjkh8m297bb3lq7fwx2mh0vh0000gq/T//cch8KZiZ.s:832    .text.rgblight_get_val:0000000000000006 .LFE152
/var/folders/xk/fjkh8m297bb3lq7fwx2mh0vh0000gq/T//cch8KZiZ.s:800    .text.rgblight_get_sat:0000000000000000 .LFB151
/var/folders/xk/fjkh8m297bb3lq7fwx2mh0vh0000gq/T//cch8KZiZ.s:813    .text.rgblight_get_sat:0000000000000006 .LFE151
/var/folders/xk/fjkh8m297bb3lq7fwx2mh0vh0000gq/T//cch8KZiZ.s:781    .text.rgblight_get_hue:0000000000000000 .LFB150
/var/folders/xk/fjkh8m297bb3lq7fwx2mh0vh0000gq/T//cch8KZiZ.s:794    .text.rgblight_get_hue:0000000000000006 .LFE150
/var/folders/xk/fjkh8m297bb3lq7fwx2mh0vh0000gq/T//cch8KZiZ.s:762    .text.rgblight_set_speed_noeeprom:0000000000000000 .LFB149
/var/folders/xk/fjkh8m297bb3lq7fwx2mh0vh0000gq/T//cch8KZiZ.s:775    .text.rgblight_set_speed_noeeprom:0000000000000006 .LFE149
/var/folders/xk/fjkh8m297bb3lq7fwx2mh0vh0000gq/T//cch8KZiZ.s:16900  .debug_loc:00000000000019b7 .LLST22
/var/folders/xk/fjkh8m297bb3lq7fwx2mh0vh0000gq/T//cch8KZiZ.s:16895  .debug_loc:00000000000019b3 .LVUS22
/var/folders/xk/fjkh8m297bb3lq7fwx2mh0vh0000gq/T//cch8KZiZ.s:772    .text.rgblight_set_speed_noeeprom:0000000000000006 .LVL37
/var/folders/xk/fjkh8m297bb3lq7fwx2mh0vh0000gq/T//cch8KZiZ.s:742    .text.rgblight_set_speed:0000000000000000 .LFB148
/var/folders/xk/fjkh8m297bb3lq7fwx2mh0vh0000gq/T//cch8KZiZ.s:755    .text.rgblight_set_speed:0000000000000006 .LFE148
/var/folders/xk/fjkh8m297bb3lq7fwx2mh0vh0000gq/T//cch8KZiZ.s:16919  .debug_loc:00000000000019dc .LLST21
/var/folders/xk/fjkh8m297bb3lq7fwx2mh0vh0000gq/T//cch8KZiZ.s:16914  .debug_loc:00000000000019d8 .LVUS21
/var/folders/xk/fjkh8m297bb3lq7fwx2mh0vh0000gq/T//cch8KZiZ.s:752    .text.rgblight_set_speed:0000000000000006 .LVL35
/var/folders/xk/fjkh8m297bb3lq7fwx2mh0vh0000gq/T//cch8KZiZ.s:707    .text.rgblight_set_speed_eeprom_helper:0000000000000000 .LFB147
/var/folders/xk/fjkh8m297bb3lq7fwx2mh0vh0000gq/T//cch8KZiZ.s:735    .text.rgblight_set_speed_eeprom_helper:000000000000001e .LFE147
/var/folders/xk/fjkh8m297bb3lq7fwx2mh0vh0000gq/T//cch8KZiZ.s:16940  .debug_loc:0000000000001a03 .LLST19
/var/folders/xk/fjkh8m297bb3lq7fwx2mh0vh0000gq/T//cch8KZiZ.s:16933  .debug_loc:00000000000019fd .LVUS19
/var/folders/xk/fjkh8m297bb3lq7fwx2mh0vh0000gq/T//cch8KZiZ.s:16965  .debug_loc:0000000000001a35 .LLST20
/var/folders/xk/fjkh8m297bb3lq7fwx2mh0vh0000gq/T//cch8KZiZ.s:16958  .debug_loc:0000000000001a2f .LVUS20
/var/folders/xk/fjkh8m297bb3lq7fwx2mh0vh0000gq/T//cch8KZiZ.s:729    .text.rgblight_set_speed_eeprom_helper:000000000000001c .LVL33
/var/folders/xk/fjkh8m297bb3lq7fwx2mh0vh0000gq/T//cch8KZiZ.s:687    .text.rgblight_get_speed:0000000000000000 .LFB146
/var/folders/xk/fjkh8m297bb3lq7fwx2mh0vh0000gq/T//cch8KZiZ.s:700    .text.rgblight_get_speed:0000000000000006 .LFE146
/var/folders/xk/fjkh8m297bb3lq7fwx2mh0vh0000gq/T//cch8KZiZ.s:2211   .text.rgblight_sethsv_noeeprom:0000000000000000 .LFB145
/var/folders/xk/fjkh8m297bb3lq7fwx2mh0vh0000gq/T//cch8KZiZ.s:2224   .text.rgblight_sethsv_noeeprom:0000000000000006 .LFE145
/var/folders/xk/fjkh8m297bb3lq7fwx2mh0vh0000gq/T//cch8KZiZ.s:16988  .debug_loc:0000000000001a65 .LLST83
/var/folders/xk/fjkh8m297bb3lq7fwx2mh0vh0000gq/T//cch8KZiZ.s:16983  .debug_loc:0000000000001a61 .LVUS83
/var/folders/xk/fjkh8m297bb3lq7fwx2mh0vh0000gq/T//cch8KZiZ.s:17007  .debug_loc:0000000000001a8a .LLST84
/var/folders/xk/fjkh8m297bb3lq7fwx2mh0vh0000gq/T//cch8KZiZ.s:17002  .debug_loc:0000000000001a86 .LVUS84
/var/folders/xk/fjkh8m297bb3lq7fwx2mh0vh0000gq/T//cch8KZiZ.s:17026  .debug_loc:0000000000001aaf .LLST85
/var/folders/xk/fjkh8m297bb3lq7fwx2mh0vh0000gq/T//cch8KZiZ.s:17021  .debug_loc:0000000000001aab .LVUS85
/var/folders/xk/fjkh8m297bb3lq7fwx2mh0vh0000gq/T//cch8KZiZ.s:2221   .text.rgblight_sethsv_noeeprom:0000000000000006 .LVL140
/var/folders/xk/fjkh8m297bb3lq7fwx2mh0vh0000gq/T//cch8KZiZ.s:2191   .text.rgblight_sethsv:0000000000000000 .LFB144
/var/folders/xk/fjkh8m297bb3lq7fwx2mh0vh0000gq/T//cch8KZiZ.s:2204   .text.rgblight_sethsv:0000000000000006 .LFE144
/var/folders/xk/fjkh8m297bb3lq7fwx2mh0vh0000gq/T//cch8KZiZ.s:17045  .debug_loc:0000000000001ad4 .LLST80
/var/folders/xk/fjkh8m297bb3lq7fwx2mh0vh0000gq/T//cch8KZiZ.s:17040  .debug_loc:0000000000001ad0 .LVUS80
/var/folders/xk/fjkh8m297bb3lq7fwx2mh0vh0000gq/T//cch8KZiZ.s:17064  .debug_loc:0000000000001af9 .LLST81
/var/folders/xk/fjkh8m297bb3lq7fwx2mh0vh0000gq/T//cch8KZiZ.s:17059  .debug_loc:0000000000001af5 .LVUS81
/var/folders/xk/fjkh8m297bb3lq7fwx2mh0vh0000gq/T//cch8KZiZ.s:17083  .debug_loc:0000000000001b1e .LLST82
/var/folders/xk/fjkh8m297bb3lq7fwx2mh0vh0000gq/T//cch8KZiZ.s:17078  .debug_loc:0000000000001b1a .LVUS82
/var/folders/xk/fjkh8m297bb3lq7fwx2mh0vh0000gq/T//cch8KZiZ.s:2201   .text.rgblight_sethsv:0000000000000006 .LVL138
/var/folders/xk/fjkh8m297bb3lq7fwx2mh0vh0000gq/T//cch8KZiZ.s:1353   .text.rgblight_sethsv_eeprom_helper:0000000000000000 .LFB143
/var/folders/xk/fjkh8m297bb3lq7fwx2mh0vh0000gq/T//cch8KZiZ.s:1687   .text.rgblight_sethsv_eeprom_helper:0000000000000146 .LFE143
/var/folders/xk/fjkh8m297bb3lq7fwx2mh0vh0000gq/T//cch8KZiZ.s:17097  .debug_loc:0000000000001b3f .LLST48
/var/folders/xk/fjkh8m297bb3lq7fwx2mh0vh0000gq/T//cch8KZiZ.s:17184  .debug_loc:0000000000001bf5 .LLST49
/var/folders/xk/fjkh8m297bb3lq7fwx2mh0vh0000gq/T//cch8KZiZ.s:17177  .debug_loc:0000000000001bef .LVUS49
/var/folders/xk/fjkh8m297bb3lq7fwx2mh0vh0000gq/T//cch8KZiZ.s:17208  .debug_loc:0000000000001c26 .LLST50
/var/folders/xk/fjkh8m297bb3lq7fwx2mh0vh0000gq/T//cch8KZiZ.s:17199  .debug_loc:0000000000001c1e .LVUS50
/var/folders/xk/fjkh8m297bb3lq7fwx2mh0vh0000gq/T//cch8KZiZ.s:17237  .debug_loc:0000000000001c63 .LLST51
/var/folders/xk/fjkh8m297bb3lq7fwx2mh0vh0000gq/T//cch8KZiZ.s:17230  .debug_loc:0000000000001c5d .LVUS51
/var/folders/xk/fjkh8m297bb3lq7fwx2mh0vh0000gq/T//cch8KZiZ.s:17261  .debug_loc:0000000000001c94 .LLST52
/var/folders/xk/fjkh8m297bb3lq7fwx2mh0vh0000gq/T//cch8KZiZ.s:17252  .debug_loc:0000000000001c8c .LVUS52
/var/folders/xk/fjkh8m297bb3lq7fwx2mh0vh0000gq/T//cch8KZiZ.s:1438   .text.rgblight_sethsv_eeprom_helper:0000000000000044 .LBB28
/var/folders/xk/fjkh8m297bb3lq7fwx2mh0vh0000gq/T//cch8KZiZ.s:1457   .text.rgblight_sethsv_eeprom_helper:000000000000005a .LBE28
/var/folders/xk/fjkh8m297bb3lq7fwx2mh0vh0000gq/T//cch8KZiZ.s:1448   .text.rgblight_sethsv_eeprom_helper:0000000000000050 .LVL78
/var/folders/xk/fjkh8m297bb3lq7fwx2mh0vh0000gq/T//cch8KZiZ.s:1454   .text.rgblight_sethsv_eeprom_helper:000000000000005a .LVL79
/var/folders/xk/fjkh8m297bb3lq7fwx2mh0vh0000gq/T//cch8KZiZ.s:1558   .text.rgblight_sethsv_eeprom_helper:00000000000000d8 .LBB29
/var/folders/xk/fjkh8m297bb3lq7fwx2mh0vh0000gq/T//cch8KZiZ.s:1685   .text.rgblight_sethsv_eeprom_helper:0000000000000146 .LBE29
/var/folders/xk/fjkh8m297bb3lq7fwx2mh0vh0000gq/T//cch8KZiZ.s:17288  .debug_loc:0000000000001ccf .LLST53
/var/folders/xk/fjkh8m297bb3lq7fwx2mh0vh0000gq/T//cch8KZiZ.s:17283  .debug_loc:0000000000001ccb .LVUS53
/var/folders/xk/fjkh8m297bb3lq7fwx2mh0vh0000gq/T//cch8KZiZ.s:17310  .debug_loc:0000000000001cfa .LLST54
/var/folders/xk/fjkh8m297bb3lq7fwx2mh0vh0000gq/T//cch8KZiZ.s:17307  .debug_loc:0000000000001cf8 .LVUS54
/var/folders/xk/fjkh8m297bb3lq7fwx2mh0vh0000gq/T//cch8KZiZ.s:17326  .debug_loc:0000000000001d15 .LLST55
/var/folders/xk/fjkh8m297bb3lq7fwx2mh0vh0000gq/T//cch8KZiZ.s:17323  .debug_loc:0000000000001d13 .LVUS55
/var/folders/xk/fjkh8m297bb3lq7fwx2mh0vh0000gq/T//cch8KZiZ.s:1570   .text.rgblight_sethsv_eeprom_helper:00000000000000e0 .LBB30
/var/folders/xk/fjkh8m297bb3lq7fwx2mh0vh0000gq/T//cch8KZiZ.s:1591   .text.rgblight_sethsv_eeprom_helper:00000000000000ec .LBE30
/var/folders/xk/fjkh8m297bb3lq7fwx2mh0vh0000gq/T//cch8KZiZ.s:17336  .debug_loc:0000000000001d2a .LLST56
/var/folders/xk/fjkh8m297bb3lq7fwx2mh0vh0000gq/T//cch8KZiZ.s:17333  .debug_loc:0000000000001d28 .LVUS56
/var/folders/xk/fjkh8m297bb3lq7fwx2mh0vh0000gq/T//cch8KZiZ.s:17351  .debug_loc:0000000000001d44 .LLST57
/var/folders/xk/fjkh8m297bb3lq7fwx2mh0vh0000gq/T//cch8KZiZ.s:17348  .debug_loc:0000000000001d42 .LVUS57
/var/folders/xk/fjkh8m297bb3lq7fwx2mh0vh0000gq/T//cch8KZiZ.s:17368  .debug_loc:0000000000001d60 .LLST58
/var/folders/xk/fjkh8m297bb3lq7fwx2mh0vh0000gq/T//cch8KZiZ.s:17363  .debug_loc:0000000000001d5c .LVUS58
/var/folders/xk/fjkh8m297bb3lq7fwx2mh0vh0000gq/T//cch8KZiZ.s:17389  .debug_loc:0000000000001d87 .LLST59
/var/folders/xk/fjkh8m297bb3lq7fwx2mh0vh0000gq/T//cch8KZiZ.s:17380  .debug_loc:0000000000001d7f .LVUS59
/var/folders/xk/fjkh8m297bb3lq7fwx2mh0vh0000gq/T//cch8KZiZ.s:1665   .text.rgblight_sethsv_eeprom_helper:000000000000013e .LVL97
/var/folders/xk/fjkh8m297bb3lq7fwx2mh0vh0000gq/T//cch8KZiZ.s:1613   .text.rgblight_sethsv_eeprom_helper:00000000000000fc .LVL94
/var/folders/xk/fjkh8m297bb3lq7fwx2mh0vh0000gq/T//cch8KZiZ.s:1496   .text.rgblight_sethsv_eeprom_helper:00000000000000a0 .LVL80
/var/folders/xk/fjkh8m297bb3lq7fwx2mh0vh0000gq/T//cch8KZiZ.s:1031   .text.rgblight_sethsv_noeeprom_old:0000000000000000 .LFB142
/var/folders/xk/fjkh8m297bb3lq7fwx2mh0vh0000gq/T//cch8KZiZ.s:1086   .text.rgblight_sethsv_noeeprom_old:0000000000000034 .LFE142
/var/folders/xk/fjkh8m297bb3lq7fwx2mh0vh0000gq/T//cch8KZiZ.s:17408  .debug_loc:0000000000001dbb .LLST32
/var/folders/xk/fjkh8m297bb3lq7fwx2mh0vh0000gq/T//cch8KZiZ.s:17445  .debug_loc:0000000000001e07 .LLST33
/var/folders/xk/fjkh8m297bb3lq7fwx2mh0vh0000gq/T//cch8KZiZ.s:17440  .debug_loc:0000000000001e03 .LVUS33
/var/folders/xk/fjkh8m297bb3lq7fwx2mh0vh0000gq/T//cch8KZiZ.s:17464  .debug_loc:0000000000001e2c .LLST34
/var/folders/xk/fjkh8m297bb3lq7fwx2mh0vh0000gq/T//cch8KZiZ.s:17459  .debug_loc:0000000000001e28 .LVUS34
/var/folders/xk/fjkh8m297bb3lq7fwx2mh0vh0000gq/T//cch8KZiZ.s:17483  .debug_loc:0000000000001e51 .LLST35
/var/folders/xk/fjkh8m297bb3lq7fwx2mh0vh0000gq/T//cch8KZiZ.s:17478  .debug_loc:0000000000001e4d .LVUS35
/var/folders/xk/fjkh8m297bb3lq7fwx2mh0vh0000gq/T//cch8KZiZ.s:1061   .text.rgblight_sethsv_noeeprom_old:0000000000000014 .LBB25
/var/folders/xk/fjkh8m297bb3lq7fwx2mh0vh0000gq/T//cch8KZiZ.s:1077   .text.rgblight_sethsv_noeeprom_old:0000000000000028 .LBE25
/var/folders/xk/fjkh8m297bb3lq7fwx2mh0vh0000gq/T//cch8KZiZ.s:1068   .text.rgblight_sethsv_noeeprom_old:000000000000001e .LVL51
/var/folders/xk/fjkh8m297bb3lq7fwx2mh0vh0000gq/T//cch8KZiZ.s:1074   .text.rgblight_sethsv_noeeprom_old:0000000000000028 .LVL52
/var/folders/xk/fjkh8m297bb3lq7fwx2mh0vh0000gq/T//cch8KZiZ.s:669    .text.rgblight_decrease_speed_noeeprom:0000000000000000 .LFB141
/var/folders/xk/fjkh8m297bb3lq7fwx2mh0vh0000gq/T//cch8KZiZ.s:681    .text.rgblight_decrease_speed_noeeprom:0000000000000006 .LFE141
/var/folders/xk/fjkh8m297bb3lq7fwx2mh0vh0000gq/T//cch8KZiZ.s:679    .text.rgblight_decrease_speed_noeeprom:0000000000000006 .LVL30
/var/folders/xk/fjkh8m297bb3lq7fwx2mh0vh0000gq/T//cch8KZiZ.s:651    .text.rgblight_decrease_speed:0000000000000000 .LFB140
/var/folders/xk/fjkh8m297bb3lq7fwx2mh0vh0000gq/T//cch8KZiZ.s:663    .text.rgblight_decrease_speed:0000000000000006 .LFE140
/var/folders/xk/fjkh8m297bb3lq7fwx2mh0vh0000gq/T//cch8KZiZ.s:661    .text.rgblight_decrease_speed:0000000000000006 .LVL29
/var/folders/xk/fjkh8m297bb3lq7fwx2mh0vh0000gq/T//cch8KZiZ.s:611    .text.rgblight_decrease_speed_helper:0000000000000000 .LFB139
/var/folders/xk/fjkh8m297bb3lq7fwx2mh0vh0000gq/T//cch8KZiZ.s:645    .text.rgblight_decrease_speed_helper:0000000000000028 .LFE139
/var/folders/xk/fjkh8m297bb3lq7fwx2mh0vh0000gq/T//cch8KZiZ.s:17504  .debug_loc:0000000000001e78 .LLST18
/var/folders/xk/fjkh8m297bb3lq7fwx2mh0vh0000gq/T//cch8KZiZ.s:17497  .debug_loc:0000000000001e72 .LVUS18
/var/folders/xk/fjkh8m297bb3lq7fwx2mh0vh0000gq/T//cch8KZiZ.s:639    .text.rgblight_decrease_speed_helper:0000000000000026 .LVL28
/var/folders/xk/fjkh8m297bb3lq7fwx2mh0vh0000gq/T//cch8KZiZ.s:592    .text.rgblight_increase_speed_noeeprom:0000000000000000 .LFB138
/var/folders/xk/fjkh8m297bb3lq7fwx2mh0vh0000gq/T//cch8KZiZ.s:604    .text.rgblight_increase_speed_noeeprom:0000000000000006 .LFE138
/var/folders/xk/fjkh8m297bb3lq7fwx2mh0vh0000gq/T//cch8KZiZ.s:602    .text.rgblight_increase_speed_noeeprom:0000000000000006 .LVL26
/var/folders/xk/fjkh8m297bb3lq7fwx2mh0vh0000gq/T//cch8KZiZ.s:574    .text.rgblight_increase_speed:0000000000000000 .LFB137
/var/folders/xk/fjkh8m297bb3lq7fwx2mh0vh0000gq/T//cch8KZiZ.s:586    .text.rgblight_increase_speed:0000000000000006 .LFE137
/var/folders/xk/fjkh8m297bb3lq7fwx2mh0vh0000gq/T//cch8KZiZ.s:584    .text.rgblight_increase_speed:0000000000000006 .LVL25
/var/folders/xk/fjkh8m297bb3lq7fwx2mh0vh0000gq/T//cch8KZiZ.s:534    .text.rgblight_increase_speed_helper:0000000000000000 .LFB136
/var/folders/xk/fjkh8m297bb3lq7fwx2mh0vh0000gq/T//cch8KZiZ.s:568    .text.rgblight_increase_speed_helper:0000000000000028 .LFE136
/var/folders/xk/fjkh8m297bb3lq7fwx2mh0vh0000gq/T//cch8KZiZ.s:17529  .debug_loc:0000000000001eaa .LLST17
/var/folders/xk/fjkh8m297bb3lq7fwx2mh0vh0000gq/T//cch8KZiZ.s:17522  .debug_loc:0000000000001ea4 .LVUS17
/var/folders/xk/fjkh8m297bb3lq7fwx2mh0vh0000gq/T//cch8KZiZ.s:562    .text.rgblight_increase_speed_helper:0000000000000026 .LVL24
/var/folders/xk/fjkh8m297bb3lq7fwx2mh0vh0000gq/T//cch8KZiZ.s:2172   .text.rgblight_decrease_val:0000000000000000 .LFB135
/var/folders/xk/fjkh8m297bb3lq7fwx2mh0vh0000gq/T//cch8KZiZ.s:2184   .text.rgblight_decrease_val:0000000000000006 .LFE135
/var/folders/xk/fjkh8m297bb3lq7fwx2mh0vh0000gq/T//cch8KZiZ.s:2182   .text.rgblight_decrease_val:0000000000000006 .LVL136
/var/folders/xk/fjkh8m297bb3lq7fwx2mh0vh0000gq/T//cch8KZiZ.s:2154   .text.rgblight_decrease_val_noeeprom:0000000000000000 .LFB134
/var/folders/xk/fjkh8m297bb3lq7fwx2mh0vh0000gq/T//cch8KZiZ.s:2166   .text.rgblight_decrease_val_noeeprom:0000000000000006 .LFE134
/var/folders/xk/fjkh8m297bb3lq7fwx2mh0vh0000gq/T//cch8KZiZ.s:2164   .text.rgblight_decrease_val_noeeprom:0000000000000006 .LVL135
/var/folders/xk/fjkh8m297bb3lq7fwx2mh0vh0000gq/T//cch8KZiZ.s:2102   .text.rgblight_decrease_val_helper:0000000000000000 .LFB133
/var/folders/xk/fjkh8m297bb3lq7fwx2mh0vh0000gq/T//cch8KZiZ.s:2148   .text.rgblight_decrease_val_helper:0000000000000018 .LFE133
/var/folders/xk/fjkh8m297bb3lq7fwx2mh0vh0000gq/T//cch8KZiZ.s:17554  .debug_loc:0000000000001edc .LLST76
/var/folders/xk/fjkh8m297bb3lq7fwx2mh0vh0000gq/T//cch8KZiZ.s:17547  .debug_loc:0000000000001ed6 .LVUS76
/var/folders/xk/fjkh8m297bb3lq7fwx2mh0vh0000gq/T//cch8KZiZ.s:17575  .debug_loc:0000000000001f0a .LLST77
/var/folders/xk/fjkh8m297bb3lq7fwx2mh0vh0000gq/T//cch8KZiZ.s:17572  .debug_loc:0000000000001f08 .LVUS77
/var/folders/xk/fjkh8m297bb3lq7fwx2mh0vh0000gq/T//cch8KZiZ.s:2111   .text.rgblight_decrease_val_helper:0000000000000000 .LBI48
/var/folders/xk/fjkh8m297bb3lq7fwx2mh0vh0000gq/T//cch8KZiZ.s:17585  .debug_loc:0000000000001f1f .LLST78
/var/folders/xk/fjkh8m297bb3lq7fwx2mh0vh0000gq/T//cch8KZiZ.s:17582  .debug_loc:0000000000001f1d .LVUS78
/var/folders/xk/fjkh8m297bb3lq7fwx2mh0vh0000gq/T//cch8KZiZ.s:17598  .debug_loc:0000000000001f37 .LLST79
/var/folders/xk/fjkh8m297bb3lq7fwx2mh0vh0000gq/T//cch8KZiZ.s:17593  .debug_loc:0000000000001f33 .LVUS79
/var/folders/xk/fjkh8m297bb3lq7fwx2mh0vh0000gq/T//cch8KZiZ.s:2145   .text.rgblight_decrease_val_helper:0000000000000018 .LVL134
/var/folders/xk/fjkh8m297bb3lq7fwx2mh0vh0000gq/T//cch8KZiZ.s:2083   .text.rgblight_increase_val:0000000000000000 .LFB132
/var/folders/xk/fjkh8m297bb3lq7fwx2mh0vh0000gq/T//cch8KZiZ.s:2095   .text.rgblight_increase_val:0000000000000006 .LFE132
/var/folders/xk/fjkh8m297bb3lq7fwx2mh0vh0000gq/T//cch8KZiZ.s:2093   .text.rgblight_increase_val:0000000000000006 .LVL130
/var/folders/xk/fjkh8m297bb3lq7fwx2mh0vh0000gq/T//cch8KZiZ.s:2065   .text.rgblight_increase_val_noeeprom:0000000000000000 .LFB131
/var/folders/xk/fjkh8m297bb3lq7fwx2mh0vh0000gq/T//cch8KZiZ.s:2077   .text.rgblight_increase_val_noeeprom:0000000000000006 .LFE131
/var/folders/xk/fjkh8m297bb3lq7fwx2mh0vh0000gq/T//cch8KZiZ.s:2075   .text.rgblight_increase_val_noeeprom:0000000000000006 .LVL129
/var/folders/xk/fjkh8m297bb3lq7fwx2mh0vh0000gq/T//cch8KZiZ.s:2013   .text.rgblight_increase_val_helper:0000000000000000 .LFB130
/var/folders/xk/fjkh8m297bb3lq7fwx2mh0vh0000gq/T//cch8KZiZ.s:2059   .text.rgblight_increase_val_helper:0000000000000018 .LFE130
/var/folders/xk/fjkh8m297bb3lq7fwx2mh0vh0000gq/T//cch8KZiZ.s:17617  .debug_loc:0000000000001f5f .LLST72
/var/folders/xk/fjkh8m297bb3lq7fwx2mh0vh0000gq/T//cch8KZiZ.s:17610  .debug_loc:0000000000001f59 .LVUS72
/var/folders/xk/fjkh8m297bb3lq7fwx2mh0vh0000gq/T//cch8KZiZ.s:17638  .debug_loc:0000000000001f8d .LLST73
/var/folders/xk/fjkh8m297bb3lq7fwx2mh0vh0000gq/T//cch8KZiZ.s:17635  .debug_loc:0000000000001f8b .LVUS73
/var/folders/xk/fjkh8m297bb3lq7fwx2mh0vh0000gq/T//cch8KZiZ.s:2022   .text.rgblight_increase_val_helper:0000000000000000 .LBI44
/var/folders/xk/fjkh8m297bb3lq7fwx2mh0vh0000gq/T//cch8KZiZ.s:17648  .debug_loc:0000000000001fa2 .LLST74
/var/folders/xk/fjkh8m297bb3lq7fwx2mh0vh0000gq/T//cch8KZiZ.s:17645  .debug_loc:0000000000001fa0 .LVUS74
/var/folders/xk/fjkh8m297bb3lq7fwx2mh0vh0000gq/T//cch8KZiZ.s:17661  .debug_loc:0000000000001fba .LLST75
/var/folders/xk/fjkh8m297bb3lq7fwx2mh0vh0000gq/T//cch8KZiZ.s:17656  .debug_loc:0000000000001fb6 .LVUS75
/var/folders/xk/fjkh8m297bb3lq7fwx2mh0vh0000gq/T//cch8KZiZ.s:2056   .text.rgblight_increase_val_helper:0000000000000018 .LVL128
/var/folders/xk/fjkh8m297bb3lq7fwx2mh0vh0000gq/T//cch8KZiZ.s:1994   .text.rgblight_decrease_sat:0000000000000000 .LFB129
/var/folders/xk/fjkh8m297bb3lq7fwx2mh0vh0000gq/T//cch8KZiZ.s:2006   .text.rgblight_decrease_sat:0000000000000006 .LFE129
/var/folders/xk/fjkh8m297bb3lq7fwx2mh0vh0000gq/T//cch8KZiZ.s:2004   .text.rgblight_decrease_sat:0000000000000006 .LVL124
/var/folders/xk/fjkh8m297bb3lq7fwx2mh0vh0000gq/T//cch8KZiZ.s:1976   .text.rgblight_decrease_sat_noeeprom:0000000000000000 .LFB128
/var/folders/xk/fjkh8m297bb3lq7fwx2mh0vh0000gq/T//cch8KZiZ.s:1988   .text.rgblight_decrease_sat_noeeprom:0000000000000006 .LFE128
/var/folders/xk/fjkh8m297bb3lq7fwx2mh0vh0000gq/T//cch8KZiZ.s:1986   .text.rgblight_decrease_sat_noeeprom:0000000000000006 .LVL123
/var/folders/xk/fjkh8m297bb3lq7fwx2mh0vh0000gq/T//cch8KZiZ.s:1924   .text.rgblight_decrease_sat_helper:0000000000000000 .LFB127
/var/folders/xk/fjkh8m297bb3lq7fwx2mh0vh0000gq/T//cch8KZiZ.s:1970   .text.rgblight_decrease_sat_helper:0000000000000018 .LFE127
/var/folders/xk/fjkh8m297bb3lq7fwx2mh0vh0000gq/T//cch8KZiZ.s:17680  .debug_loc:0000000000001fe2 .LLST68
/var/folders/xk/fjkh8m297bb3lq7fwx2mh0vh0000gq/T//cch8KZiZ.s:17673  .debug_loc:0000000000001fdc .LVUS68
/var/folders/xk/fjkh8m297bb3lq7fwx2mh0vh0000gq/T//cch8KZiZ.s:17701  .debug_loc:0000000000002010 .LLST69
/var/folders/xk/fjkh8m297bb3lq7fwx2mh0vh0000gq/T//cch8KZiZ.s:17698  .debug_loc:000000000000200e .LVUS69
/var/folders/xk/fjkh8m297bb3lq7fwx2mh0vh0000gq/T//cch8KZiZ.s:1933   .text.rgblight_decrease_sat_helper:0000000000000000 .LBI40
/var/folders/xk/fjkh8m297bb3lq7fwx2mh0vh0000gq/T//cch8KZiZ.s:17711  .debug_loc:0000000000002025 .LLST70
/var/folders/xk/fjkh8m297bb3lq7fwx2mh0vh0000gq/T//cch8KZiZ.s:17708  .debug_loc:0000000000002023 .LVUS70
/var/folders/xk/fjkh8m297bb3lq7fwx2mh0vh0000gq/T//cch8KZiZ.s:17724  .debug_loc:000000000000203d .LLST71
/var/folders/xk/fjkh8m297bb3lq7fwx2mh0vh0000gq/T//cch8KZiZ.s:17719  .debug_loc:0000000000002039 .LVUS71
/var/folders/xk/fjkh8m297bb3lq7fwx2mh0vh0000gq/T//cch8KZiZ.s:1967   .text.rgblight_decrease_sat_helper:0000000000000018 .LVL122
/var/folders/xk/fjkh8m297bb3lq7fwx2mh0vh0000gq/T//cch8KZiZ.s:1905   .text.rgblight_increase_sat:0000000000000000 .LFB126
/var/folders/xk/fjkh8m297bb3lq7fwx2mh0vh0000gq/T//cch8KZiZ.s:1917   .text.rgblight_increase_sat:0000000000000006 .LFE126
/var/folders/xk/fjkh8m297bb3lq7fwx2mh0vh0000gq/T//cch8KZiZ.s:1915   .text.rgblight_increase_sat:0000000000000006 .LVL118
/var/folders/xk/fjkh8m297bb3lq7fwx2mh0vh0000gq/T//cch8KZiZ.s:1887   .text.rgblight_increase_sat_noeeprom:0000000000000000 .LFB125
/var/folders/xk/fjkh8m297bb3lq7fwx2mh0vh0000gq/T//cch8KZiZ.s:1899   .text.rgblight_increase_sat_noeeprom:0000000000000006 .LFE125
/var/folders/xk/fjkh8m297bb3lq7fwx2mh0vh0000gq/T//cch8KZiZ.s:1897   .text.rgblight_increase_sat_noeeprom:0000000000000006 .LVL117
/var/folders/xk/fjkh8m297bb3lq7fwx2mh0vh0000gq/T//cch8KZiZ.s:1834   .text.rgblight_increase_sat_helper:0000000000000000 .LFB124
/var/folders/xk/fjkh8m297bb3lq7fwx2mh0vh0000gq/T//cch8KZiZ.s:1881   .text.rgblight_increase_sat_helper:0000000000000018 .LFE124
/var/folders/xk/fjkh8m297bb3lq7fwx2mh0vh0000gq/T//cch8KZiZ.s:17743  .debug_loc:0000000000002065 .LLST64
/var/folders/xk/fjkh8m297bb3lq7fwx2mh0vh0000gq/T//cch8KZiZ.s:17736  .debug_loc:000000000000205f .LVUS64
/var/folders/xk/fjkh8m297bb3lq7fwx2mh0vh0000gq/T//cch8KZiZ.s:17764  .debug_loc:0000000000002093 .LLST65
/var/folders/xk/fjkh8m297bb3lq7fwx2mh0vh0000gq/T//cch8KZiZ.s:17761  .debug_loc:0000000000002091 .LVUS65
/var/folders/xk/fjkh8m297bb3lq7fwx2mh0vh0000gq/T//cch8KZiZ.s:1843   .text.rgblight_increase_sat_helper:0000000000000000 .LBI36
/var/folders/xk/fjkh8m297bb3lq7fwx2mh0vh0000gq/T//cch8KZiZ.s:17774  .debug_loc:00000000000020a8 .LLST66
/var/folders/xk/fjkh8m297bb3lq7fwx2mh0vh0000gq/T//cch8KZiZ.s:17771  .debug_loc:00000000000020a6 .LVUS66
/var/folders/xk/fjkh8m297bb3lq7fwx2mh0vh0000gq/T//cch8KZiZ.s:17787  .debug_loc:00000000000020c0 .LLST67
/var/folders/xk/fjkh8m297bb3lq7fwx2mh0vh0000gq/T//cch8KZiZ.s:17782  .debug_loc:00000000000020bc .LVUS67
/var/folders/xk/fjkh8m297bb3lq7fwx2mh0vh0000gq/T//cch8KZiZ.s:1878   .text.rgblight_increase_sat_helper:0000000000000018 .LVL116
/var/folders/xk/fjkh8m297bb3lq7fwx2mh0vh0000gq/T//cch8KZiZ.s:1815   .text.rgblight_decrease_hue:0000000000000000 .LFB123
/var/folders/xk/fjkh8m297bb3lq7fwx2mh0vh0000gq/T//cch8KZiZ.s:1827   .text.rgblight_decrease_hue:0000000000000006 .LFE123
/var/folders/xk/fjkh8m297bb3lq7fwx2mh0vh0000gq/T//cch8KZiZ.s:1825   .text.rgblight_decrease_hue:0000000000000006 .LVL112
/var/folders/xk/fjkh8m297bb3lq7fwx2mh0vh0000gq/T//cch8KZiZ.s:1797   .text.rgblight_decrease_hue_noeeprom:0000000000000000 .LFB122
/var/folders/xk/fjkh8m297bb3lq7fwx2mh0vh0000gq/T//cch8KZiZ.s:1809   .text.rgblight_decrease_hue_noeeprom:0000000000000006 .LFE122
/var/folders/xk/fjkh8m297bb3lq7fwx2mh0vh0000gq/T//cch8KZiZ.s:1807   .text.rgblight_decrease_hue_noeeprom:0000000000000006 .LVL111
/var/folders/xk/fjkh8m297bb3lq7fwx2mh0vh0000gq/T//cch8KZiZ.s:1764   .text.rgblight_decrease_hue_helper:0000000000000000 .LFB121
/var/folders/xk/fjkh8m297bb3lq7fwx2mh0vh0000gq/T//cch8KZiZ.s:1791   .text.rgblight_decrease_hue_helper:0000000000000014 .LFE121
/var/folders/xk/fjkh8m297bb3lq7fwx2mh0vh0000gq/T//cch8KZiZ.s:17806  .debug_loc:00000000000020e8 .LLST62
/var/folders/xk/fjkh8m297bb3lq7fwx2mh0vh0000gq/T//cch8KZiZ.s:17799  .debug_loc:00000000000020e2 .LVUS62
/var/folders/xk/fjkh8m297bb3lq7fwx2mh0vh0000gq/T//cch8KZiZ.s:17829  .debug_loc:0000000000002118 .LLST63
/var/folders/xk/fjkh8m297bb3lq7fwx2mh0vh0000gq/T//cch8KZiZ.s:17824  .debug_loc:0000000000002114 .LVUS63
/var/folders/xk/fjkh8m297bb3lq7fwx2mh0vh0000gq/T//cch8KZiZ.s:1788   .text.rgblight_decrease_hue_helper:0000000000000014 .LVL110
/var/folders/xk/fjkh8m297bb3lq7fwx2mh0vh0000gq/T//cch8KZiZ.s:1745   .text.rgblight_increase_hue:0000000000000000 .LFB120
/var/folders/xk/fjkh8m297bb3lq7fwx2mh0vh0000gq/T//cch8KZiZ.s:1757   .text.rgblight_increase_hue:0000000000000006 .LFE120
/var/folders/xk/fjkh8m297bb3lq7fwx2mh0vh0000gq/T//cch8KZiZ.s:1755   .text.rgblight_increase_hue:0000000000000006 .LVL106
/var/folders/xk/fjkh8m297bb3lq7fwx2mh0vh0000gq/T//cch8KZiZ.s:1727   .text.rgblight_increase_hue_noeeprom:0000000000000000 .LFB119
/var/folders/xk/fjkh8m297bb3lq7fwx2mh0vh0000gq/T//cch8KZiZ.s:1739   .text.rgblight_increase_hue_noeeprom:0000000000000006 .LFE119
/var/folders/xk/fjkh8m297bb3lq7fwx2mh0vh0000gq/T//cch8KZiZ.s:1737   .text.rgblight_increase_hue_noeeprom:0000000000000006 .LVL105
/var/folders/xk/fjkh8m297bb3lq7fwx2mh0vh0000gq/T//cch8KZiZ.s:1694   .text.rgblight_increase_hue_helper:0000000000000000 .LFB118
/var/folders/xk/fjkh8m297bb3lq7fwx2mh0vh0000gq/T//cch8KZiZ.s:1721   .text.rgblight_increase_hue_helper:0000000000000014 .LFE118
/var/folders/xk/fjkh8m297bb3lq7fwx2mh0vh0000gq/T//cch8KZiZ.s:17853  .debug_loc:0000000000002145 .LLST60
/var/folders/xk/fjkh8m297bb3lq7fwx2mh0vh0000gq/T//cch8KZiZ.s:17846  .debug_loc:000000000000213f .LVUS60
/var/folders/xk/fjkh8m297bb3lq7fwx2mh0vh0000gq/T//cch8KZiZ.s:17876  .debug_loc:0000000000002175 .LLST61
/var/folders/xk/fjkh8m297bb3lq7fwx2mh0vh0000gq/T//cch8KZiZ.s:17871  .debug_loc:0000000000002171 .LVUS61
/var/folders/xk/fjkh8m297bb3lq7fwx2mh0vh0000gq/T//cch8KZiZ.s:1718   .text.rgblight_increase_hue_helper:0000000000000014 .LVL104
/var/folders/xk/fjkh8m297bb3lq7fwx2mh0vh0000gq/T//cch8KZiZ.s:512    .text.rgblight_is_enabled:0000000000000000 .LFB117
/var/folders/xk/fjkh8m297bb3lq7fwx2mh0vh0000gq/T//cch8KZiZ.s:527    .text.rgblight_is_enabled:0000000000000008 .LFE117
/var/folders/xk/fjkh8m297bb3lq7fwx2mh0vh0000gq/T//cch8KZiZ.s:4098   .text.rgblight_disable_noeeprom:0000000000000000 .LFB116
/var/folders/xk/fjkh8m297bb3lq7fwx2mh0vh0000gq/T//cch8KZiZ.s:4151   .text.rgblight_disable_noeeprom:000000000000002e .LFE116
/var/folders/xk/fjkh8m297bb3lq7fwx2mh0vh0000gq/T//cch8KZiZ.s:4125   .text.rgblight_disable_noeeprom:0000000000000018 .LBI72
/var/folders/xk/fjkh8m297bb3lq7fwx2mh0vh0000gq/T//cch8KZiZ.s:4124   .text.rgblight_disable_noeeprom:0000000000000018 .LBB72
/var/folders/xk/fjkh8m297bb3lq7fwx2mh0vh0000gq/T//cch8KZiZ.s:4146   .text.rgblight_disable_noeeprom:000000000000002a .LBE72
/var/folders/xk/fjkh8m297bb3lq7fwx2mh0vh0000gq/T//cch8KZiZ.s:17896  .debug_loc:000000000000219e .LLST146
/var/folders/xk/fjkh8m297bb3lq7fwx2mh0vh0000gq/T//cch8KZiZ.s:17893  .debug_loc:000000000000219c .LVUS146
/var/folders/xk/fjkh8m297bb3lq7fwx2mh0vh0000gq/T//cch8KZiZ.s:4127   .text.rgblight_disable_noeeprom:0000000000000018 .LBB73
/var/folders/xk/fjkh8m297bb3lq7fwx2mh0vh0000gq/T//cch8KZiZ.s:4145   .text.rgblight_disable_noeeprom:000000000000002a .LBE73
/var/folders/xk/fjkh8m297bb3lq7fwx2mh0vh0000gq/T//cch8KZiZ.s:17908  .debug_loc:00000000000021b8 .LLST147
/var/folders/xk/fjkh8m297bb3lq7fwx2mh0vh0000gq/T//cch8KZiZ.s:17905  .debug_loc:00000000000021b6 .LVUS147
/var/folders/xk/fjkh8m297bb3lq7fwx2mh0vh0000gq/T//cch8KZiZ.s:17920  .debug_loc:00000000000021d2 .LLST148
/var/folders/xk/fjkh8m297bb3lq7fwx2mh0vh0000gq/T//cch8KZiZ.s:17917  .debug_loc:00000000000021d0 .LVUS148
/var/folders/xk/fjkh8m297bb3lq7fwx2mh0vh0000gq/T//cch8KZiZ.s:4115   .text.rgblight_disable_noeeprom:000000000000000e .LVL259
/var/folders/xk/fjkh8m297bb3lq7fwx2mh0vh0000gq/T//cch8KZiZ.s:4149   .text.rgblight_disable_noeeprom:000000000000002e .LVL262
/var/folders/xk/fjkh8m297bb3lq7fwx2mh0vh0000gq/T//cch8KZiZ.s:4157   .text.rgblight_disable:0000000000000000 .LFB115
/var/folders/xk/fjkh8m297bb3lq7fwx2mh0vh0000gq/T//cch8KZiZ.s:4217   .text.rgblight_disable:000000000000003a .LFE115
/var/folders/xk/fjkh8m297bb3lq7fwx2mh0vh0000gq/T//cch8KZiZ.s:4191   .text.rgblight_disable:0000000000000024 .LBI74
/var/folders/xk/fjkh8m297bb3lq7fwx2mh0vh0000gq/T//cch8KZiZ.s:4190   .text.rgblight_disable:0000000000000024 .LBB74
/var/folders/xk/fjkh8m297bb3lq7fwx2mh0vh0000gq/T//cch8KZiZ.s:4212   .text.rgblight_disable:0000000000000036 .LBE74
/var/folders/xk/fjkh8m297bb3lq7fwx2mh0vh0000gq/T//cch8KZiZ.s:17932  .debug_loc:00000000000021ec .LLST149
/var/folders/xk/fjkh8m297bb3lq7fwx2mh0vh0000gq/T//cch8KZiZ.s:17929  .debug_loc:00000000000021ea .LVUS149
/var/folders/xk/fjkh8m297bb3lq7fwx2mh0vh0000gq/T//cch8KZiZ.s:4193   .text.rgblight_disable:0000000000000024 .LBB75
/var/folders/xk/fjkh8m297bb3lq7fwx2mh0vh0000gq/T//cch8KZiZ.s:4211   .text.rgblight_disable:0000000000000036 .LBE75
/var/folders/xk/fjkh8m297bb3lq7fwx2mh0vh0000gq/T//cch8KZiZ.s:17944  .debug_loc:0000000000002206 .LLST150
/var/folders/xk/fjkh8m297bb3lq7fwx2mh0vh0000gq/T//cch8KZiZ.s:17941  .debug_loc:0000000000002204 .LVUS150
/var/folders/xk/fjkh8m297bb3lq7fwx2mh0vh0000gq/T//cch8KZiZ.s:17956  .debug_loc:0000000000002220 .LLST151
/var/folders/xk/fjkh8m297bb3lq7fwx2mh0vh0000gq/T//cch8KZiZ.s:17953  .debug_loc:000000000000221e .LVUS151
/var/folders/xk/fjkh8m297bb3lq7fwx2mh0vh0000gq/T//cch8KZiZ.s:4177   .text.rgblight_disable:0000000000000016 .LVL263
/var/folders/xk/fjkh8m297bb3lq7fwx2mh0vh0000gq/T//cch8KZiZ.s:4181   .text.rgblight_disable:000000000000001a .LVL264
/var/folders/xk/fjkh8m297bb3lq7fwx2mh0vh0000gq/T//cch8KZiZ.s:4215   .text.rgblight_disable:000000000000003a .LVL267
/var/folders/xk/fjkh8m297bb3lq7fwx2mh0vh0000gq/T//cch8KZiZ.s:4817   .text.rgblight_enable_noeeprom:0000000000000000 .LFB114
/var/folders/xk/fjkh8m297bb3lq7fwx2mh0vh0000gq/T//cch8KZiZ.s:4837   .text.rgblight_enable_noeeprom:0000000000000010 .LFE114
/var/folders/xk/fjkh8m297bb3lq7fwx2mh0vh0000gq/T//cch8KZiZ.s:4835   .text.rgblight_enable_noeeprom:0000000000000010 .LVL320
/var/folders/xk/fjkh8m297bb3lq7fwx2mh0vh0000gq/T//cch8KZiZ.s:4650   .text.rgblight_enable:0000000000000000 .LFB113
/var/folders/xk/fjkh8m297bb3lq7fwx2mh0vh0000gq/T//cch8KZiZ.s:4670   .text.rgblight_enable:0000000000000010 .LFE113
/var/folders/xk/fjkh8m297bb3lq7fwx2mh0vh0000gq/T//cch8KZiZ.s:4668   .text.rgblight_enable:0000000000000010 .LVL306
/var/folders/xk/fjkh8m297bb3lq7fwx2mh0vh0000gq/T//cch8KZiZ.s:4843   .text.rgblight_toggle_noeeprom:0000000000000000 .LFB112
/var/folders/xk/fjkh8m297bb3lq7fwx2mh0vh0000gq/T//cch8KZiZ.s:4864   .text.rgblight_toggle_noeeprom:000000000000000e .LFE112
/var/folders/xk/fjkh8m297bb3lq7fwx2mh0vh0000gq/T//cch8KZiZ.s:4858   .text.rgblight_toggle_noeeprom:000000000000000a .LVL321
/var/folders/xk/fjkh8m297bb3lq7fwx2mh0vh0000gq/T//cch8KZiZ.s:4862   .text.rgblight_toggle_noeeprom:000000000000000e .LVL322
/var/folders/xk/fjkh8m297bb3lq7fwx2mh0vh0000gq/T//cch8KZiZ.s:4676   .text.rgblight_toggle:0000000000000000 .LFB111
/var/folders/xk/fjkh8m297bb3lq7fwx2mh0vh0000gq/T//cch8KZiZ.s:4697   .text.rgblight_toggle:000000000000000e .LFE111
/var/folders/xk/fjkh8m297bb3lq7fwx2mh0vh0000gq/T//cch8KZiZ.s:4691   .text.rgblight_toggle:000000000000000a .LVL307
/var/folders/xk/fjkh8m297bb3lq7fwx2mh0vh0000gq/T//cch8KZiZ.s:4695   .text.rgblight_toggle:000000000000000e .LVL308
/var/folders/xk/fjkh8m297bb3lq7fwx2mh0vh0000gq/T//cch8KZiZ.s:4704   .text.rgblight_mode_noeeprom:0000000000000000 .LFB110
/var/folders/xk/fjkh8m297bb3lq7fwx2mh0vh0000gq/T//cch8KZiZ.s:4717   .text.rgblight_mode_noeeprom:0000000000000006 .LFE110
/var/folders/xk/fjkh8m297bb3lq7fwx2mh0vh0000gq/T//cch8KZiZ.s:17970  .debug_loc:000000000000223c .LLST163
/var/folders/xk/fjkh8m297bb3lq7fwx2mh0vh0000gq/T//cch8KZiZ.s:17965  .debug_loc:0000000000002238 .LVUS163
/var/folders/xk/fjkh8m297bb3lq7fwx2mh0vh0000gq/T//cch8KZiZ.s:4714   .text.rgblight_mode_noeeprom:0000000000000006 .LVL310
/var/folders/xk/fjkh8m297bb3lq7fwx2mh0vh0000gq/T//cch8KZiZ.s:4561   .text.rgblight_mode:0000000000000000 .LFB109
/var/folders/xk/fjkh8m297bb3lq7fwx2mh0vh0000gq/T//cch8KZiZ.s:4574   .text.rgblight_mode:0000000000000006 .LFE109
/var/folders/xk/fjkh8m297bb3lq7fwx2mh0vh0000gq/T//cch8KZiZ.s:17989  .debug_loc:0000000000002261 .LLST160
/var/folders/xk/fjkh8m297bb3lq7fwx2mh0vh0000gq/T//cch8KZiZ.s:17984  .debug_loc:000000000000225d .LVUS160
/var/folders/xk/fjkh8m297bb3lq7fwx2mh0vh0000gq/T//cch8KZiZ.s:4571   .text.rgblight_mode:0000000000000006 .LVL299
/var/folders/xk/fjkh8m297bb3lq7fwx2mh0vh0000gq/T//cch8KZiZ.s:4286   .text.rgblight_mode_eeprom_helper:0000000000000000 .LFB108
/var/folders/xk/fjkh8m297bb3lq7fwx2mh0vh0000gq/T//cch8KZiZ.s:4401   .text.rgblight_mode_eeprom_helper:000000000000007e .LFE108
/var/folders/xk/fjkh8m297bb3lq7fwx2mh0vh0000gq/T//cch8KZiZ.s:18014  .debug_loc:000000000000228c .LLST153
/var/folders/xk/fjkh8m297bb3lq7fwx2mh0vh0000gq/T//cch8KZiZ.s:18003  .debug_loc:0000000000002282 .LVUS153
/var/folders/xk/fjkh8m297bb3lq7fwx2mh0vh0000gq/T//cch8KZiZ.s:18054  .debug_loc:00000000000022db .LLST154
/var/folders/xk/fjkh8m297bb3lq7fwx2mh0vh0000gq/T//cch8KZiZ.s:18043  .debug_loc:00000000000022d1 .LVUS154
/var/folders/xk/fjkh8m297bb3lq7fwx2mh0vh0000gq/T//cch8KZiZ.s:4333   .text.rgblight_mode_eeprom_helper:0000000000000036 .LBI84
/var/folders/xk/fjkh8m297bb3lq7fwx2mh0vh0000gq/T//cch8KZiZ.s:18086  .debug_loc:0000000000002322 .LLST155
/var/folders/xk/fjkh8m297bb3lq7fwx2mh0vh0000gq/T//cch8KZiZ.s:18083  .debug_loc:0000000000002320 .LVUS155
/var/folders/xk/fjkh8m297bb3lq7fwx2mh0vh0000gq/T//cch8KZiZ.s:4351   .text.rgblight_mode_eeprom_helper:000000000000004a .LVL275
/var/folders/xk/fjkh8m297bb3lq7fwx2mh0vh0000gq/T//cch8KZiZ.s:4327   .text.rgblight_mode_eeprom_helper:0000000000000036 .LVL274
/var/folders/xk/fjkh8m297bb3lq7fwx2mh0vh0000gq/T//cch8KZiZ.s:4360   .text.rgblight_mode_eeprom_helper:0000000000000052 .LVL276
/var/folders/xk/fjkh8m297bb3lq7fwx2mh0vh0000gq/T//cch8KZiZ.s:4371   .text.rgblight_mode_eeprom_helper:0000000000000068 .LVL277
/var/folders/xk/fjkh8m297bb3lq7fwx2mh0vh0000gq/T//cch8KZiZ.s:4393   .text.rgblight_mode_eeprom_helper:000000000000007a .LVL280
/var/folders/xk/fjkh8m297bb3lq7fwx2mh0vh0000gq/T//cch8KZiZ.s:482    .text.rgblight_get_mode:0000000000000000 .LFB107
/var/folders/xk/fjkh8m297bb3lq7fwx2mh0vh0000gq/T//cch8KZiZ.s:506    .text.rgblight_get_mode:0000000000000010 .LFE107
/var/folders/xk/fjkh8m297bb3lq7fwx2mh0vh0000gq/T//cch8KZiZ.s:4542   .text.rgblight_step_reverse:0000000000000000 .LFB106
/var/folders/xk/fjkh8m297bb3lq7fwx2mh0vh0000gq/T//cch8KZiZ.s:4554   .text.rgblight_step_reverse:0000000000000006 .LFE106
/var/folders/xk/fjkh8m297bb3lq7fwx2mh0vh0000gq/T//cch8KZiZ.s:4552   .text.rgblight_step_reverse:0000000000000006 .LVL297
/var/folders/xk/fjkh8m297bb3lq7fwx2mh0vh0000gq/T//cch8KZiZ.s:4524   .text.rgblight_step_reverse_noeeprom:0000000000000000 .LFB105
/var/folders/xk/fjkh8m297bb3lq7fwx2mh0vh0000gq/T//cch8KZiZ.s:4536   .text.rgblight_step_reverse_noeeprom:0000000000000006 .LFE105
/var/folders/xk/fjkh8m297bb3lq7fwx2mh0vh0000gq/T//cch8KZiZ.s:4534   .text.rgblight_step_reverse_noeeprom:0000000000000006 .LVL296
/var/folders/xk/fjkh8m297bb3lq7fwx2mh0vh0000gq/T//cch8KZiZ.s:4485   .text.rgblight_step_reverse_helper:0000000000000000 .LFB104
/var/folders/xk/fjkh8m297bb3lq7fwx2mh0vh0000gq/T//cch8KZiZ.s:4518   .text.rgblight_step_reverse_helper:0000000000000014 .LFE104
/var/folders/xk/fjkh8m297bb3lq7fwx2mh0vh0000gq/T//cch8KZiZ.s:18110  .debug_loc:0000000000002348 .LLST158
/var/folders/xk/fjkh8m297bb3lq7fwx2mh0vh0000gq/T//cch8KZiZ.s:18103  .debug_loc:0000000000002342 .LVUS158
/var/folders/xk/fjkh8m297bb3lq7fwx2mh0vh0000gq/T//cch8KZiZ.s:18133  .debug_loc:0000000000002378 .LLST159
/var/folders/xk/fjkh8m297bb3lq7fwx2mh0vh0000gq/T//cch8KZiZ.s:18128  .debug_loc:0000000000002374 .LVUS159
/var/folders/xk/fjkh8m297bb3lq7fwx2mh0vh0000gq/T//cch8KZiZ.s:4515   .text.rgblight_step_reverse_helper:0000000000000014 .LVL295
/var/folders/xk/fjkh8m297bb3lq7fwx2mh0vh0000gq/T//cch8KZiZ.s:4466   .text.rgblight_step:0000000000000000 .LFB103
/var/folders/xk/fjkh8m297bb3lq7fwx2mh0vh0000gq/T//cch8KZiZ.s:4478   .text.rgblight_step:0000000000000006 .LFE103
/var/folders/xk/fjkh8m297bb3lq7fwx2mh0vh0000gq/T//cch8KZiZ.s:4476   .text.rgblight_step:0000000000000006 .LVL289
/var/folders/xk/fjkh8m297bb3lq7fwx2mh0vh0000gq/T//cch8KZiZ.s:4448   .text.rgblight_step_noeeprom:0000000000000000 .LFB102
/var/folders/xk/fjkh8m297bb3lq7fwx2mh0vh0000gq/T//cch8KZiZ.s:4460   .text.rgblight_step_noeeprom:0000000000000006 .LFE102
/var/folders/xk/fjkh8m297bb3lq7fwx2mh0vh0000gq/T//cch8KZiZ.s:4458   .text.rgblight_step_noeeprom:0000000000000006 .LVL288
/var/folders/xk/fjkh8m297bb3lq7fwx2mh0vh0000gq/T//cch8KZiZ.s:4408   .text.rgblight_step_helper:0000000000000000 .LFB101
/var/folders/xk/fjkh8m297bb3lq7fwx2mh0vh0000gq/T//cch8KZiZ.s:4442   .text.rgblight_step_helper:0000000000000016 .LFE101
/var/folders/xk/fjkh8m297bb3lq7fwx2mh0vh0000gq/T//cch8KZiZ.s:18152  .debug_loc:000000000000239d .LLST156
/var/folders/xk/fjkh8m297bb3lq7fwx2mh0vh0000gq/T//cch8KZiZ.s:18145  .debug_loc:0000000000002397 .LVUS156
/var/folders/xk/fjkh8m297bb3lq7fwx2mh0vh0000gq/T//cch8KZiZ.s:18175  .debug_loc:00000000000023cd .LLST157
/var/folders/xk/fjkh8m297bb3lq7fwx2mh0vh0000gq/T//cch8KZiZ.s:18170  .debug_loc:00000000000023c9 .LVUS157
/var/folders/xk/fjkh8m297bb3lq7fwx2mh0vh0000gq/T//cch8KZiZ.s:4439   .text.rgblight_step_helper:0000000000000016 .LVL287
/var/folders/xk/fjkh8m297bb3lq7fwx2mh0vh0000gq/T//cch8KZiZ.s:4615   .text.rgblight_decrease:0000000000000000 .LFB100
/var/folders/xk/fjkh8m297bb3lq7fwx2mh0vh0000gq/T//cch8KZiZ.s:4644   .text.rgblight_decrease:0000000000000014 .LFE100
/var/folders/xk/fjkh8m297bb3lq7fwx2mh0vh0000gq/T//cch8KZiZ.s:18194  .debug_loc:00000000000023f2 .LLST162
/var/folders/xk/fjkh8m297bb3lq7fwx2mh0vh0000gq/T//cch8KZiZ.s:18187  .debug_loc:00000000000023ec .LVUS162
/var/folders/xk/fjkh8m297bb3lq7fwx2mh0vh0000gq/T//cch8KZiZ.s:4638   .text.rgblight_decrease:0000000000000010 .LVL305
/var/folders/xk/fjkh8m297bb3lq7fwx2mh0vh0000gq/T//cch8KZiZ.s:4580   .text.rgblight_increase:0000000000000000 .LFB99
/var/folders/xk/fjkh8m297bb3lq7fwx2mh0vh0000gq/T//cch8KZiZ.s:4609   .text.rgblight_increase:0000000000000014 .LFE99
/var/folders/xk/fjkh8m297bb3lq7fwx2mh0vh0000gq/T//cch8KZiZ.s:18218  .debug_loc:0000000000002423 .LLST161
/var/folders/xk/fjkh8m297bb3lq7fwx2mh0vh0000gq/T//cch8KZiZ.s:18211  .debug_loc:000000000000241d .LVUS161
/var/folders/xk/fjkh8m297bb3lq7fwx2mh0vh0000gq/T//cch8KZiZ.s:4603   .text.rgblight_increase:0000000000000010 .LVL302
/var/folders/xk/fjkh8m297bb3lq7fwx2mh0vh0000gq/T//cch8KZiZ.s:4871   .text.rgblight_update_dword:0000000000000000 .LFB98
/var/folders/xk/fjkh8m297bb3lq7fwx2mh0vh0000gq/T//cch8KZiZ.s:4905   .text.rgblight_update_dword:000000000000002e .LFE98
/var/folders/xk/fjkh8m297bb3lq7fwx2mh0vh0000gq/T//cch8KZiZ.s:18244  .debug_loc:0000000000002456 .LLST164
/var/folders/xk/fjkh8m297bb3lq7fwx2mh0vh0000gq/T//cch8KZiZ.s:18235  .debug_loc:000000000000244e .LVUS164
/var/folders/xk/fjkh8m297bb3lq7fwx2mh0vh0000gq/T//cch8KZiZ.s:4896   .text.rgblight_update_dword:0000000000000026 .LVL324
/var/folders/xk/fjkh8m297bb3lq7fwx2mh0vh0000gq/T//cch8KZiZ.s:4900   .text.rgblight_update_dword:000000000000002a .LVL325
/var/folders/xk/fjkh8m297bb3lq7fwx2mh0vh0000gq/T//cch8KZiZ.s:4903   .text.rgblight_update_dword:000000000000002e .LVL326
/var/folders/xk/fjkh8m297bb3lq7fwx2mh0vh0000gq/T//cch8KZiZ.s:459    .text.rgblight_read_dword:0000000000000000 .LFB97
/var/folders/xk/fjkh8m297bb3lq7fwx2mh0vh0000gq/T//cch8KZiZ.s:476    .text.rgblight_read_dword:0000000000000012 .LFE97
/var/folders/xk/fjkh8m297bb3lq7fwx2mh0vh0000gq/T//cch8KZiZ.s:4723   .text.rgblight_init:0000000000000000 .LFB96
/var/folders/xk/fjkh8m297bb3lq7fwx2mh0vh0000gq/T//cch8KZiZ.s:4811   .text.rgblight_init:0000000000000070 .LFE96
/var/folders/xk/fjkh8m297bb3lq7fwx2mh0vh0000gq/T//cch8KZiZ.s:4740   .text.rgblight_init:000000000000000c .LVL311
/var/folders/xk/fjkh8m297bb3lq7fwx2mh0vh0000gq/T//cch8KZiZ.s:4747   .text.rgblight_init:0000000000000014 .LVL312
/var/folders/xk/fjkh8m297bb3lq7fwx2mh0vh0000gq/T//cch8KZiZ.s:4750   .text.rgblight_init:0000000000000018 .LVL313
/var/folders/xk/fjkh8m297bb3lq7fwx2mh0vh0000gq/T//cch8KZiZ.s:4755   .text.rgblight_init:000000000000001c .LVL314
/var/folders/xk/fjkh8m297bb3lq7fwx2mh0vh0000gq/T//cch8KZiZ.s:4773   .text.rgblight_init:000000000000003e .LVL315
/var/folders/xk/fjkh8m297bb3lq7fwx2mh0vh0000gq/T//cch8KZiZ.s:4777   .text.rgblight_init:0000000000000042 .LVL316
/var/folders/xk/fjkh8m297bb3lq7fwx2mh0vh0000gq/T//cch8KZiZ.s:4786   .text.rgblight_init:0000000000000056 .LVL317
/var/folders/xk/fjkh8m297bb3lq7fwx2mh0vh0000gq/T//cch8KZiZ.s:4790   .text.rgblight_init:000000000000005a .LVL318
/var/folders/xk/fjkh8m297bb3lq7fwx2mh0vh0000gq/T//cch8KZiZ.s:4800   .text.rgblight_init:0000000000000068 .LVL319
/var/folders/xk/fjkh8m297bb3lq7fwx2mh0vh0000gq/T//cch8KZiZ.s:435    .text.eeconfig_debug_rgblight:0000000000000000 .LFB95
/var/folders/xk/fjkh8m297bb3lq7fwx2mh0vh0000gq/T//cch8KZiZ.s:453    .text.eeconfig_debug_rgblight:0000000000000002 .LFE95
/var/folders/xk/fjkh8m297bb3lq7fwx2mh0vh0000gq/T//cch8KZiZ.s:384    .text.eeconfig_update_rgblight_default:0000000000000000 .LFB94
/var/folders/xk/fjkh8m297bb3lq7fwx2mh0vh0000gq/T//cch8KZiZ.s:429    .text.eeconfig_update_rgblight_default:0000000000000030 .LFE94
/var/folders/xk/fjkh8m297bb3lq7fwx2mh0vh0000gq/T//cch8KZiZ.s:427    .text.eeconfig_update_rgblight_default:0000000000000030 .LVL22
/var/folders/xk/fjkh8m297bb3lq7fwx2mh0vh0000gq/T//cch8KZiZ.s:363    .text.eeconfig_update_rgblight_current:0000000000000000 .LFB93
/var/folders/xk/fjkh8m297bb3lq7fwx2mh0vh0000gq/T//cch8KZiZ.s:378    .text.eeconfig_update_rgblight_current:0000000000000014 .LFE93
/var/folders/xk/fjkh8m297bb3lq7fwx2mh0vh0000gq/T//cch8KZiZ.s:376    .text.eeconfig_update_rgblight_current:0000000000000014 .LVL21
/var/folders/xk/fjkh8m297bb3lq7fwx2mh0vh0000gq/T//cch8KZiZ.s:313    .text.eeconfig_update_rgblight:0000000000000000 .LFB92
/var/folders/xk/fjkh8m297bb3lq7fwx2mh0vh0000gq/T//cch8KZiZ.s:357    .text.eeconfig_update_rgblight:0000000000000024 .LFE92
/var/folders/xk/fjkh8m297bb3lq7fwx2mh0vh0000gq/T//cch8KZiZ.s:18291  .debug_loc:00000000000024a6 .LLST15
/var/folders/xk/fjkh8m297bb3lq7fwx2mh0vh0000gq/T//cch8KZiZ.s:18329  .debug_loc:00000000000024f3 .LLST16
/var/folders/xk/fjkh8m297bb3lq7fwx2mh0vh0000gq/T//cch8KZiZ.s:18324  .debug_loc:00000000000024ef .LVUS16
/var/folders/xk/fjkh8m297bb3lq7fwx2mh0vh0000gq/T//cch8KZiZ.s:341    .text.eeconfig_update_rgblight:0000000000000010 .LVL19
/var/folders/xk/fjkh8m297bb3lq7fwx2mh0vh0000gq/T//cch8KZiZ.s:355    .text.eeconfig_update_rgblight:0000000000000024 .LVL20
/var/folders/xk/fjkh8m297bb3lq7fwx2mh0vh0000gq/T//cch8KZiZ.s:292    .text.eeconfig_read_rgblight:0000000000000000 .LFB91
/var/folders/xk/fjkh8m297bb3lq7fwx2mh0vh0000gq/T//cch8KZiZ.s:306    .text.eeconfig_read_rgblight:0000000000000008 .LFE91
/var/folders/xk/fjkh8m297bb3lq7fwx2mh0vh0000gq/T//cch8KZiZ.s:304    .text.eeconfig_read_rgblight:0000000000000008 .LVL17
/var/folders/xk/fjkh8m297bb3lq7fwx2mh0vh0000gq/T//cch8KZiZ.s:240    .text.rgblight_check_config:0000000000000000 .LFB90
/var/folders/xk/fjkh8m297bb3lq7fwx2mh0vh0000gq/T//cch8KZiZ.s:286    .text.rgblight_check_config:000000000000002c .LFE90
/var/folders/xk/fjkh8m297bb3lq7fwx2mh0vh0000gq/T//cch8KZiZ.s:187    .text.sethsv:0000000000000000 .LFB88
/var/folders/xk/fjkh8m297bb3lq7fwx2mh0vh0000gq/T//cch8KZiZ.s:205    .text.sethsv:000000000000000a .LFE88
/var/folders/xk/fjkh8m297bb3lq7fwx2mh0vh0000gq/T//cch8KZiZ.s:18359  .debug_loc:0000000000002523 .LLST11
/var/folders/xk/fjkh8m297bb3lq7fwx2mh0vh0000gq/T//cch8KZiZ.s:18354  .debug_loc:000000000000251f .LVUS11
/var/folders/xk/fjkh8m297bb3lq7fwx2mh0vh0000gq/T//cch8KZiZ.s:18378  .debug_loc:0000000000002548 .LLST12
/var/folders/xk/fjkh8m297bb3lq7fwx2mh0vh0000gq/T//cch8KZiZ.s:18373  .debug_loc:0000000000002544 .LVUS12
/var/folders/xk/fjkh8m297bb3lq7fwx2mh0vh0000gq/T//cch8KZiZ.s:18397  .debug_loc:000000000000256d .LLST13
/var/folders/xk/fjkh8m297bb3lq7fwx2mh0vh0000gq/T//cch8KZiZ.s:18392  .debug_loc:0000000000002569 .LVUS13
/var/folders/xk/fjkh8m297bb3lq7fwx2mh0vh0000gq/T//cch8KZiZ.s:18416  .debug_loc:0000000000002592 .LLST14
/var/folders/xk/fjkh8m297bb3lq7fwx2mh0vh0000gq/T//cch8KZiZ.s:18411  .debug_loc:000000000000258e .LVUS14
/var/folders/xk/fjkh8m297bb3lq7fwx2mh0vh0000gq/T//cch8KZiZ.s:202    .text.sethsv:000000000000000a .LVL15
/var/folders/xk/fjkh8m297bb3lq7fwx2mh0vh0000gq/T//cch8KZiZ.s:125    .text.sethsv_raw:0000000000000000 .LFB87
/var/folders/xk/fjkh8m297bb3lq7fwx2mh0vh0000gq/T//cch8KZiZ.s:180    .text.sethsv_raw:000000000000001c .LFE87
/var/folders/xk/fjkh8m297bb3lq7fwx2mh0vh0000gq/T//cch8KZiZ.s:18435  .debug_loc:00000000000025b8 .LLST2
/var/folders/xk/fjkh8m297bb3lq7fwx2mh0vh0000gq/T//cch8KZiZ.s:18463  .debug_loc:00000000000025ed .LLST3
/var/folders/xk/fjkh8m297bb3lq7fwx2mh0vh0000gq/T//cch8KZiZ.s:18456  .debug_loc:00000000000025e7 .LVUS3
/var/folders/xk/fjkh8m297bb3lq7fwx2mh0vh0000gq/T//cch8KZiZ.s:18488  .debug_loc:000000000000261f .LLST4
/var/folders/xk/fjkh8m297bb3lq7fwx2mh0vh0000gq/T//cch8KZiZ.s:18481  .debug_loc:0000000000002619 .LVUS4
/var/folders/xk/fjkh8m297bb3lq7fwx2mh0vh0000gq/T//cch8KZiZ.s:18511  .debug_loc:000000000000264f .LLST5
/var/folders/xk/fjkh8m297bb3lq7fwx2mh0vh0000gq/T//cch8KZiZ.s:18506  .debug_loc:000000000000264b .LVUS5
/var/folders/xk/fjkh8m297bb3lq7fwx2mh0vh0000gq/T//cch8KZiZ.s:18532  .debug_loc:0000000000002676 .LLST6
/var/folders/xk/fjkh8m297bb3lq7fwx2mh0vh0000gq/T//cch8KZiZ.s:18525  .debug_loc:0000000000002670 .LVUS6
/var/folders/xk/fjkh8m297bb3lq7fwx2mh0vh0000gq/T//cch8KZiZ.s:156    .text.sethsv_raw:0000000000000010 .LBI20
/var/folders/xk/fjkh8m297bb3lq7fwx2mh0vh0000gq/T//cch8KZiZ.s:155    .text.sethsv_raw:0000000000000010 .LBB20
/var/folders/xk/fjkh8m297bb3lq7fwx2mh0vh0000gq/T//cch8KZiZ.s:172    .text.sethsv_raw:0000000000000016 .LBE20
/var/folders/xk/fjkh8m297bb3lq7fwx2mh0vh0000gq/T//cch8KZiZ.s:18563  .debug_loc:00000000000026ae .LLST7
/var/folders/xk/fjkh8m297bb3lq7fwx2mh0vh0000gq/T//cch8KZiZ.s:18560  .debug_loc:00000000000026ac .LVUS7
/var/folders/xk/fjkh8m297bb3lq7fwx2mh0vh0000gq/T//cch8KZiZ.s:18578  .debug_loc:00000000000026c8 .LLST8
/var/folders/xk/fjkh8m297bb3lq7fwx2mh0vh0000gq/T//cch8KZiZ.s:18575  .debug_loc:00000000000026c6 .LVUS8
/var/folders/xk/fjkh8m297bb3lq7fwx2mh0vh0000gq/T//cch8KZiZ.s:18588  .debug_loc:00000000000026dd .LLST9
/var/folders/xk/fjkh8m297bb3lq7fwx2mh0vh0000gq/T//cch8KZiZ.s:18585  .debug_loc:00000000000026db .LVUS9
/var/folders/xk/fjkh8m297bb3lq7fwx2mh0vh0000gq/T//cch8KZiZ.s:18598  .debug_loc:00000000000026f2 .LLST10
/var/folders/xk/fjkh8m297bb3lq7fwx2mh0vh0000gq/T//cch8KZiZ.s:18595  .debug_loc:00000000000026f0 .LVUS10
/var/folders/xk/fjkh8m297bb3lq7fwx2mh0vh0000gq/T//cch8KZiZ.s:153    .text.sethsv_raw:0000000000000010 .LVL10
/var/folders/xk/fjkh8m297bb3lq7fwx2mh0vh0000gq/T//cch8KZiZ.s:105    .text.rgblight_hsv_to_rgb:0000000000000000 .LFB86
/var/folders/xk/fjkh8m297bb3lq7fwx2mh0vh0000gq/T//cch8KZiZ.s:118    .text.rgblight_hsv_to_rgb:0000000000000004 .LFE86
/var/folders/xk/fjkh8m297bb3lq7fwx2mh0vh0000gq/T//cch8KZiZ.s:18608  .debug_loc:0000000000002707 .LLST1
/var/folders/xk/fjkh8m297bb3lq7fwx2mh0vh0000gq/T//cch8KZiZ.s:18605  .debug_loc:0000000000002705 .LVUS1
/var/folders/xk/fjkh8m297bb3lq7fwx2mh0vh0000gq/T//cch8KZiZ.s:115    .text.rgblight_hsv_to_rgb:0000000000000004 .LVL6
/var/folders/xk/fjkh8m297bb3lq7fwx2mh0vh0000gq/T//cch8KZiZ.s:59     .text.rgblight_set_effect_range:0000000000000000 .LFB85
/var/folders/xk/fjkh8m297bb3lq7fwx2mh0vh0000gq/T//cch8KZiZ.s:98     .text.rgblight_set_effect_range:0000000000000022 .LFE85
/var/folders/xk/fjkh8m297bb3lq7fwx2mh0vh0000gq/T//cch8KZiZ.s:18630  .debug_loc:0000000000002728 .LLST0
/var/folders/xk/fjkh8m297bb3lq7fwx2mh0vh0000gq/T//cch8KZiZ.s:18623  .debug_loc:0000000000002722 .LVUS0
/var/folders/xk/fjkh8m297bb3lq7fwx2mh0vh0000gq/T//cch8KZiZ.s:33     .text.rgblight_set_clipping_range:0000000000000000 .LFB84
/var/folders/xk/fjkh8m297bb3lq7fwx2mh0vh0000gq/T//cch8KZiZ.s:52     .text.rgblight_set_clipping_range:000000000000000a .LFE84
/var/folders/xk/fjkh8m297bb3lq7fwx2mh0vh0000gq/T//cch8KZiZ.s:212    .text.setrgb:0000000000000000 .LFB89
/var/folders/xk/fjkh8m297bb3lq7fwx2mh0vh0000gq/T//cch8KZiZ.s:234    .text.setrgb:000000000000000a .LFE89
/var/folders/xk/fjkh8m297bb3lq7fwx2mh0vh0000gq/T//cch8KZiZ.s:3638   .text.rgblight_effect_twinkle:0000000000000002 .LCFI83
/var/folders/xk/fjkh8m297bb3lq7fwx2mh0vh0000gq/T//cch8KZiZ.s:3642   .text.rgblight_effect_twinkle:0000000000000004 .LCFI84
/var/folders/xk/fjkh8m297bb3lq7fwx2mh0vh0000gq/T//cch8KZiZ.s:3646   .text.rgblight_effect_twinkle:0000000000000006 .LCFI85
/var/folders/xk/fjkh8m297bb3lq7fwx2mh0vh0000gq/T//cch8KZiZ.s:3650   .text.rgblight_effect_twinkle:0000000000000008 .LCFI86
/var/folders/xk/fjkh8m297bb3lq7fwx2mh0vh0000gq/T//cch8KZiZ.s:3654   .text.rgblight_effect_twinkle:000000000000000a .LCFI87
/var/folders/xk/fjkh8m297bb3lq7fwx2mh0vh0000gq/T//cch8KZiZ.s:3658   .text.rgblight_effect_twinkle:000000000000000c .LCFI88
/var/folders/xk/fjkh8m297bb3lq7fwx2mh0vh0000gq/T//cch8KZiZ.s:3662   .text.rgblight_effect_twinkle:000000000000000e .LCFI89
/var/folders/xk/fjkh8m297bb3lq7fwx2mh0vh0000gq/T//cch8KZiZ.s:3666   .text.rgblight_effect_twinkle:0000000000000010 .LCFI90
/var/folders/xk/fjkh8m297bb3lq7fwx2mh0vh0000gq/T//cch8KZiZ.s:3670   .text.rgblight_effect_twinkle:0000000000000012 .LCFI91
/var/folders/xk/fjkh8m297bb3lq7fwx2mh0vh0000gq/T//cch8KZiZ.s:3674   .text.rgblight_effect_twinkle:0000000000000014 .LCFI92
/var/folders/xk/fjkh8m297bb3lq7fwx2mh0vh0000gq/T//cch8KZiZ.s:3678   .text.rgblight_effect_twinkle:0000000000000016 .LCFI93
/var/folders/xk/fjkh8m297bb3lq7fwx2mh0vh0000gq/T//cch8KZiZ.s:3682   .text.rgblight_effect_twinkle:0000000000000018 .LCFI94
/var/folders/xk/fjkh8m297bb3lq7fwx2mh0vh0000gq/T//cch8KZiZ.s:3632   .text.rgblight_effect_twinkle:0000000000000000 .LVL239
/var/folders/xk/fjkh8m297bb3lq7fwx2mh0vh0000gq/T//cch8KZiZ.s:3701   .text.rgblight_effect_twinkle:0000000000000020 .LVL242
/var/folders/xk/fjkh8m297bb3lq7fwx2mh0vh0000gq/T//cch8KZiZ.s:3728   .text.rgblight_effect_twinkle:000000000000003a .LVL244
/var/folders/xk/fjkh8m297bb3lq7fwx2mh0vh0000gq/T//cch8KZiZ.s:3693   .text.rgblight_effect_twinkle:000000000000001c .LVL240
/var/folders/xk/fjkh8m297bb3lq7fwx2mh0vh0000gq/T//cch8KZiZ.s:3753   .text.rgblight_effect_twinkle:0000000000000054 .LVL246
/var/folders/xk/fjkh8m297bb3lq7fwx2mh0vh0000gq/T//cch8KZiZ.s:3697   .text.rgblight_effect_twinkle:000000000000001e .LVL241
/var/folders/xk/fjkh8m297bb3lq7fwx2mh0vh0000gq/T//cch8KZiZ.s:3757   .text.rgblight_effect_twinkle:0000000000000058 .LVL247
/var/folders/xk/fjkh8m297bb3lq7fwx2mh0vh0000gq/T//cch8KZiZ.s:3707   .text.rgblight_effect_twinkle:0000000000000022 .LVL243
/var/folders/xk/fjkh8m297bb3lq7fwx2mh0vh0000gq/T//cch8KZiZ.s:3746   .text.rgblight_effect_twinkle:000000000000004a .LVL245
/var/folders/xk/fjkh8m297bb3lq7fwx2mh0vh0000gq/T//cch8KZiZ.s:3770   .text.rgblight_effect_twinkle:0000000000000062 .LVL249
/var/folders/xk/fjkh8m297bb3lq7fwx2mh0vh0000gq/T//cch8KZiZ.s:3793   .text.rgblight_effect_twinkle:0000000000000078 .LVL250
/var/folders/xk/fjkh8m297bb3lq7fwx2mh0vh0000gq/T//cch8KZiZ.s:3852   .text.rgblight_effect_twinkle:00000000000000c2 .LVL253
/var/folders/xk/fjkh8m297bb3lq7fwx2mh0vh0000gq/T//cch8KZiZ.s:3867   .text.rgblight_effect_twinkle:00000000000000da .LVL254
/var/folders/xk/fjkh8m297bb3lq7fwx2mh0vh0000gq/T//cch8KZiZ.s:3500   .text.rgblight_effect_alternating:0000000000000002 .LCFI79
/var/folders/xk/fjkh8m297bb3lq7fwx2mh0vh0000gq/T//cch8KZiZ.s:3504   .text.rgblight_effect_alternating:0000000000000004 .LCFI80
/var/folders/xk/fjkh8m297bb3lq7fwx2mh0vh0000gq/T//cch8KZiZ.s:3508   .text.rgblight_effect_alternating:0000000000000006 .LCFI81
/var/folders/xk/fjkh8m297bb3lq7fwx2mh0vh0000gq/T//cch8KZiZ.s:3512   .text.rgblight_effect_alternating:0000000000000008 .LCFI82
/var/folders/xk/fjkh8m297bb3lq7fwx2mh0vh0000gq/T//cch8KZiZ.s:3494   .text.rgblight_effect_alternating:0000000000000000 .LVL228
/var/folders/xk/fjkh8m297bb3lq7fwx2mh0vh0000gq/T//cch8KZiZ.s:3527   .text.rgblight_effect_alternating:000000000000000e .LVL230
/var/folders/xk/fjkh8m297bb3lq7fwx2mh0vh0000gq/T//cch8KZiZ.s:3556   .text.rgblight_effect_alternating:000000000000002e .LVL232
/var/folders/xk/fjkh8m297bb3lq7fwx2mh0vh0000gq/T//cch8KZiZ.s:3563   .text.rgblight_effect_alternating:0000000000000034 .LVL234
/var/folders/xk/fjkh8m297bb3lq7fwx2mh0vh0000gq/T//cch8KZiZ.s:3523   .text.rgblight_effect_alternating:000000000000000a .LVL229
/var/folders/xk/fjkh8m297bb3lq7fwx2mh0vh0000gq/T//cch8KZiZ.s:3560   .text.rgblight_effect_alternating:0000000000000032 .LVL233
/var/folders/xk/fjkh8m297bb3lq7fwx2mh0vh0000gq/T//cch8KZiZ.s:3581   .text.rgblight_effect_alternating:000000000000004c .LVL235
/var/folders/xk/fjkh8m297bb3lq7fwx2mh0vh0000gq/T//cch8KZiZ.s:3612   .text.rgblight_effect_alternating:0000000000000072 .LVL238
/var/folders/xk/fjkh8m297bb3lq7fwx2mh0vh0000gq/T//cch8KZiZ.s:1213   .text.rgblight_effect_rgbtest:0000000000000002 .LCFI14
/var/folders/xk/fjkh8m297bb3lq7fwx2mh0vh0000gq/T//cch8KZiZ.s:1217   .text.rgblight_effect_rgbtest:0000000000000004 .LCFI15
/var/folders/xk/fjkh8m297bb3lq7fwx2mh0vh0000gq/T//cch8KZiZ.s:1221   .text.rgblight_effect_rgbtest:0000000000000006 .LCFI16
/var/folders/xk/fjkh8m297bb3lq7fwx2mh0vh0000gq/T//cch8KZiZ.s:1225   .text.rgblight_effect_rgbtest:0000000000000008 .LCFI17
/var/folders/xk/fjkh8m297bb3lq7fwx2mh0vh0000gq/T//cch8KZiZ.s:1230   .text.rgblight_effect_rgbtest:000000000000000c .LCFI18
/var/folders/xk/fjkh8m297bb3lq7fwx2mh0vh0000gq/T//cch8KZiZ.s:1234   .text.rgblight_effect_rgbtest:0000000000000010 .LCFI19
/var/folders/xk/fjkh8m297bb3lq7fwx2mh0vh0000gq/T//cch8KZiZ.s:1207   .text.rgblight_effect_rgbtest:0000000000000000 .LVL63
/var/folders/xk/fjkh8m297bb3lq7fwx2mh0vh0000gq/T//cch8KZiZ.s:1248   .text.rgblight_effect_rgbtest:0000000000000016 .LVL64
/var/folders/xk/fjkh8m297bb3lq7fwx2mh0vh0000gq/T//cch8KZiZ.s:1342   .text.rgblight_effect_rgbtest:000000000000007c .LVL74
/var/folders/xk/fjkh8m297bb3lq7fwx2mh0vh0000gq/T//cch8KZiZ.s:1269   .text.rgblight_effect_rgbtest:000000000000002e .LVL66
/var/folders/xk/fjkh8m297bb3lq7fwx2mh0vh0000gq/T//cch8KZiZ.s:1309   .text.rgblight_effect_rgbtest:0000000000000054 .LVL71
/var/folders/xk/fjkh8m297bb3lq7fwx2mh0vh0000gq/T//cch8KZiZ.s:1279   .text.rgblight_effect_rgbtest:000000000000003a .LVL67
/var/folders/xk/fjkh8m297bb3lq7fwx2mh0vh0000gq/T//cch8KZiZ.s:1299   .text.rgblight_effect_rgbtest:000000000000004c .LVL69
/var/folders/xk/fjkh8m297bb3lq7fwx2mh0vh0000gq/T//cch8KZiZ.s:1304   .text.rgblight_effect_rgbtest:0000000000000050 .LVL70
/var/folders/xk/fjkh8m297bb3lq7fwx2mh0vh0000gq/T//cch8KZiZ.s:1315   .text.rgblight_effect_rgbtest:0000000000000058 .LVL72
/var/folders/xk/fjkh8m297bb3lq7fwx2mh0vh0000gq/T//cch8KZiZ.s:1295   .text.rgblight_effect_rgbtest:000000000000004a .LVL68
/var/folders/xk/fjkh8m297bb3lq7fwx2mh0vh0000gq/T//cch8KZiZ.s:3226   .text.rgblight_effect_christmas:0000000000000002 .LCFI67
/var/folders/xk/fjkh8m297bb3lq7fwx2mh0vh0000gq/T//cch8KZiZ.s:3230   .text.rgblight_effect_christmas:0000000000000004 .LCFI68
/var/folders/xk/fjkh8m297bb3lq7fwx2mh0vh0000gq/T//cch8KZiZ.s:3234   .text.rgblight_effect_christmas:0000000000000006 .LCFI69
/var/folders/xk/fjkh8m297bb3lq7fwx2mh0vh0000gq/T//cch8KZiZ.s:3238   .text.rgblight_effect_christmas:0000000000000008 .LCFI70
/var/folders/xk/fjkh8m297bb3lq7fwx2mh0vh0000gq/T//cch8KZiZ.s:3242   .text.rgblight_effect_christmas:000000000000000a .LCFI71
/var/folders/xk/fjkh8m297bb3lq7fwx2mh0vh0000gq/T//cch8KZiZ.s:3246   .text.rgblight_effect_christmas:000000000000000c .LCFI72
/var/folders/xk/fjkh8m297bb3lq7fwx2mh0vh0000gq/T//cch8KZiZ.s:3250   .text.rgblight_effect_christmas:000000000000000e .LCFI73
/var/folders/xk/fjkh8m297bb3lq7fwx2mh0vh0000gq/T//cch8KZiZ.s:3254   .text.rgblight_effect_christmas:0000000000000010 .LCFI74
/var/folders/xk/fjkh8m297bb3lq7fwx2mh0vh0000gq/T//cch8KZiZ.s:3258   .text.rgblight_effect_christmas:0000000000000012 .LCFI75
/var/folders/xk/fjkh8m297bb3lq7fwx2mh0vh0000gq/T//cch8KZiZ.s:3262   .text.rgblight_effect_christmas:0000000000000014 .LCFI76
/var/folders/xk/fjkh8m297bb3lq7fwx2mh0vh0000gq/T//cch8KZiZ.s:3266   .text.rgblight_effect_christmas:0000000000000016 .LCFI77
/var/folders/xk/fjkh8m297bb3lq7fwx2mh0vh0000gq/T//cch8KZiZ.s:3270   .text.rgblight_effect_christmas:0000000000000018 .LCFI78
/var/folders/xk/fjkh8m297bb3lq7fwx2mh0vh0000gq/T//cch8KZiZ.s:3220   .text.rgblight_effect_christmas:0000000000000000 .LVL209
/var/folders/xk/fjkh8m297bb3lq7fwx2mh0vh0000gq/T//cch8KZiZ.s:3330   .text.rgblight_effect_christmas:000000000000006a .LVL212
/var/folders/xk/fjkh8m297bb3lq7fwx2mh0vh0000gq/T//cch8KZiZ.s:3344   .text.rgblight_effect_christmas:000000000000007c .LVL214
/var/folders/xk/fjkh8m297bb3lq7fwx2mh0vh0000gq/T//cch8KZiZ.s:3419   .text.rgblight_effect_christmas:00000000000000ce .LVL221
/var/folders/xk/fjkh8m297bb3lq7fwx2mh0vh0000gq/T//cch8KZiZ.s:3426   .text.rgblight_effect_christmas:00000000000000d4 .LVL223
/var/folders/xk/fjkh8m297bb3lq7fwx2mh0vh0000gq/T//cch8KZiZ.s:3299   .text.rgblight_effect_christmas:0000000000000034 .LVL211
/var/folders/xk/fjkh8m297bb3lq7fwx2mh0vh0000gq/T//cch8KZiZ.s:3423   .text.rgblight_effect_christmas:00000000000000d2 .LVL222
/var/folders/xk/fjkh8m297bb3lq7fwx2mh0vh0000gq/T//cch8KZiZ.s:3336   .text.rgblight_effect_christmas:0000000000000072 .LVL213
/var/folders/xk/fjkh8m297bb3lq7fwx2mh0vh0000gq/T//cch8KZiZ.s:3412   .text.rgblight_effect_christmas:00000000000000c4 .LVL220
/var/folders/xk/fjkh8m297bb3lq7fwx2mh0vh0000gq/T//cch8KZiZ.s:3357   .text.rgblight_effect_christmas:000000000000008c .LVL215
/var/folders/xk/fjkh8m297bb3lq7fwx2mh0vh0000gq/T//cch8KZiZ.s:3406   .text.rgblight_effect_christmas:00000000000000c0 .LVL218
/var/folders/xk/fjkh8m297bb3lq7fwx2mh0vh0000gq/T//cch8KZiZ.s:3446   .text.rgblight_effect_christmas:00000000000000f2 .LVL224
/var/folders/xk/fjkh8m297bb3lq7fwx2mh0vh0000gq/T//cch8KZiZ.s:3366   .text.rgblight_effect_christmas:0000000000000094 .LVL216
/var/folders/xk/fjkh8m297bb3lq7fwx2mh0vh0000gq/T//cch8KZiZ.s:3409   .text.rgblight_effect_christmas:00000000000000c2 .LVL219
/var/folders/xk/fjkh8m297bb3lq7fwx2mh0vh0000gq/T//cch8KZiZ.s:3457   .text.rgblight_effect_christmas:00000000000000f8 .LVL225
/var/folders/xk/fjkh8m297bb3lq7fwx2mh0vh0000gq/T//cch8KZiZ.s:2979   .text.rgblight_effect_knight:0000000000000002 .LCFI61
/var/folders/xk/fjkh8m297bb3lq7fwx2mh0vh0000gq/T//cch8KZiZ.s:2983   .text.rgblight_effect_knight:0000000000000004 .LCFI62
/var/folders/xk/fjkh8m297bb3lq7fwx2mh0vh0000gq/T//cch8KZiZ.s:2987   .text.rgblight_effect_knight:0000000000000006 .LCFI63
/var/folders/xk/fjkh8m297bb3lq7fwx2mh0vh0000gq/T//cch8KZiZ.s:2991   .text.rgblight_effect_knight:0000000000000008 .LCFI64
/var/folders/xk/fjkh8m297bb3lq7fwx2mh0vh0000gq/T//cch8KZiZ.s:2995   .text.rgblight_effect_knight:000000000000000a .LCFI65
/var/folders/xk/fjkh8m297bb3lq7fwx2mh0vh0000gq/T//cch8KZiZ.s:2999   .text.rgblight_effect_knight:000000000000000c .LCFI66
/var/folders/xk/fjkh8m297bb3lq7fwx2mh0vh0000gq/T//cch8KZiZ.s:2973   .text.rgblight_effect_knight:0000000000000000 .LVL193
/var/folders/xk/fjkh8m297bb3lq7fwx2mh0vh0000gq/T//cch8KZiZ.s:3014   .text.rgblight_effect_knight:0000000000000010 .LVL194
/var/folders/xk/fjkh8m297bb3lq7fwx2mh0vh0000gq/T//cch8KZiZ.s:3110   .text.rgblight_effect_knight:000000000000008e .LVL198
/var/folders/xk/fjkh8m297bb3lq7fwx2mh0vh0000gq/T//cch8KZiZ.s:3119   .text.rgblight_effect_knight:0000000000000098 .LVL200
/var/folders/xk/fjkh8m297bb3lq7fwx2mh0vh0000gq/T//cch8KZiZ.s:3036   .text.rgblight_effect_knight:000000000000002a .LVL195
/var/folders/xk/fjkh8m297bb3lq7fwx2mh0vh0000gq/T//cch8KZiZ.s:3054   .text.rgblight_effect_knight:0000000000000042 .LVL196
/var/folders/xk/fjkh8m297bb3lq7fwx2mh0vh0000gq/T//cch8KZiZ.s:3113   .text.rgblight_effect_knight:0000000000000090 .LVL199
/var/folders/xk/fjkh8m297bb3lq7fwx2mh0vh0000gq/T//cch8KZiZ.s:3137   .text.rgblight_effect_knight:00000000000000a4 .LVL202
/var/folders/xk/fjkh8m297bb3lq7fwx2mh0vh0000gq/T//cch8KZiZ.s:3164   .text.rgblight_effect_knight:00000000000000ca .LVL204
/var/folders/xk/fjkh8m297bb3lq7fwx2mh0vh0000gq/T//cch8KZiZ.s:3191   .text.rgblight_effect_knight:00000000000000f6 .LVL207
/var/folders/xk/fjkh8m297bb3lq7fwx2mh0vh0000gq/T//cch8KZiZ.s:3194   .text.rgblight_effect_knight:00000000000000f8 .LVL208
/var/folders/xk/fjkh8m297bb3lq7fwx2mh0vh0000gq/T//cch8KZiZ.s:3151   .text.rgblight_effect_knight:00000000000000b6 .LVL203
/var/folders/xk/fjkh8m297bb3lq7fwx2mh0vh0000gq/T//cch8KZiZ.s:3183   .text.rgblight_effect_knight:00000000000000f0 .LVL205
/var/folders/xk/fjkh8m297bb3lq7fwx2mh0vh0000gq/T//cch8KZiZ.s:2659   .text.rgblight_effect_snake:0000000000000002 .LCFI49
/var/folders/xk/fjkh8m297bb3lq7fwx2mh0vh0000gq/T//cch8KZiZ.s:2663   .text.rgblight_effect_snake:0000000000000004 .LCFI50
/var/folders/xk/fjkh8m297bb3lq7fwx2mh0vh0000gq/T//cch8KZiZ.s:2667   .text.rgblight_effect_snake:0000000000000006 .LCFI51
/var/folders/xk/fjkh8m297bb3lq7fwx2mh0vh0000gq/T//cch8KZiZ.s:2671   .text.rgblight_effect_snake:0000000000000008 .LCFI52
/var/folders/xk/fjkh8m297bb3lq7fwx2mh0vh0000gq/T//cch8KZiZ.s:2675   .text.rgblight_effect_snake:000000000000000a .LCFI53
/var/folders/xk/fjkh8m297bb3lq7fwx2mh0vh0000gq/T//cch8KZiZ.s:2679   .text.rgblight_effect_snake:000000000000000c .LCFI54
/var/folders/xk/fjkh8m297bb3lq7fwx2mh0vh0000gq/T//cch8KZiZ.s:2683   .text.rgblight_effect_snake:000000000000000e .LCFI55
/var/folders/xk/fjkh8m297bb3lq7fwx2mh0vh0000gq/T//cch8KZiZ.s:2687   .text.rgblight_effect_snake:0000000000000010 .LCFI56
/var/folders/xk/fjkh8m297bb3lq7fwx2mh0vh0000gq/T//cch8KZiZ.s:2691   .text.rgblight_effect_snake:0000000000000012 .LCFI57
/var/folders/xk/fjkh8m297bb3lq7fwx2mh0vh0000gq/T//cch8KZiZ.s:2695   .text.rgblight_effect_snake:0000000000000014 .LCFI58
/var/folders/xk/fjkh8m297bb3lq7fwx2mh0vh0000gq/T//cch8KZiZ.s:2699   .text.rgblight_effect_snake:0000000000000016 .LCFI59
/var/folders/xk/fjkh8m297bb3lq7fwx2mh0vh0000gq/T//cch8KZiZ.s:2703   .text.rgblight_effect_snake:0000000000000018 .LCFI60
/var/folders/xk/fjkh8m297bb3lq7fwx2mh0vh0000gq/T//cch8KZiZ.s:2653   .text.rgblight_effect_snake:0000000000000000 .LVL170
/var/folders/xk/fjkh8m297bb3lq7fwx2mh0vh0000gq/T//cch8KZiZ.s:2719   .text.rgblight_effect_snake:000000000000001c .LVL172
/var/folders/xk/fjkh8m297bb3lq7fwx2mh0vh0000gq/T//cch8KZiZ.s:2795   .text.rgblight_effect_snake:0000000000000072 .LVL176
/var/folders/xk/fjkh8m297bb3lq7fwx2mh0vh0000gq/T//cch8KZiZ.s:2812   .text.rgblight_effect_snake:0000000000000088 .LVL179
/var/folders/xk/fjkh8m297bb3lq7fwx2mh0vh0000gq/T//cch8KZiZ.s:2760   .text.rgblight_effect_snake:0000000000000048 .LVL174
/var/folders/xk/fjkh8m297bb3lq7fwx2mh0vh0000gq/T//cch8KZiZ.s:2807   .text.rgblight_effect_snake:0000000000000082 .LVL178
/var/folders/xk/fjkh8m297bb3lq7fwx2mh0vh0000gq/T//cch8KZiZ.s:2818   .text.rgblight_effect_snake:000000000000008e .LVL180
/var/folders/xk/fjkh8m297bb3lq7fwx2mh0vh0000gq/T//cch8KZiZ.s:2849   .text.rgblight_effect_snake:00000000000000b2 .LVL182
/var/folders/xk/fjkh8m297bb3lq7fwx2mh0vh0000gq/T//cch8KZiZ.s:2856   .text.rgblight_effect_snake:00000000000000ba .LVL183
/var/folders/xk/fjkh8m297bb3lq7fwx2mh0vh0000gq/T//cch8KZiZ.s:2862   .text.rgblight_effect_snake:00000000000000c0 .LVL184
/var/folders/xk/fjkh8m297bb3lq7fwx2mh0vh0000gq/T//cch8KZiZ.s:2871   .text.rgblight_effect_snake:00000000000000ca .LVL185
/var/folders/xk/fjkh8m297bb3lq7fwx2mh0vh0000gq/T//cch8KZiZ.s:2874   .text.rgblight_effect_snake:00000000000000cc .LVL186
/var/folders/xk/fjkh8m297bb3lq7fwx2mh0vh0000gq/T//cch8KZiZ.s:2889   .text.rgblight_effect_snake:00000000000000dc .LVL187
/var/folders/xk/fjkh8m297bb3lq7fwx2mh0vh0000gq/T//cch8KZiZ.s:2923   .text.rgblight_effect_snake:000000000000010a .LVL190
/var/folders/xk/fjkh8m297bb3lq7fwx2mh0vh0000gq/T//cch8KZiZ.s:2937   .text.rgblight_effect_snake:0000000000000116 .LVL192
/var/folders/xk/fjkh8m297bb3lq7fwx2mh0vh0000gq/T//cch8KZiZ.s:2715   .text.rgblight_effect_snake:000000000000001a .LVL171
/var/folders/xk/fjkh8m297bb3lq7fwx2mh0vh0000gq/T//cch8KZiZ.s:2730   .text.rgblight_effect_snake:0000000000000028 .LVL173
/var/folders/xk/fjkh8m297bb3lq7fwx2mh0vh0000gq/T//cch8KZiZ.s:2804   .text.rgblight_effect_snake:0000000000000080 .LVL177
/var/folders/xk/fjkh8m297bb3lq7fwx2mh0vh0000gq/T//cch8KZiZ.s:2837   .text.rgblight_effect_snake:00000000000000aa .LVL181
/var/folders/xk/fjkh8m297bb3lq7fwx2mh0vh0000gq/T//cch8KZiZ.s:2527   .text.rgblight_effect_rainbow_swirl:0000000000000002 .LCFI44
/var/folders/xk/fjkh8m297bb3lq7fwx2mh0vh0000gq/T//cch8KZiZ.s:2531   .text.rgblight_effect_rainbow_swirl:0000000000000004 .LCFI45
/var/folders/xk/fjkh8m297bb3lq7fwx2mh0vh0000gq/T//cch8KZiZ.s:2535   .text.rgblight_effect_rainbow_swirl:0000000000000006 .LCFI46
/var/folders/xk/fjkh8m297bb3lq7fwx2mh0vh0000gq/T//cch8KZiZ.s:2539   .text.rgblight_effect_rainbow_swirl:0000000000000008 .LCFI47
/var/folders/xk/fjkh8m297bb3lq7fwx2mh0vh0000gq/T//cch8KZiZ.s:2543   .text.rgblight_effect_rainbow_swirl:000000000000000a .LCFI48
/var/folders/xk/fjkh8m297bb3lq7fwx2mh0vh0000gq/T//cch8KZiZ.s:2521   .text.rgblight_effect_rainbow_swirl:0000000000000000 .LVL160
/var/folders/xk/fjkh8m297bb3lq7fwx2mh0vh0000gq/T//cch8KZiZ.s:2561   .text.rgblight_effect_rainbow_swirl:0000000000000014 .LVL162
/var/folders/xk/fjkh8m297bb3lq7fwx2mh0vh0000gq/T//cch8KZiZ.s:2589   .text.rgblight_effect_rainbow_swirl:0000000000000030 .LVL164
/var/folders/xk/fjkh8m297bb3lq7fwx2mh0vh0000gq/T//cch8KZiZ.s:2597   .text.rgblight_effect_rainbow_swirl:0000000000000038 .LVL166
/var/folders/xk/fjkh8m297bb3lq7fwx2mh0vh0000gq/T//cch8KZiZ.s:2622   .text.rgblight_effect_rainbow_swirl:000000000000005c .LVL167
/var/folders/xk/fjkh8m297bb3lq7fwx2mh0vh0000gq/T//cch8KZiZ.s:2554   .text.rgblight_effect_rainbow_swirl:000000000000000c .LVL161
/var/folders/xk/fjkh8m297bb3lq7fwx2mh0vh0000gq/T//cch8KZiZ.s:2592   .text.rgblight_effect_rainbow_swirl:0000000000000032 .LVL165
/var/folders/xk/fjkh8m297bb3lq7fwx2mh0vh0000gq/T//cch8KZiZ.s:1166   .text.rgblight_effect_rainbow_mood:0000000000000002 .LCFI12
/var/folders/xk/fjkh8m297bb3lq7fwx2mh0vh0000gq/T//cch8KZiZ.s:1170   .text.rgblight_effect_rainbow_mood:0000000000000004 .LCFI13
/var/folders/xk/fjkh8m297bb3lq7fwx2mh0vh0000gq/T//cch8KZiZ.s:1160   .text.rgblight_effect_rainbow_mood:0000000000000000 .LVL59
/var/folders/xk/fjkh8m297bb3lq7fwx2mh0vh0000gq/T//cch8KZiZ.s:1184   .text.rgblight_effect_rainbow_mood:0000000000000010 .LVL60
/var/folders/xk/fjkh8m297bb3lq7fwx2mh0vh0000gq/T//cch8KZiZ.s:1197   .text.rgblight_effect_rainbow_mood:000000000000001e .LVL62
/var/folders/xk/fjkh8m297bb3lq7fwx2mh0vh0000gq/T//cch8KZiZ.s:1098   .text.rgblight_effect_breathing:0000000000000002 .LCFI10
/var/folders/xk/fjkh8m297bb3lq7fwx2mh0vh0000gq/T//cch8KZiZ.s:1102   .text.rgblight_effect_breathing:0000000000000004 .LCFI11
/var/folders/xk/fjkh8m297bb3lq7fwx2mh0vh0000gq/T//cch8KZiZ.s:1092   .text.rgblight_effect_breathing:0000000000000000 .LVL53
/var/folders/xk/fjkh8m297bb3lq7fwx2mh0vh0000gq/T//cch8KZiZ.s:1136   .text.rgblight_effect_breathing:0000000000000018 .LVL56
/var/folders/xk/fjkh8m297bb3lq7fwx2mh0vh0000gq/T//cch8KZiZ.s:1150   .text.rgblight_effect_breathing:0000000000000026 .LVL58
/var/folders/xk/fjkh8m297bb3lq7fwx2mh0vh0000gq/T//cch8KZiZ.s:1126   .text.rgblight_effect_breathing:0000000000000010 .LVL55
/var/folders/xk/fjkh8m297bb3lq7fwx2mh0vh0000gq/T//cch8KZiZ.s:1114   .text.rgblight_effect_breathing:0000000000000006 .LVL54
/var/folders/xk/fjkh8m297bb3lq7fwx2mh0vh0000gq/T//cch8KZiZ.s:5125   .text.rgblight_task:0000000000000002 .LCFI101
/var/folders/xk/fjkh8m297bb3lq7fwx2mh0vh0000gq/T//cch8KZiZ.s:5129   .text.rgblight_task:0000000000000004 .LCFI102
/var/folders/xk/fjkh8m297bb3lq7fwx2mh0vh0000gq/T//cch8KZiZ.s:5133   .text.rgblight_task:0000000000000006 .LCFI103
/var/folders/xk/fjkh8m297bb3lq7fwx2mh0vh0000gq/T//cch8KZiZ.s:5137   .text.rgblight_task:0000000000000008 .LCFI104
/var/folders/xk/fjkh8m297bb3lq7fwx2mh0vh0000gq/T//cch8KZiZ.s:5141   .text.rgblight_task:000000000000000a .LCFI105
/var/folders/xk/fjkh8m297bb3lq7fwx2mh0vh0000gq/T//cch8KZiZ.s:5145   .text.rgblight_task:000000000000000c .LCFI106
/var/folders/xk/fjkh8m297bb3lq7fwx2mh0vh0000gq/T//cch8KZiZ.s:5224   .text.rgblight_task:000000000000003c .LVL352
/var/folders/xk/fjkh8m297bb3lq7fwx2mh0vh0000gq/T//cch8KZiZ.s:5331   .text.rgblight_task:00000000000000e6 .LVL360
/var/folders/xk/fjkh8m297bb3lq7fwx2mh0vh0000gq/T//cch8KZiZ.s:5160   .text.rgblight_task:0000000000000016 .LVL346
/var/folders/xk/fjkh8m297bb3lq7fwx2mh0vh0000gq/T//cch8KZiZ.s:5219   .text.rgblight_task:0000000000000038 .LVL351
/var/folders/xk/fjkh8m297bb3lq7fwx2mh0vh0000gq/T//cch8KZiZ.s:5308   .text.rgblight_task:00000000000000c0 .LVL358
/var/folders/xk/fjkh8m297bb3lq7fwx2mh0vh0000gq/T//cch8KZiZ.s:5345   .text.rgblight_task:00000000000000f4 .LVL361
/var/folders/xk/fjkh8m297bb3lq7fwx2mh0vh0000gq/T//cch8KZiZ.s:5391   .text.rgblight_task:0000000000000104 .LVL365
/var/folders/xk/fjkh8m297bb3lq7fwx2mh0vh0000gq/T//cch8KZiZ.s:5397   .text.rgblight_task:000000000000010a .LVL366
/var/folders/xk/fjkh8m297bb3lq7fwx2mh0vh0000gq/T//cch8KZiZ.s:5444   .text.rgblight_task:000000000000011c .LVL370
/var/folders/xk/fjkh8m297bb3lq7fwx2mh0vh0000gq/T//cch8KZiZ.s:5450   .text.rgblight_task:0000000000000122 .LVL371
/var/folders/xk/fjkh8m297bb3lq7fwx2mh0vh0000gq/T//cch8KZiZ.s:5497   .text.rgblight_task:0000000000000134 .LVL375
/var/folders/xk/fjkh8m297bb3lq7fwx2mh0vh0000gq/T//cch8KZiZ.s:5503   .text.rgblight_task:000000000000013a .LVL376
/var/folders/xk/fjkh8m297bb3lq7fwx2mh0vh0000gq/T//cch8KZiZ.s:5548   .text.rgblight_task:000000000000014a .LVL380
/var/folders/xk/fjkh8m297bb3lq7fwx2mh0vh0000gq/T//cch8KZiZ.s:5554   .text.rgblight_task:0000000000000150 .LVL381
/var/folders/xk/fjkh8m297bb3lq7fwx2mh0vh0000gq/T//cch8KZiZ.s:5587   .text.rgblight_task:000000000000016a .LVL384
/var/folders/xk/fjkh8m297bb3lq7fwx2mh0vh0000gq/T//cch8KZiZ.s:5597   .text.rgblight_task:0000000000000170 .LVL385
/var/folders/xk/fjkh8m297bb3lq7fwx2mh0vh0000gq/T//cch8KZiZ.s:5666   .text.rgblight_task:00000000000001a2 .LVL389
/var/folders/xk/fjkh8m297bb3lq7fwx2mh0vh0000gq/T//cch8KZiZ.s:5170   .text.rgblight_task:0000000000000022 .LVL347
/var/folders/xk/fjkh8m297bb3lq7fwx2mh0vh0000gq/T//cch8KZiZ.s:5201   .text.rgblight_task:0000000000000032 .LVL349
/var/folders/xk/fjkh8m297bb3lq7fwx2mh0vh0000gq/T//cch8KZiZ.s:5373   .text.rgblight_task:00000000000000fe .LVL363
/var/folders/xk/fjkh8m297bb3lq7fwx2mh0vh0000gq/T//cch8KZiZ.s:5422   .text.rgblight_task:0000000000000110 .LVL368
/var/folders/xk/fjkh8m297bb3lq7fwx2mh0vh0000gq/T//cch8KZiZ.s:5475   .text.rgblight_task:0000000000000128 .LVL373
/var/folders/xk/fjkh8m297bb3lq7fwx2mh0vh0000gq/T//cch8KZiZ.s:5530   .text.rgblight_task:0000000000000144 .LVL378
/var/folders/xk/fjkh8m297bb3lq7fwx2mh0vh0000gq/T//cch8KZiZ.s:5579   .text.rgblight_task:0000000000000166 .LVL383
/var/folders/xk/fjkh8m297bb3lq7fwx2mh0vh0000gq/T//cch8KZiZ.s:5644   .text.rgblight_task:0000000000000196 .LVL387
/var/folders/xk/fjkh8m297bb3lq7fwx2mh0vh0000gq/T//cch8KZiZ.s:5301   .text.rgblight_task:00000000000000b4 .LVL357
/var/folders/xk/fjkh8m297bb3lq7fwx2mh0vh0000gq/T//cch8KZiZ.s:5181   .text.rgblight_task:000000000000002c .LVL348
/var/folders/xk/fjkh8m297bb3lq7fwx2mh0vh0000gq/T//cch8KZiZ.s:5210   .text.rgblight_task:0000000000000034 .LVL350
/var/folders/xk/fjkh8m297bb3lq7fwx2mh0vh0000gq/T//cch8KZiZ.s:5353   .text.rgblight_task:00000000000000f8 .LVL362
/var/folders/xk/fjkh8m297bb3lq7fwx2mh0vh0000gq/T//cch8KZiZ.s:5382   .text.rgblight_task:0000000000000100 .LVL364
/var/folders/xk/fjkh8m297bb3lq7fwx2mh0vh0000gq/T//cch8KZiZ.s:5404   .text.rgblight_task:000000000000010e .LVL367
/var/folders/xk/fjkh8m297bb3lq7fwx2mh0vh0000gq/T//cch8KZiZ.s:5435   .text.rgblight_task:0000000000000118 .LVL369
/var/folders/xk/fjkh8m297bb3lq7fwx2mh0vh0000gq/T//cch8KZiZ.s:5457   .text.rgblight_task:0000000000000126 .LVL372
/var/folders/xk/fjkh8m297bb3lq7fwx2mh0vh0000gq/T//cch8KZiZ.s:5488   .text.rgblight_task:0000000000000130 .LVL374
/var/folders/xk/fjkh8m297bb3lq7fwx2mh0vh0000gq/T//cch8KZiZ.s:5510   .text.rgblight_task:000000000000013e .LVL377
/var/folders/xk/fjkh8m297bb3lq7fwx2mh0vh0000gq/T//cch8KZiZ.s:5539   .text.rgblight_task:0000000000000146 .LVL379
/var/folders/xk/fjkh8m297bb3lq7fwx2mh0vh0000gq/T//cch8KZiZ.s:5622   .text.rgblight_task:000000000000018c .LVL386
/var/folders/xk/fjkh8m297bb3lq7fwx2mh0vh0000gq/T//cch8KZiZ.s:5657   .text.rgblight_task:000000000000019e .LVL388
/var/folders/xk/fjkh8m297bb3lq7fwx2mh0vh0000gq/T//cch8KZiZ.s:5071   .text.rgblight_show_solid_color:0000000000000002 .LCFI98
/var/folders/xk/fjkh8m297bb3lq7fwx2mh0vh0000gq/T//cch8KZiZ.s:5075   .text.rgblight_show_solid_color:0000000000000004 .LCFI99
/var/folders/xk/fjkh8m297bb3lq7fwx2mh0vh0000gq/T//cch8KZiZ.s:5079   .text.rgblight_show_solid_color:0000000000000006 .LCFI100
/var/folders/xk/fjkh8m297bb3lq7fwx2mh0vh0000gq/T//cch8KZiZ.s:5065   .text.rgblight_show_solid_color:0000000000000000 .LVL339
/var/folders/xk/fjkh8m297bb3lq7fwx2mh0vh0000gq/T//cch8KZiZ.s:5106   .text.rgblight_show_solid_color:0000000000000020 .LVL343
/var/folders/xk/fjkh8m297bb3lq7fwx2mh0vh0000gq/T//cch8KZiZ.s:5103   .text.rgblight_show_solid_color:000000000000001e .LVL342
/var/folders/xk/fjkh8m297bb3lq7fwx2mh0vh0000gq/T//cch8KZiZ.s:5109   .text.rgblight_show_solid_color:0000000000000022 .LVL344
/var/folders/xk/fjkh8m297bb3lq7fwx2mh0vh0000gq/T//cch8KZiZ.s:4231   .text.rgblight_timer_enable:0000000000000000 .LVL268
/var/folders/xk/fjkh8m297bb3lq7fwx2mh0vh0000gq/T//cch8KZiZ.s:4917   .text.rgblight_update_sync:0000000000000002 .LCFI95
/var/folders/xk/fjkh8m297bb3lq7fwx2mh0vh0000gq/T//cch8KZiZ.s:4921   .text.rgblight_update_sync:0000000000000004 .LCFI96
/var/folders/xk/fjkh8m297bb3lq7fwx2mh0vh0000gq/T//cch8KZiZ.s:4925   .text.rgblight_update_sync:0000000000000006 .LCFI97
/var/folders/xk/fjkh8m297bb3lq7fwx2mh0vh0000gq/T//cch8KZiZ.s:4911   .text.rgblight_update_sync:0000000000000000 .LVL327
/var/folders/xk/fjkh8m297bb3lq7fwx2mh0vh0000gq/T//cch8KZiZ.s:4937   .text.rgblight_update_sync:000000000000000c .LVL328
/var/folders/xk/fjkh8m297bb3lq7fwx2mh0vh0000gq/T//cch8KZiZ.s:5001   .text.rgblight_update_sync:000000000000005a .LVL332
/var/folders/xk/fjkh8m297bb3lq7fwx2mh0vh0000gq/T//cch8KZiZ.s:5007   .text.rgblight_update_sync:000000000000005e .LVL334
/var/folders/xk/fjkh8m297bb3lq7fwx2mh0vh0000gq/T//cch8KZiZ.s:5004   .text.rgblight_update_sync:000000000000005c .LVL333
/var/folders/xk/fjkh8m297bb3lq7fwx2mh0vh0000gq/T//cch8KZiZ.s:903    .text.rgblight_set:000000000000000c .LVL41
/var/folders/xk/fjkh8m297bb3lq7fwx2mh0vh0000gq/T//cch8KZiZ.s:894    .text.rgblight_set:0000000000000004 .LVL40
/var/folders/xk/fjkh8m297bb3lq7fwx2mh0vh0000gq/T//cch8KZiZ.s:922    .text.rgblight_set:0000000000000024 .LVL43
/var/folders/xk/fjkh8m297bb3lq7fwx2mh0vh0000gq/T//cch8KZiZ.s:863    .text.rgblight_call_driver:0000000000000000 .LVL38
/var/folders/xk/fjkh8m297bb3lq7fwx2mh0vh0000gq/T//cch8KZiZ.s:2449   .text.rgblight_sethsv_range:0000000000000002 .LCFI38
/var/folders/xk/fjkh8m297bb3lq7fwx2mh0vh0000gq/T//cch8KZiZ.s:2453   .text.rgblight_sethsv_range:0000000000000004 .LCFI39
/var/folders/xk/fjkh8m297bb3lq7fwx2mh0vh0000gq/T//cch8KZiZ.s:2457   .text.rgblight_sethsv_range:0000000000000006 .LCFI40
/var/folders/xk/fjkh8m297bb3lq7fwx2mh0vh0000gq/T//cch8KZiZ.s:2461   .text.rgblight_sethsv_range:0000000000000008 .LCFI41
/var/folders/xk/fjkh8m297bb3lq7fwx2mh0vh0000gq/T//cch8KZiZ.s:2466   .text.rgblight_sethsv_range:000000000000000c .LCFI42
/var/folders/xk/fjkh8m297bb3lq7fwx2mh0vh0000gq/T//cch8KZiZ.s:2470   .text.rgblight_sethsv_range:0000000000000010 .LCFI43
/var/folders/xk/fjkh8m297bb3lq7fwx2mh0vh0000gq/T//cch8KZiZ.s:2443   .text.rgblight_sethsv_range:0000000000000000 .LVL154
/var/folders/xk/fjkh8m297bb3lq7fwx2mh0vh0000gq/T//cch8KZiZ.s:2486   .text.rgblight_sethsv_range:000000000000001c .LVL155
/var/folders/xk/fjkh8m297bb3lq7fwx2mh0vh0000gq/T//cch8KZiZ.s:2508   .text.rgblight_sethsv_range:000000000000003c .LVL158
/var/folders/xk/fjkh8m297bb3lq7fwx2mh0vh0000gq/T//cch8KZiZ.s:2511   .text.rgblight_sethsv_range:000000000000003e .LVL159
/var/folders/xk/fjkh8m297bb3lq7fwx2mh0vh0000gq/T//cch8KZiZ.s:2356   .text.rgblight_setrgb_range:0000000000000002 .LCFI37
/var/folders/xk/fjkh8m297bb3lq7fwx2mh0vh0000gq/T//cch8KZiZ.s:2350   .text.rgblight_setrgb_range:0000000000000000 .LVL148
/var/folders/xk/fjkh8m297bb3lq7fwx2mh0vh0000gq/T//cch8KZiZ.s:2381   .text.rgblight_setrgb_range:000000000000001e .LVL149
/var/folders/xk/fjkh8m297bb3lq7fwx2mh0vh0000gq/T//cch8KZiZ.s:2433   .text.rgblight_setrgb_range:000000000000003e .LVL153
/var/folders/xk/fjkh8m297bb3lq7fwx2mh0vh0000gq/T//cch8KZiZ.s:2425   .text.rgblight_setrgb_range:000000000000003c .LVL152
/var/folders/xk/fjkh8m297bb3lq7fwx2mh0vh0000gq/T//cch8KZiZ.s:2285   .text.rgblight_sethsv_at:0000000000000002 .LCFI32
/var/folders/xk/fjkh8m297bb3lq7fwx2mh0vh0000gq/T//cch8KZiZ.s:2289   .text.rgblight_sethsv_at:0000000000000004 .LCFI33
/var/folders/xk/fjkh8m297bb3lq7fwx2mh0vh0000gq/T//cch8KZiZ.s:2293   .text.rgblight_sethsv_at:0000000000000006 .LCFI34
/var/folders/xk/fjkh8m297bb3lq7fwx2mh0vh0000gq/T//cch8KZiZ.s:2298   .text.rgblight_sethsv_at:000000000000000a .LCFI35
/var/folders/xk/fjkh8m297bb3lq7fwx2mh0vh0000gq/T//cch8KZiZ.s:2302   .text.rgblight_sethsv_at:000000000000000e .LCFI36
/var/folders/xk/fjkh8m297bb3lq7fwx2mh0vh0000gq/T//cch8KZiZ.s:2279   .text.rgblight_sethsv_at:0000000000000000 .LVL143
/var/folders/xk/fjkh8m297bb3lq7fwx2mh0vh0000gq/T//cch8KZiZ.s:2318   .text.rgblight_sethsv_at:000000000000001a .LVL144
/var/folders/xk/fjkh8m297bb3lq7fwx2mh0vh0000gq/T//cch8KZiZ.s:2340   .text.rgblight_sethsv_at:000000000000003a .LVL147
/var/folders/xk/fjkh8m297bb3lq7fwx2mh0vh0000gq/T//cch8KZiZ.s:2230   .text.rgblight_setrgb_at:0000000000000000 .LVL141
/var/folders/xk/fjkh8m297bb3lq7fwx2mh0vh0000gq/T//cch8KZiZ.s:960    .text.rgblight_setrgb:0000000000000000 .LVL45
/var/folders/xk/fjkh8m297bb3lq7fwx2mh0vh0000gq/T//cch8KZiZ.s:979    .text.rgblight_setrgb:000000000000000c .LVL46
/var/folders/xk/fjkh8m297bb3lq7fwx2mh0vh0000gq/T//cch8KZiZ.s:1016   .text.rgblight_setrgb:0000000000000030 .LVL49
/var/folders/xk/fjkh8m297bb3lq7fwx2mh0vh0000gq/T//cch8KZiZ.s:761    .text.rgblight_set_speed_noeeprom:0000000000000000 .LVL36
/var/folders/xk/fjkh8m297bb3lq7fwx2mh0vh0000gq/T//cch8KZiZ.s:741    .text.rgblight_set_speed:0000000000000000 .LVL34
/var/folders/xk/fjkh8m297bb3lq7fwx2mh0vh0000gq/T//cch8KZiZ.s:706    .text.rgblight_set_speed_eeprom_helper:0000000000000000 .LVL31
/var/folders/xk/fjkh8m297bb3lq7fwx2mh0vh0000gq/T//cch8KZiZ.s:726    .text.rgblight_set_speed_eeprom_helper:0000000000000018 .LVL32
/var/folders/xk/fjkh8m297bb3lq7fwx2mh0vh0000gq/T//cch8KZiZ.s:2210   .text.rgblight_sethsv_noeeprom:0000000000000000 .LVL139
/var/folders/xk/fjkh8m297bb3lq7fwx2mh0vh0000gq/T//cch8KZiZ.s:2190   .text.rgblight_sethsv:0000000000000000 .LVL137
/var/folders/xk/fjkh8m297bb3lq7fwx2mh0vh0000gq/T//cch8KZiZ.s:1358   .text.rgblight_sethsv_eeprom_helper:0000000000000002 .LCFI20
/var/folders/xk/fjkh8m297bb3lq7fwx2mh0vh0000gq/T//cch8KZiZ.s:1362   .text.rgblight_sethsv_eeprom_helper:0000000000000004 .LCFI21
/var/folders/xk/fjkh8m297bb3lq7fwx2mh0vh0000gq/T//cch8KZiZ.s:1366   .text.rgblight_sethsv_eeprom_helper:0000000000000006 .LCFI22
/var/folders/xk/fjkh8m297bb3lq7fwx2mh0vh0000gq/T//cch8KZiZ.s:1370   .text.rgblight_sethsv_eeprom_helper:0000000000000008 .LCFI23
/var/folders/xk/fjkh8m297bb3lq7fwx2mh0vh0000gq/T//cch8KZiZ.s:1374   .text.rgblight_sethsv_eeprom_helper:000000000000000a .LCFI24
/var/folders/xk/fjkh8m297bb3lq7fwx2mh0vh0000gq/T//cch8KZiZ.s:1378   .text.rgblight_sethsv_eeprom_helper:000000000000000c .LCFI25
/var/folders/xk/fjkh8m297bb3lq7fwx2mh0vh0000gq/T//cch8KZiZ.s:1382   .text.rgblight_sethsv_eeprom_helper:000000000000000e .LCFI26
/var/folders/xk/fjkh8m297bb3lq7fwx2mh0vh0000gq/T//cch8KZiZ.s:1386   .text.rgblight_sethsv_eeprom_helper:0000000000000010 .LCFI27
/var/folders/xk/fjkh8m297bb3lq7fwx2mh0vh0000gq/T//cch8KZiZ.s:1390   .text.rgblight_sethsv_eeprom_helper:0000000000000012 .LCFI28
/var/folders/xk/fjkh8m297bb3lq7fwx2mh0vh0000gq/T//cch8KZiZ.s:1394   .text.rgblight_sethsv_eeprom_helper:0000000000000014 .LCFI29
/var/folders/xk/fjkh8m297bb3lq7fwx2mh0vh0000gq/T//cch8KZiZ.s:1399   .text.rgblight_sethsv_eeprom_helper:0000000000000018 .LCFI30
/var/folders/xk/fjkh8m297bb3lq7fwx2mh0vh0000gq/T//cch8KZiZ.s:1403   .text.rgblight_sethsv_eeprom_helper:000000000000001c .LCFI31
/var/folders/xk/fjkh8m297bb3lq7fwx2mh0vh0000gq/T//cch8KZiZ.s:1352   .text.rgblight_sethsv_eeprom_helper:0000000000000000 .LVL75
/var/folders/xk/fjkh8m297bb3lq7fwx2mh0vh0000gq/T//cch8KZiZ.s:1429   .text.rgblight_sethsv_eeprom_helper:000000000000003a .LVL76
/var/folders/xk/fjkh8m297bb3lq7fwx2mh0vh0000gq/T//cch8KZiZ.s:1508   .text.rgblight_sethsv_eeprom_helper:00000000000000ac .LVL81
/var/folders/xk/fjkh8m297bb3lq7fwx2mh0vh0000gq/T//cch8KZiZ.s:1524   .text.rgblight_sethsv_eeprom_helper:00000000000000bc .LVL85
/var/folders/xk/fjkh8m297bb3lq7fwx2mh0vh0000gq/T//cch8KZiZ.s:1514   .text.rgblight_sethsv_eeprom_helper:00000000000000b0 .LVL83
/var/folders/xk/fjkh8m297bb3lq7fwx2mh0vh0000gq/T//cch8KZiZ.s:1511   .text.rgblight_sethsv_eeprom_helper:00000000000000ae .LVL82
/var/folders/xk/fjkh8m297bb3lq7fwx2mh0vh0000gq/T//cch8KZiZ.s:1442   .text.rgblight_sethsv_eeprom_helper:0000000000000046 .LVL77
/var/folders/xk/fjkh8m297bb3lq7fwx2mh0vh0000gq/T//cch8KZiZ.s:1517   .text.rgblight_sethsv_eeprom_helper:00000000000000b2 .LVL84
/var/folders/xk/fjkh8m297bb3lq7fwx2mh0vh0000gq/T//cch8KZiZ.s:1562   .text.rgblight_sethsv_eeprom_helper:00000000000000da .LVL88
/var/folders/xk/fjkh8m297bb3lq7fwx2mh0vh0000gq/T//cch8KZiZ.s:1573   .text.rgblight_sethsv_eeprom_helper:00000000000000e2 .LVL90
/var/folders/xk/fjkh8m297bb3lq7fwx2mh0vh0000gq/T//cch8KZiZ.s:1600   .text.rgblight_sethsv_eeprom_helper:00000000000000f0 .LVL93
/var/folders/xk/fjkh8m297bb3lq7fwx2mh0vh0000gq/T//cch8KZiZ.s:1568   .text.rgblight_sethsv_eeprom_helper:00000000000000e0 .LVL89
/var/folders/xk/fjkh8m297bb3lq7fwx2mh0vh0000gq/T//cch8KZiZ.s:1587   .text.rgblight_sethsv_eeprom_helper:00000000000000ec .LVL92
/var/folders/xk/fjkh8m297bb3lq7fwx2mh0vh0000gq/T//cch8KZiZ.s:1578   .text.rgblight_sethsv_eeprom_helper:00000000000000e8 .LVL91
/var/folders/xk/fjkh8m297bb3lq7fwx2mh0vh0000gq/T//cch8KZiZ.s:1634   .text.rgblight_sethsv_eeprom_helper:0000000000000116 .LVL95
/var/folders/xk/fjkh8m297bb3lq7fwx2mh0vh0000gq/T//cch8KZiZ.s:1644   .text.rgblight_sethsv_eeprom_helper:000000000000011e .LVL96
/var/folders/xk/fjkh8m297bb3lq7fwx2mh0vh0000gq/T//cch8KZiZ.s:1674   .text.rgblight_sethsv_eeprom_helper:0000000000000142 .LVL99
/var/folders/xk/fjkh8m297bb3lq7fwx2mh0vh0000gq/T//cch8KZiZ.s:1680   .text.rgblight_sethsv_eeprom_helper:0000000000000144 .LVL100
/var/folders/xk/fjkh8m297bb3lq7fwx2mh0vh0000gq/T//cch8KZiZ.s:1036   .text.rgblight_sethsv_noeeprom_old:0000000000000002 .LCFI6
/var/folders/xk/fjkh8m297bb3lq7fwx2mh0vh0000gq/T//cch8KZiZ.s:1040   .text.rgblight_sethsv_noeeprom_old:0000000000000004 .LCFI7
/var/folders/xk/fjkh8m297bb3lq7fwx2mh0vh0000gq/T//cch8KZiZ.s:1045   .text.rgblight_sethsv_noeeprom_old:0000000000000008 .LCFI8
/var/folders/xk/fjkh8m297bb3lq7fwx2mh0vh0000gq/T//cch8KZiZ.s:1049   .text.rgblight_sethsv_noeeprom_old:000000000000000c .LCFI9
/var/folders/xk/fjkh8m297bb3lq7fwx2mh0vh0000gq/T//cch8KZiZ.s:1030   .text.rgblight_sethsv_noeeprom_old:0000000000000000 .LVL50
/var/folders/xk/fjkh8m297bb3lq7fwx2mh0vh0000gq/T//cch8KZiZ.s:610    .text.rgblight_decrease_speed_helper:0000000000000000 .LVL27
/var/folders/xk/fjkh8m297bb3lq7fwx2mh0vh0000gq/T//cch8KZiZ.s:533    .text.rgblight_increase_speed_helper:0000000000000000 .LVL23
/var/folders/xk/fjkh8m297bb3lq7fwx2mh0vh0000gq/T//cch8KZiZ.s:2101   .text.rgblight_decrease_val_helper:0000000000000000 .LVL131
/var/folders/xk/fjkh8m297bb3lq7fwx2mh0vh0000gq/T//cch8KZiZ.s:2142   .text.rgblight_decrease_val_helper:0000000000000014 .LVL133
/var/folders/xk/fjkh8m297bb3lq7fwx2mh0vh0000gq/T//cch8KZiZ.s:2132   .text.rgblight_decrease_val_helper:000000000000000e .LVL132
/var/folders/xk/fjkh8m297bb3lq7fwx2mh0vh0000gq/T//cch8KZiZ.s:2012   .text.rgblight_increase_val_helper:0000000000000000 .LVL125
/var/folders/xk/fjkh8m297bb3lq7fwx2mh0vh0000gq/T//cch8KZiZ.s:2053   .text.rgblight_increase_val_helper:0000000000000014 .LVL127
/var/folders/xk/fjkh8m297bb3lq7fwx2mh0vh0000gq/T//cch8KZiZ.s:2043   .text.rgblight_increase_val_helper:000000000000000e .LVL126
/var/folders/xk/fjkh8m297bb3lq7fwx2mh0vh0000gq/T//cch8KZiZ.s:1923   .text.rgblight_decrease_sat_helper:0000000000000000 .LVL119
/var/folders/xk/fjkh8m297bb3lq7fwx2mh0vh0000gq/T//cch8KZiZ.s:1964   .text.rgblight_decrease_sat_helper:0000000000000014 .LVL121
/var/folders/xk/fjkh8m297bb3lq7fwx2mh0vh0000gq/T//cch8KZiZ.s:1954   .text.rgblight_decrease_sat_helper:000000000000000e .LVL120
/var/folders/xk/fjkh8m297bb3lq7fwx2mh0vh0000gq/T//cch8KZiZ.s:1833   .text.rgblight_increase_sat_helper:0000000000000000 .LVL113
/var/folders/xk/fjkh8m297bb3lq7fwx2mh0vh0000gq/T//cch8KZiZ.s:1875   .text.rgblight_increase_sat_helper:0000000000000014 .LVL115
/var/folders/xk/fjkh8m297bb3lq7fwx2mh0vh0000gq/T//cch8KZiZ.s:1865   .text.rgblight_increase_sat_helper:000000000000000e .LVL114
/var/folders/xk/fjkh8m297bb3lq7fwx2mh0vh0000gq/T//cch8KZiZ.s:1763   .text.rgblight_decrease_hue_helper:0000000000000000 .LVL107
/var/folders/xk/fjkh8m297bb3lq7fwx2mh0vh0000gq/T//cch8KZiZ.s:1782   .text.rgblight_decrease_hue_helper:000000000000000e .LVL108
/var/folders/xk/fjkh8m297bb3lq7fwx2mh0vh0000gq/T//cch8KZiZ.s:1785   .text.rgblight_decrease_hue_helper:0000000000000010 .LVL109
/var/folders/xk/fjkh8m297bb3lq7fwx2mh0vh0000gq/T//cch8KZiZ.s:1693   .text.rgblight_increase_hue_helper:0000000000000000 .LVL101
/var/folders/xk/fjkh8m297bb3lq7fwx2mh0vh0000gq/T//cch8KZiZ.s:1712   .text.rgblight_increase_hue_helper:000000000000000e .LVL102
/var/folders/xk/fjkh8m297bb3lq7fwx2mh0vh0000gq/T//cch8KZiZ.s:1715   .text.rgblight_increase_hue_helper:0000000000000010 .LVL103
/var/folders/xk/fjkh8m297bb3lq7fwx2mh0vh0000gq/T//cch8KZiZ.s:4123   .text.rgblight_disable_noeeprom:0000000000000018 .LVL260
/var/folders/xk/fjkh8m297bb3lq7fwx2mh0vh0000gq/T//cch8KZiZ.s:4143   .text.rgblight_disable_noeeprom:000000000000002a .LVL261
/var/folders/xk/fjkh8m297bb3lq7fwx2mh0vh0000gq/T//cch8KZiZ.s:4189   .text.rgblight_disable:0000000000000024 .LVL265
/var/folders/xk/fjkh8m297bb3lq7fwx2mh0vh0000gq/T//cch8KZiZ.s:4209   .text.rgblight_disable:0000000000000036 .LVL266
/var/folders/xk/fjkh8m297bb3lq7fwx2mh0vh0000gq/T//cch8KZiZ.s:4703   .text.rgblight_mode_noeeprom:0000000000000000 .LVL309
/var/folders/xk/fjkh8m297bb3lq7fwx2mh0vh0000gq/T//cch8KZiZ.s:4560   .text.rgblight_mode:0000000000000000 .LVL298
/var/folders/xk/fjkh8m297bb3lq7fwx2mh0vh0000gq/T//cch8KZiZ.s:4285   .text.rgblight_mode_eeprom_helper:0000000000000000 .LVL271
/var/folders/xk/fjkh8m297bb3lq7fwx2mh0vh0000gq/T//cch8KZiZ.s:4307   .text.rgblight_mode_eeprom_helper:0000000000000010 .LVL272
/var/folders/xk/fjkh8m297bb3lq7fwx2mh0vh0000gq/T//cch8KZiZ.s:4385   .text.rgblight_mode_eeprom_helper:0000000000000072 .LVL278
/var/folders/xk/fjkh8m297bb3lq7fwx2mh0vh0000gq/T//cch8KZiZ.s:4395   .text.rgblight_mode_eeprom_helper:000000000000007c .LVL281
/var/folders/xk/fjkh8m297bb3lq7fwx2mh0vh0000gq/T//cch8KZiZ.s:4324   .text.rgblight_mode_eeprom_helper:0000000000000032 .LVL273
/var/folders/xk/fjkh8m297bb3lq7fwx2mh0vh0000gq/T//cch8KZiZ.s:4389   .text.rgblight_mode_eeprom_helper:0000000000000076 .LVL279
/var/folders/xk/fjkh8m297bb3lq7fwx2mh0vh0000gq/T//cch8KZiZ.s:4484   .text.rgblight_step_reverse_helper:0000000000000000 .LVL290
/var/folders/xk/fjkh8m297bb3lq7fwx2mh0vh0000gq/T//cch8KZiZ.s:4502   .text.rgblight_step_reverse_helper:000000000000000a .LVL292
/var/folders/xk/fjkh8m297bb3lq7fwx2mh0vh0000gq/T//cch8KZiZ.s:4495   .text.rgblight_step_reverse_helper:0000000000000002 .LVL291
/var/folders/xk/fjkh8m297bb3lq7fwx2mh0vh0000gq/T//cch8KZiZ.s:4505   .text.rgblight_step_reverse_helper:000000000000000c .LVL293
/var/folders/xk/fjkh8m297bb3lq7fwx2mh0vh0000gq/T//cch8KZiZ.s:4407   .text.rgblight_step_helper:0000000000000000 .LVL282
/var/folders/xk/fjkh8m297bb3lq7fwx2mh0vh0000gq/T//cch8KZiZ.s:4425   .text.rgblight_step_helper:000000000000000a .LVL284
/var/folders/xk/fjkh8m297bb3lq7fwx2mh0vh0000gq/T//cch8KZiZ.s:4418   .text.rgblight_step_helper:0000000000000002 .LVL283
/var/folders/xk/fjkh8m297bb3lq7fwx2mh0vh0000gq/T//cch8KZiZ.s:4428   .text.rgblight_step_helper:000000000000000c .LVL285
/var/folders/xk/fjkh8m297bb3lq7fwx2mh0vh0000gq/T//cch8KZiZ.s:4623   .text.rgblight_decrease:0000000000000000 .LVL303
/var/folders/xk/fjkh8m297bb3lq7fwx2mh0vh0000gq/T//cch8KZiZ.s:4634   .text.rgblight_decrease:000000000000000c .LVL304
/var/folders/xk/fjkh8m297bb3lq7fwx2mh0vh0000gq/T//cch8KZiZ.s:4588   .text.rgblight_increase:0000000000000000 .LVL300
/var/folders/xk/fjkh8m297bb3lq7fwx2mh0vh0000gq/T//cch8KZiZ.s:4599   .text.rgblight_increase:000000000000000c .LVL301
/var/folders/xk/fjkh8m297bb3lq7fwx2mh0vh0000gq/T//cch8KZiZ.s:4870   .text.rgblight_update_dword:0000000000000000 .LVL323
/var/folders/xk/fjkh8m297bb3lq7fwx2mh0vh0000gq/T//cch8KZiZ.s:318    .text.eeconfig_update_rgblight:0000000000000002 .LCFI2
/var/folders/xk/fjkh8m297bb3lq7fwx2mh0vh0000gq/T//cch8KZiZ.s:322    .text.eeconfig_update_rgblight:0000000000000004 .LCFI3
/var/folders/xk/fjkh8m297bb3lq7fwx2mh0vh0000gq/T//cch8KZiZ.s:326    .text.eeconfig_update_rgblight:0000000000000006 .LCFI4
/var/folders/xk/fjkh8m297bb3lq7fwx2mh0vh0000gq/T//cch8KZiZ.s:330    .text.eeconfig_update_rgblight:0000000000000008 .LCFI5
/var/folders/xk/fjkh8m297bb3lq7fwx2mh0vh0000gq/T//cch8KZiZ.s:312    .text.eeconfig_update_rgblight:0000000000000000 .LVL18
/var/folders/xk/fjkh8m297bb3lq7fwx2mh0vh0000gq/T//cch8KZiZ.s:186    .text.sethsv:0000000000000000 .LVL13
/var/folders/xk/fjkh8m297bb3lq7fwx2mh0vh0000gq/T//cch8KZiZ.s:198    .text.sethsv:0000000000000006 .LVL14
/var/folders/xk/fjkh8m297bb3lq7fwx2mh0vh0000gq/T//cch8KZiZ.s:130    .text.sethsv_raw:0000000000000002 .LCFI0
/var/folders/xk/fjkh8m297bb3lq7fwx2mh0vh0000gq/T//cch8KZiZ.s:134    .text.sethsv_raw:0000000000000004 .LCFI1
/var/folders/xk/fjkh8m297bb3lq7fwx2mh0vh0000gq/T//cch8KZiZ.s:124    .text.sethsv_raw:0000000000000000 .LVL7
/var/folders/xk/fjkh8m297bb3lq7fwx2mh0vh0000gq/T//cch8KZiZ.s:150    .text.sethsv_raw:000000000000000c .LVL9
/var/folders/xk/fjkh8m297bb3lq7fwx2mh0vh0000gq/T//cch8KZiZ.s:147    .text.sethsv_raw:000000000000000a .LVL8
/var/folders/xk/fjkh8m297bb3lq7fwx2mh0vh0000gq/T//cch8KZiZ.s:176    .text.sethsv_raw:000000000000001a .LVL12
/var/folders/xk/fjkh8m297bb3lq7fwx2mh0vh0000gq/T//cch8KZiZ.s:168    .text.sethsv_raw:0000000000000016 .LVL11
/var/folders/xk/fjkh8m297bb3lq7fwx2mh0vh0000gq/T//cch8KZiZ.s:104    .text.rgblight_hsv_to_rgb:0000000000000000 .LVL5
/var/folders/xk/fjkh8m297bb3lq7fwx2mh0vh0000gq/T//cch8KZiZ.s:58     .text.rgblight_set_effect_range:0000000000000000 .LVL2
/var/folders/xk/fjkh8m297bb3lq7fwx2mh0vh0000gq/T//cch8KZiZ.s:86     .text.rgblight_set_effect_range:0000000000000018 .LVL3
/var/folders/xk/fjkh8m297bb3lq7fwx2mh0vh0000gq/T//cch8KZiZ.s:92     .text.rgblight_set_effect_range:0000000000000020 .LVL4
/var/folders/xk/fjkh8m297bb3lq7fwx2mh0vh0000gq/T//cch8KZiZ.s:6157   .debug_info:0000000000000000 .Ldebug_info0
/var/folders/xk/fjkh8m297bb3lq7fwx2mh0vh0000gq/T//cch8KZiZ.s:975    .text.rgblight_setrgb:0000000000000008 .LBB23
/var/folders/xk/fjkh8m297bb3lq7fwx2mh0vh0000gq/T//cch8KZiZ.s:994    .text.rgblight_setrgb:0000000000000020 .LBE23
/var/folders/xk/fjkh8m297bb3lq7fwx2mh0vh0000gq/T//cch8KZiZ.s:999    .text.rgblight_setrgb:0000000000000024 .LBB24
/var/folders/xk/fjkh8m297bb3lq7fwx2mh0vh0000gq/T//cch8KZiZ.s:1020   .text.rgblight_setrgb:0000000000000030 .LBE24
/var/folders/xk/fjkh8m297bb3lq7fwx2mh0vh0000gq/T//cch8KZiZ.s:1593   .text.rgblight_sethsv_eeprom_helper:00000000000000ec .LBB31
/var/folders/xk/fjkh8m297bb3lq7fwx2mh0vh0000gq/T//cch8KZiZ.s:1610   .text.rgblight_sethsv_eeprom_helper:00000000000000f8 .LBE31
/var/folders/xk/fjkh8m297bb3lq7fwx2mh0vh0000gq/T//cch8KZiZ.s:1616   .text.rgblight_sethsv_eeprom_helper:00000000000000fe .LBB35
/var/folders/xk/fjkh8m297bb3lq7fwx2mh0vh0000gq/T//cch8KZiZ.s:1684   .text.rgblight_sethsv_eeprom_helper:0000000000000146 .LBE35
/var/folders/xk/fjkh8m297bb3lq7fwx2mh0vh0000gq/T//cch8KZiZ.s:1597   .text.rgblight_sethsv_eeprom_helper:00000000000000ee .LBB32
/var/folders/xk/fjkh8m297bb3lq7fwx2mh0vh0000gq/T//cch8KZiZ.s:1603   .text.rgblight_sethsv_eeprom_helper:00000000000000f0 .LBE32
/var/folders/xk/fjkh8m297bb3lq7fwx2mh0vh0000gq/T//cch8KZiZ.s:1617   .text.rgblight_sethsv_eeprom_helper:00000000000000fe .LBB33
/var/folders/xk/fjkh8m297bb3lq7fwx2mh0vh0000gq/T//cch8KZiZ.s:1667   .text.rgblight_sethsv_eeprom_helper:000000000000013e .LBE33
/var/folders/xk/fjkh8m297bb3lq7fwx2mh0vh0000gq/T//cch8KZiZ.s:1676   .text.rgblight_sethsv_eeprom_helper:0000000000000142 .LBB34
/var/folders/xk/fjkh8m297bb3lq7fwx2mh0vh0000gq/T//cch8KZiZ.s:1683   .text.rgblight_sethsv_eeprom_helper:0000000000000146 .LBE34
/var/folders/xk/fjkh8m297bb3lq7fwx2mh0vh0000gq/T//cch8KZiZ.s:1842   .text.rgblight_increase_sat_helper:0000000000000000 .LBB36
/var/folders/xk/fjkh8m297bb3lq7fwx2mh0vh0000gq/T//cch8KZiZ.s:1849   .text.rgblight_increase_sat_helper:0000000000000000 .LBE36
/var/folders/xk/fjkh8m297bb3lq7fwx2mh0vh0000gq/T//cch8KZiZ.s:1853   .text.rgblight_increase_sat_helper:0000000000000004 .LBB39
/var/folders/xk/fjkh8m297bb3lq7fwx2mh0vh0000gq/T//cch8KZiZ.s:1870   .text.rgblight_increase_sat_helper:000000000000000e .LBE39
/var/folders/xk/fjkh8m297bb3lq7fwx2mh0vh0000gq/T//cch8KZiZ.s:1932   .text.rgblight_decrease_sat_helper:0000000000000000 .LBB40
/var/folders/xk/fjkh8m297bb3lq7fwx2mh0vh0000gq/T//cch8KZiZ.s:1938   .text.rgblight_decrease_sat_helper:0000000000000000 .LBE40
/var/folders/xk/fjkh8m297bb3lq7fwx2mh0vh0000gq/T//cch8KZiZ.s:1942   .text.rgblight_decrease_sat_helper:0000000000000004 .LBB43
/var/folders/xk/fjkh8m297bb3lq7fwx2mh0vh0000gq/T//cch8KZiZ.s:1959   .text.rgblight_decrease_sat_helper:000000000000000e .LBE43
/var/folders/xk/fjkh8m297bb3lq7fwx2mh0vh0000gq/T//cch8KZiZ.s:2021   .text.rgblight_increase_val_helper:0000000000000000 .LBB44
/var/folders/xk/fjkh8m297bb3lq7fwx2mh0vh0000gq/T//cch8KZiZ.s:2027   .text.rgblight_increase_val_helper:0000000000000000 .LBE44
/var/folders/xk/fjkh8m297bb3lq7fwx2mh0vh0000gq/T//cch8KZiZ.s:2031   .text.rgblight_increase_val_helper:0000000000000004 .LBB47
/var/folders/xk/fjkh8m297bb3lq7fwx2mh0vh0000gq/T//cch8KZiZ.s:2048   .text.rgblight_increase_val_helper:000000000000000e .LBE47
/var/folders/xk/fjkh8m297bb3lq7fwx2mh0vh0000gq/T//cch8KZiZ.s:2110   .text.rgblight_decrease_val_helper:0000000000000000 .LBB48
/var/folders/xk/fjkh8m297bb3lq7fwx2mh0vh0000gq/T//cch8KZiZ.s:2116   .text.rgblight_decrease_val_helper:0000000000000000 .LBE48
/var/folders/xk/fjkh8m297bb3lq7fwx2mh0vh0000gq/T//cch8KZiZ.s:2120   .text.rgblight_decrease_val_helper:0000000000000004 .LBB51
/var/folders/xk/fjkh8m297bb3lq7fwx2mh0vh0000gq/T//cch8KZiZ.s:2137   .text.rgblight_decrease_val_helper:000000000000000e .LBE51
/var/folders/xk/fjkh8m297bb3lq7fwx2mh0vh0000gq/T//cch8KZiZ.s:2753   .text.rgblight_effect_snake:0000000000000042 .LBB55
/var/folders/xk/fjkh8m297bb3lq7fwx2mh0vh0000gq/T//cch8KZiZ.s:2762   .text.rgblight_effect_snake:0000000000000048 .LBE55
/var/folders/xk/fjkh8m297bb3lq7fwx2mh0vh0000gq/T//cch8KZiZ.s:2820   .text.rgblight_effect_snake:000000000000008e .LBB56
/var/folders/xk/fjkh8m297bb3lq7fwx2mh0vh0000gq/T//cch8KZiZ.s:2916   .text.rgblight_effect_snake:0000000000000106 .LBE56
/var/folders/xk/fjkh8m297bb3lq7fwx2mh0vh0000gq/T//cch8KZiZ.s:2925   .text.rgblight_effect_snake:000000000000010a .LBB57
/var/folders/xk/fjkh8m297bb3lq7fwx2mh0vh0000gq/T//cch8KZiZ.s:2940   .text.rgblight_effect_snake:0000000000000116 .LBE57
/var/folders/xk/fjkh8m297bb3lq7fwx2mh0vh0000gq/T//cch8KZiZ.s:3361   .text.rgblight_effect_christmas:000000000000008e .LBB58
/var/folders/xk/fjkh8m297bb3lq7fwx2mh0vh0000gq/T//cch8KZiZ.s:3369   .text.rgblight_effect_christmas:0000000000000094 .LBE58
/var/folders/xk/fjkh8m297bb3lq7fwx2mh0vh0000gq/T//cch8KZiZ.s:3448   .text.rgblight_effect_christmas:00000000000000f2 .LBB59
/var/folders/xk/fjkh8m297bb3lq7fwx2mh0vh0000gq/T//cch8KZiZ.s:3453   .text.rgblight_effect_christmas:00000000000000f6 .LBE59
/var/folders/xk/fjkh8m297bb3lq7fwx2mh0vh0000gq/T//cch8KZiZ.s:3458   .text.rgblight_effect_christmas:00000000000000f8 .LBB60
/var/folders/xk/fjkh8m297bb3lq7fwx2mh0vh0000gq/T//cch8KZiZ.s:3480   .text.rgblight_effect_christmas:000000000000011c .LBE60
/var/folders/xk/fjkh8m297bb3lq7fwx2mh0vh0000gq/T//cch8KZiZ.s:3521   .text.rgblight_effect_alternating:000000000000000a .LBB61
/var/folders/xk/fjkh8m297bb3lq7fwx2mh0vh0000gq/T//cch8KZiZ.s:3537   .text.rgblight_effect_alternating:000000000000001a .LBE61
/var/folders/xk/fjkh8m297bb3lq7fwx2mh0vh0000gq/T//cch8KZiZ.s:3565   .text.rgblight_effect_alternating:0000000000000034 .LBB64
/var/folders/xk/fjkh8m297bb3lq7fwx2mh0vh0000gq/T//cch8KZiZ.s:3624   .text.rgblight_effect_alternating:000000000000007a .LBE64
/var/folders/xk/fjkh8m297bb3lq7fwx2mh0vh0000gq/T//cch8KZiZ.s:3566   .text.rgblight_effect_alternating:0000000000000034 .LBB62
/var/folders/xk/fjkh8m297bb3lq7fwx2mh0vh0000gq/T//cch8KZiZ.s:3604   .text.rgblight_effect_alternating:000000000000006c .LBE62
/var/folders/xk/fjkh8m297bb3lq7fwx2mh0vh0000gq/T//cch8KZiZ.s:3614   .text.rgblight_effect_alternating:0000000000000072 .LBB63
/var/folders/xk/fjkh8m297bb3lq7fwx2mh0vh0000gq/T//cch8KZiZ.s:3623   .text.rgblight_effect_alternating:000000000000007a .LBE63
/var/folders/xk/fjkh8m297bb3lq7fwx2mh0vh0000gq/T//cch8KZiZ.s:3705   .text.rgblight_effect_twinkle:0000000000000022 .LBB65
/var/folders/xk/fjkh8m297bb3lq7fwx2mh0vh0000gq/T//cch8KZiZ.s:3738   .text.rgblight_effect_twinkle:0000000000000042 .LBE65
/var/folders/xk/fjkh8m297bb3lq7fwx2mh0vh0000gq/T//cch8KZiZ.s:3764   .text.rgblight_effect_twinkle:000000000000005e .LBB71
/var/folders/xk/fjkh8m297bb3lq7fwx2mh0vh0000gq/T//cch8KZiZ.s:3987   .text.rgblight_effect_twinkle:000000000000017a .LBE71
/var/folders/xk/fjkh8m297bb3lq7fwx2mh0vh0000gq/T//cch8KZiZ.s:3710   .text.rgblight_effect_twinkle:0000000000000024 .LBB66
/var/folders/xk/fjkh8m297bb3lq7fwx2mh0vh0000gq/T//cch8KZiZ.s:3732   .text.rgblight_effect_twinkle:000000000000003a .LBE66
/var/folders/xk/fjkh8m297bb3lq7fwx2mh0vh0000gq/T//cch8KZiZ.s:3765   .text.rgblight_effect_twinkle:000000000000005e .LBB69
/var/folders/xk/fjkh8m297bb3lq7fwx2mh0vh0000gq/T//cch8KZiZ.s:3822   .text.rgblight_effect_twinkle:00000000000000a8 .LBE69
/var/folders/xk/fjkh8m297bb3lq7fwx2mh0vh0000gq/T//cch8KZiZ.s:3830   .text.rgblight_effect_twinkle:00000000000000ac .LBB70
/var/folders/xk/fjkh8m297bb3lq7fwx2mh0vh0000gq/T//cch8KZiZ.s:3986   .text.rgblight_effect_twinkle:000000000000017a .LBE70
/var/folders/xk/fjkh8m297bb3lq7fwx2mh0vh0000gq/T//cch8KZiZ.s:3723   .text.rgblight_effect_twinkle:0000000000000034 .LBB67
/var/folders/xk/fjkh8m297bb3lq7fwx2mh0vh0000gq/T//cch8KZiZ.s:3731   .text.rgblight_effect_twinkle:000000000000003a .LBE67
/var/folders/xk/fjkh8m297bb3lq7fwx2mh0vh0000gq/T//cch8KZiZ.s:3837   .text.rgblight_effect_twinkle:00000000000000b2 .LBB68
/var/folders/xk/fjkh8m297bb3lq7fwx2mh0vh0000gq/T//cch8KZiZ.s:3910   .text.rgblight_effect_twinkle:0000000000000110 .LBE68
/var/folders/xk/fjkh8m297bb3lq7fwx2mh0vh0000gq/T//cch8KZiZ.s:4232   .text.rgblight_timer_enable:0000000000000000 .LBB78
/var/folders/xk/fjkh8m297bb3lq7fwx2mh0vh0000gq/T//cch8KZiZ.s:4238   .text.rgblight_timer_enable:0000000000000000 .LBE78
/var/folders/xk/fjkh8m297bb3lq7fwx2mh0vh0000gq/T//cch8KZiZ.s:4242   .text.rgblight_timer_enable:0000000000000006 .LBB81
/var/folders/xk/fjkh8m297bb3lq7fwx2mh0vh0000gq/T//cch8KZiZ.s:4254   .text.rgblight_timer_enable:0000000000000014 .LBE81
/var/folders/xk/fjkh8m297bb3lq7fwx2mh0vh0000gq/T//cch8KZiZ.s:4332   .text.rgblight_mode_eeprom_helper:0000000000000036 .LBB84
/var/folders/xk/fjkh8m297bb3lq7fwx2mh0vh0000gq/T//cch8KZiZ.s:4338   .text.rgblight_mode_eeprom_helper:0000000000000036 .LBE84
/var/folders/xk/fjkh8m297bb3lq7fwx2mh0vh0000gq/T//cch8KZiZ.s:4342   .text.rgblight_mode_eeprom_helper:000000000000003c .LBB87
/var/folders/xk/fjkh8m297bb3lq7fwx2mh0vh0000gq/T//cch8KZiZ.s:4354   .text.rgblight_mode_eeprom_helper:000000000000004a .LBE87
/var/folders/xk/fjkh8m297bb3lq7fwx2mh0vh0000gq/T//cch8KZiZ.s:5158   .text.rgblight_task:0000000000000016 .LBB109
/var/folders/xk/fjkh8m297bb3lq7fwx2mh0vh0000gq/T//cch8KZiZ.s:5187   .text.rgblight_task:000000000000002c .LBE109
/var/folders/xk/fjkh8m297bb3lq7fwx2mh0vh0000gq/T//cch8KZiZ.s:5189   .text.rgblight_task:000000000000002c .LBB142
/var/folders/xk/fjkh8m297bb3lq7fwx2mh0vh0000gq/T//cch8KZiZ.s:5336   .text.rgblight_task:00000000000000e6 .LBE142
/var/folders/xk/fjkh8m297bb3lq7fwx2mh0vh0000gq/T//cch8KZiZ.s:5347   .text.rgblight_task:00000000000000f4 .LBB143
/var/folders/xk/fjkh8m297bb3lq7fwx2mh0vh0000gq/T//cch8KZiZ.s:5359   .text.rgblight_task:00000000000000f8 .LBE143
/var/folders/xk/fjkh8m297bb3lq7fwx2mh0vh0000gq/T//cch8KZiZ.s:5361   .text.rgblight_task:00000000000000f8 .LBB144
/var/folders/xk/fjkh8m297bb3lq7fwx2mh0vh0000gq/T//cch8KZiZ.s:5410   .text.rgblight_task:000000000000010e .LBE144
/var/folders/xk/fjkh8m297bb3lq7fwx2mh0vh0000gq/T//cch8KZiZ.s:5412   .text.rgblight_task:000000000000010e .LBB145
/var/folders/xk/fjkh8m297bb3lq7fwx2mh0vh0000gq/T//cch8KZiZ.s:5463   .text.rgblight_task:0000000000000126 .LBE145
/var/folders/xk/fjkh8m297bb3lq7fwx2mh0vh0000gq/T//cch8KZiZ.s:5465   .text.rgblight_task:0000000000000126 .LBB146
/var/folders/xk/fjkh8m297bb3lq7fwx2mh0vh0000gq/T//cch8KZiZ.s:5516   .text.rgblight_task:000000000000013e .LBE146
/var/folders/xk/fjkh8m297bb3lq7fwx2mh0vh0000gq/T//cch8KZiZ.s:5518   .text.rgblight_task:000000000000013e .LBB147
/var/folders/xk/fjkh8m297bb3lq7fwx2mh0vh0000gq/T//cch8KZiZ.s:5628   .text.rgblight_task:000000000000018c .LBE147
/var/folders/xk/fjkh8m297bb3lq7fwx2mh0vh0000gq/T//cch8KZiZ.s:5630   .text.rgblight_task:000000000000018c .LBB148
/var/folders/xk/fjkh8m297bb3lq7fwx2mh0vh0000gq/T//cch8KZiZ.s:5672   .text.rgblight_task:00000000000001a8 .LBE148
/var/folders/xk/fjkh8m297bb3lq7fwx2mh0vh0000gq/T//cch8KZiZ.s:5182   .text.rgblight_task:000000000000002c .LBB110
/var/folders/xk/fjkh8m297bb3lq7fwx2mh0vh0000gq/T//cch8KZiZ.s:5186   .text.rgblight_task:000000000000002c .LBE110
/var/folders/xk/fjkh8m297bb3lq7fwx2mh0vh0000gq/T//cch8KZiZ.s:5190   .text.rgblight_task:000000000000002c .LBB113
/var/folders/xk/fjkh8m297bb3lq7fwx2mh0vh0000gq/T//cch8KZiZ.s:5196   .text.rgblight_task:000000000000002c .LBE113
/var/folders/xk/fjkh8m297bb3lq7fwx2mh0vh0000gq/T//cch8KZiZ.s:5202   .text.rgblight_task:0000000000000032 .LBB114
/var/folders/xk/fjkh8m297bb3lq7fwx2mh0vh0000gq/T//cch8KZiZ.s:5215   .text.rgblight_task:0000000000000034 .LBE114
/var/folders/xk/fjkh8m297bb3lq7fwx2mh0vh0000gq/T//cch8KZiZ.s:5354   .text.rgblight_task:00000000000000f8 .LBB116
/var/folders/xk/fjkh8m297bb3lq7fwx2mh0vh0000gq/T//cch8KZiZ.s:5358   .text.rgblight_task:00000000000000f8 .LBE116
/var/folders/xk/fjkh8m297bb3lq7fwx2mh0vh0000gq/T//cch8KZiZ.s:5362   .text.rgblight_task:00000000000000f8 .LBB119
/var/folders/xk/fjkh8m297bb3lq7fwx2mh0vh0000gq/T//cch8KZiZ.s:5368   .text.rgblight_task:00000000000000f8 .LBE119
/var/folders/xk/fjkh8m297bb3lq7fwx2mh0vh0000gq/T//cch8KZiZ.s:5374   .text.rgblight_task:00000000000000fe .LBB120
/var/folders/xk/fjkh8m297bb3lq7fwx2mh0vh0000gq/T//cch8KZiZ.s:5387   .text.rgblight_task:0000000000000100 .LBE120
/var/folders/xk/fjkh8m297bb3lq7fwx2mh0vh0000gq/T//cch8KZiZ.s:5405   .text.rgblight_task:000000000000010e .LBB121
/var/folders/xk/fjkh8m297bb3lq7fwx2mh0vh0000gq/T//cch8KZiZ.s:5409   .text.rgblight_task:000000000000010e .LBE121
/var/folders/xk/fjkh8m297bb3lq7fwx2mh0vh0000gq/T//cch8KZiZ.s:5413   .text.rgblight_task:000000000000010e .LBB124
/var/folders/xk/fjkh8m297bb3lq7fwx2mh0vh0000gq/T//cch8KZiZ.s:5419   .text.rgblight_task:000000000000010e .LBE124
/var/folders/xk/fjkh8m297bb3lq7fwx2mh0vh0000gq/T//cch8KZiZ.s:5427   .text.rgblight_task:0000000000000116 .LBB125
/var/folders/xk/fjkh8m297bb3lq7fwx2mh0vh0000gq/T//cch8KZiZ.s:5440   .text.rgblight_task:0000000000000118 .LBE125
/var/folders/xk/fjkh8m297bb3lq7fwx2mh0vh0000gq/T//cch8KZiZ.s:5458   .text.rgblight_task:0000000000000126 .LBB126
/var/folders/xk/fjkh8m297bb3lq7fwx2mh0vh0000gq/T//cch8KZiZ.s:5462   .text.rgblight_task:0000000000000126 .LBE126
/var/folders/xk/fjkh8m297bb3lq7fwx2mh0vh0000gq/T//cch8KZiZ.s:5466   .text.rgblight_task:0000000000000126 .LBB129
/var/folders/xk/fjkh8m297bb3lq7fwx2mh0vh0000gq/T//cch8KZiZ.s:5472   .text.rgblight_task:0000000000000126 .LBE129
/var/folders/xk/fjkh8m297bb3lq7fwx2mh0vh0000gq/T//cch8KZiZ.s:5480   .text.rgblight_task:000000000000012e .LBB130
/var/folders/xk/fjkh8m297bb3lq7fwx2mh0vh0000gq/T//cch8KZiZ.s:5493   .text.rgblight_task:0000000000000130 .LBE130
/var/folders/xk/fjkh8m297bb3lq7fwx2mh0vh0000gq/T//cch8KZiZ.s:5511   .text.rgblight_task:000000000000013e .LBB131
/var/folders/xk/fjkh8m297bb3lq7fwx2mh0vh0000gq/T//cch8KZiZ.s:5515   .text.rgblight_task:000000000000013e .LBE131
/var/folders/xk/fjkh8m297bb3lq7fwx2mh0vh0000gq/T//cch8KZiZ.s:5519   .text.rgblight_task:000000000000013e .LBB134
/var/folders/xk/fjkh8m297bb3lq7fwx2mh0vh0000gq/T//cch8KZiZ.s:5525   .text.rgblight_task:000000000000013e .LBE134
/var/folders/xk/fjkh8m297bb3lq7fwx2mh0vh0000gq/T//cch8KZiZ.s:5531   .text.rgblight_task:0000000000000144 .LBB135
/var/folders/xk/fjkh8m297bb3lq7fwx2mh0vh0000gq/T//cch8KZiZ.s:5544   .text.rgblight_task:0000000000000146 .LBE135
/var/folders/xk/fjkh8m297bb3lq7fwx2mh0vh0000gq/T//cch8KZiZ.s:5623   .text.rgblight_task:000000000000018c .LBB137
/var/folders/xk/fjkh8m297bb3lq7fwx2mh0vh0000gq/T//cch8KZiZ.s:5627   .text.rgblight_task:000000000000018c .LBE137
/var/folders/xk/fjkh8m297bb3lq7fwx2mh0vh0000gq/T//cch8KZiZ.s:5631   .text.rgblight_task:000000000000018c .LBB140
/var/folders/xk/fjkh8m297bb3lq7fwx2mh0vh0000gq/T//cch8KZiZ.s:5637   .text.rgblight_task:000000000000018c .LBE140
/var/folders/xk/fjkh8m297bb3lq7fwx2mh0vh0000gq/T//cch8KZiZ.s:5649   .text.rgblight_task:000000000000019c .LBB141
/var/folders/xk/fjkh8m297bb3lq7fwx2mh0vh0000gq/T//cch8KZiZ.s:5662   .text.rgblight_task:000000000000019e .LBE141

UNDEFINED SYMBOLS
hsv_to_rgb
eeprom_read_dword
eeprom_update_dword
ws2812_setleds
__divmodhi4
__udivmodhi4
__divmodqi4
__umulhisi3
__muluhisi3
__mulhisi3
__mulshisi3
__udivmodsi4
rand
memchr
timer_read
eeconfig_is_enabled
eeconfig_init
timer_elapsed
__udivmodqi4
__do_copy_data
__do_clear_bss
