   1               		.file	"rgblight.c"
   2               	__SP_H__ = 0x3e
   3               	__SP_L__ = 0x3d
   4               	__SREG__ = 0x3f
   5               	__tmp_reg__ = 0
   6               	__zero_reg__ = 1
   7               		.text
   8               	.Ltext0:
   9               		.cfi_sections	.debug_frame
  10               		.section	.text.rgblight_effect_dummy,"ax",@progbits
  12               	rgblight_effect_dummy:
  13               	.LVL0:
  14               	.LFB171:
  15               		.file 1 "quantum/rgblight.c"
   1:quantum/rgblight.c **** /* Copyright 2016-2017 Yang Liu
   2:quantum/rgblight.c ****  *
   3:quantum/rgblight.c ****  * This program is free software: you can redistribute it and/or modify
   4:quantum/rgblight.c ****  * it under the terms of the GNU General Public License as published by
   5:quantum/rgblight.c ****  * the Free Software Foundation, either version 2 of the License, or
   6:quantum/rgblight.c ****  * (at your option) any later version.
   7:quantum/rgblight.c ****  *
   8:quantum/rgblight.c ****  * This program is distributed in the hope that it will be useful,
   9:quantum/rgblight.c ****  * but WITHOUT ANY WARRANTY; without even the implied warranty of
  10:quantum/rgblight.c ****  * MERCHANTABILITY or FITNESS FOR A PARTICULAR PURPOSE.  See the
  11:quantum/rgblight.c ****  * GNU General Public License for more details.
  12:quantum/rgblight.c ****  *
  13:quantum/rgblight.c ****  * You should have received a copy of the GNU General Public License
  14:quantum/rgblight.c ****  * along with this program.  If not, see <http://www.gnu.org/licenses/>.
  15:quantum/rgblight.c ****  */
  16:quantum/rgblight.c **** #include <math.h>
  17:quantum/rgblight.c **** #include <string.h>
  18:quantum/rgblight.c **** #include <stdlib.h>
  19:quantum/rgblight.c **** #ifdef __AVR__
  20:quantum/rgblight.c **** #    include <avr/eeprom.h>
  21:quantum/rgblight.c **** #    include <avr/interrupt.h>
  22:quantum/rgblight.c **** #endif
  23:quantum/rgblight.c **** #ifdef EEPROM_ENABLE
  24:quantum/rgblight.c **** #    include "eeprom.h"
  25:quantum/rgblight.c **** #endif
  26:quantum/rgblight.c **** #ifdef STM32_EEPROM_ENABLE
  27:quantum/rgblight.c **** #    include "hal.h"
  28:quantum/rgblight.c **** #    include "eeprom_stm32.h"
  29:quantum/rgblight.c **** #endif
  30:quantum/rgblight.c **** #include "wait.h"
  31:quantum/rgblight.c **** #include "progmem.h"
  32:quantum/rgblight.c **** #include "timer.h"
  33:quantum/rgblight.c **** #include "rgblight.h"
  34:quantum/rgblight.c **** #include "color.h"
  35:quantum/rgblight.c **** #include "debug.h"
  36:quantum/rgblight.c **** #include "led_tables.h"
  37:quantum/rgblight.c **** #include "lib/lib8tion/lib8tion.h"
  38:quantum/rgblight.c **** #ifdef VELOCIKEY_ENABLE
  39:quantum/rgblight.c **** #    include "velocikey.h"
  40:quantum/rgblight.c **** #endif
  41:quantum/rgblight.c **** 
  42:quantum/rgblight.c **** #ifndef MIN
  43:quantum/rgblight.c **** #    define MIN(a, b) (((a) < (b)) ? (a) : (b))
  44:quantum/rgblight.c **** #endif
  45:quantum/rgblight.c **** 
  46:quantum/rgblight.c **** #ifdef RGBLIGHT_SPLIT
  47:quantum/rgblight.c **** /* for split keyboard */
  48:quantum/rgblight.c **** #    define RGBLIGHT_SPLIT_SET_CHANGE_MODE rgblight_status.change_flags |= RGBLIGHT_STATUS_CHANGE_M
  49:quantum/rgblight.c **** #    define RGBLIGHT_SPLIT_SET_CHANGE_HSVS rgblight_status.change_flags |= RGBLIGHT_STATUS_CHANGE_H
  50:quantum/rgblight.c **** #    define RGBLIGHT_SPLIT_SET_CHANGE_MODEHSVS rgblight_status.change_flags |= (RGBLIGHT_STATUS_CHA
  51:quantum/rgblight.c **** #    define RGBLIGHT_SPLIT_SET_CHANGE_LAYERS rgblight_status.change_flags |= RGBLIGHT_STATUS_CHANGE
  52:quantum/rgblight.c **** #    define RGBLIGHT_SPLIT_SET_CHANGE_TIMER_ENABLE rgblight_status.change_flags |= RGBLIGHT_STATUS_
  53:quantum/rgblight.c **** #    define RGBLIGHT_SPLIT_ANIMATION_TICK rgblight_status.change_flags |= RGBLIGHT_STATUS_ANIMATION
  54:quantum/rgblight.c **** #else
  55:quantum/rgblight.c **** #    define RGBLIGHT_SPLIT_SET_CHANGE_MODE
  56:quantum/rgblight.c **** #    define RGBLIGHT_SPLIT_SET_CHANGE_HSVS
  57:quantum/rgblight.c **** #    define RGBLIGHT_SPLIT_SET_CHANGE_MODEHSVS
  58:quantum/rgblight.c **** #    define RGBLIGHT_SPLIT_SET_CHANGE_LAYERS
  59:quantum/rgblight.c **** #    define RGBLIGHT_SPLIT_SET_CHANGE_TIMER_ENABLE
  60:quantum/rgblight.c **** #    define RGBLIGHT_SPLIT_ANIMATION_TICK
  61:quantum/rgblight.c **** #endif
  62:quantum/rgblight.c **** 
  63:quantum/rgblight.c **** #define _RGBM_SINGLE_STATIC(sym) RGBLIGHT_MODE_##sym,
  64:quantum/rgblight.c **** #define _RGBM_SINGLE_DYNAMIC(sym)
  65:quantum/rgblight.c **** #define _RGBM_MULTI_STATIC(sym) RGBLIGHT_MODE_##sym,
  66:quantum/rgblight.c **** #define _RGBM_MULTI_DYNAMIC(sym)
  67:quantum/rgblight.c **** #define _RGBM_TMP_STATIC(sym, msym) RGBLIGHT_MODE_##sym,
  68:quantum/rgblight.c **** #define _RGBM_TMP_DYNAMIC(sym, msym)
  69:quantum/rgblight.c **** static uint8_t static_effect_table[] = {
  70:quantum/rgblight.c **** #include "rgblight_modes.h"
  71:quantum/rgblight.c **** };
  72:quantum/rgblight.c **** 
  73:quantum/rgblight.c **** #define _RGBM_SINGLE_STATIC(sym) RGBLIGHT_MODE_##sym,
  74:quantum/rgblight.c **** #define _RGBM_SINGLE_DYNAMIC(sym) RGBLIGHT_MODE_##sym,
  75:quantum/rgblight.c **** #define _RGBM_MULTI_STATIC(sym) RGBLIGHT_MODE_##sym,
  76:quantum/rgblight.c **** #define _RGBM_MULTI_DYNAMIC(sym) RGBLIGHT_MODE_##sym,
  77:quantum/rgblight.c **** #define _RGBM_TMP_STATIC(sym, msym) RGBLIGHT_MODE_##msym,
  78:quantum/rgblight.c **** #define _RGBM_TMP_DYNAMIC(sym, msym) RGBLIGHT_MODE_##msym,
  79:quantum/rgblight.c **** static uint8_t mode_base_table[] = {
  80:quantum/rgblight.c ****     0,  // RGBLIGHT_MODE_zero
  81:quantum/rgblight.c **** #include "rgblight_modes.h"
  82:quantum/rgblight.c **** };
  83:quantum/rgblight.c **** 
  84:quantum/rgblight.c **** static inline int is_static_effect(uint8_t mode) { return memchr(static_effect_table, mode, sizeof(
  85:quantum/rgblight.c **** 
  86:quantum/rgblight.c **** #ifdef RGBLIGHT_LED_MAP
  87:quantum/rgblight.c **** const uint8_t led_map[] PROGMEM = RGBLIGHT_LED_MAP;
  88:quantum/rgblight.c **** #endif
  89:quantum/rgblight.c **** 
  90:quantum/rgblight.c **** #ifdef RGBLIGHT_EFFECT_STATIC_GRADIENT
  91:quantum/rgblight.c **** __attribute__((weak)) const uint8_t RGBLED_GRADIENT_RANGES[] PROGMEM = {255, 170, 127, 85, 64};
  92:quantum/rgblight.c **** #endif
  93:quantum/rgblight.c **** 
  94:quantum/rgblight.c **** rgblight_config_t rgblight_config;
  95:quantum/rgblight.c **** rgblight_status_t rgblight_status         = {.timer_enabled = false};
  96:quantum/rgblight.c **** bool              is_rgblight_initialized = false;
  97:quantum/rgblight.c **** 
  98:quantum/rgblight.c **** #ifdef RGBLIGHT_USE_TIMER
  99:quantum/rgblight.c **** animation_status_t animation_status = {};
 100:quantum/rgblight.c **** #endif
 101:quantum/rgblight.c **** 
 102:quantum/rgblight.c **** #ifndef LED_ARRAY
 103:quantum/rgblight.c **** LED_TYPE led[RGBLED_NUM];
 104:quantum/rgblight.c **** #    define LED_ARRAY led
 105:quantum/rgblight.c **** #endif
 106:quantum/rgblight.c **** 
 107:quantum/rgblight.c **** #ifdef RGBLIGHT_LAYERS
 108:quantum/rgblight.c **** rgblight_segment_t const *const *rgblight_layers = NULL;
 109:quantum/rgblight.c **** #endif
 110:quantum/rgblight.c **** 
 111:quantum/rgblight.c **** rgblight_ranges_t rgblight_ranges = {0, RGBLED_NUM, 0, RGBLED_NUM, RGBLED_NUM};
 112:quantum/rgblight.c **** 
 113:quantum/rgblight.c **** void rgblight_set_clipping_range(uint8_t start_pos, uint8_t num_leds) {
 114:quantum/rgblight.c ****     rgblight_ranges.clipping_start_pos = start_pos;
 115:quantum/rgblight.c ****     rgblight_ranges.clipping_num_leds  = num_leds;
 116:quantum/rgblight.c **** }
 117:quantum/rgblight.c **** 
 118:quantum/rgblight.c **** void rgblight_set_effect_range(uint8_t start_pos, uint8_t num_leds) {
 119:quantum/rgblight.c ****     if (start_pos >= RGBLED_NUM) return;
 120:quantum/rgblight.c ****     if (start_pos + num_leds > RGBLED_NUM) return;
 121:quantum/rgblight.c ****     rgblight_ranges.effect_start_pos = start_pos;
 122:quantum/rgblight.c ****     rgblight_ranges.effect_end_pos   = start_pos + num_leds;
 123:quantum/rgblight.c ****     rgblight_ranges.effect_num_leds  = num_leds;
 124:quantum/rgblight.c **** }
 125:quantum/rgblight.c **** 
 126:quantum/rgblight.c **** __attribute__((weak)) RGB rgblight_hsv_to_rgb(HSV hsv) { return hsv_to_rgb(hsv); }
 127:quantum/rgblight.c **** 
 128:quantum/rgblight.c **** void sethsv_raw(uint8_t hue, uint8_t sat, uint8_t val, LED_TYPE *led1) {
 129:quantum/rgblight.c ****     HSV hsv = {hue, sat, val};
 130:quantum/rgblight.c ****     RGB rgb = rgblight_hsv_to_rgb(hsv);
 131:quantum/rgblight.c ****     setrgb(rgb.r, rgb.g, rgb.b, led1);
 132:quantum/rgblight.c **** }
 133:quantum/rgblight.c **** 
 134:quantum/rgblight.c **** void sethsv(uint8_t hue, uint8_t sat, uint8_t val, LED_TYPE *led1) { sethsv_raw(hue, sat, val > RGB
 135:quantum/rgblight.c **** 
 136:quantum/rgblight.c **** void setrgb(uint8_t r, uint8_t g, uint8_t b, LED_TYPE *led1) {
 137:quantum/rgblight.c ****     led1->r = r;
 138:quantum/rgblight.c ****     led1->g = g;
 139:quantum/rgblight.c ****     led1->b = b;
 140:quantum/rgblight.c **** #ifdef RGBW
 141:quantum/rgblight.c ****     led1->w = 0;
 142:quantum/rgblight.c **** #endif
 143:quantum/rgblight.c **** }
 144:quantum/rgblight.c **** 
 145:quantum/rgblight.c **** void rgblight_check_config(void) {
 146:quantum/rgblight.c ****     /* Add some out of bound checks for RGB light config */
 147:quantum/rgblight.c **** 
 148:quantum/rgblight.c ****     if (rgblight_config.mode < RGBLIGHT_MODE_STATIC_LIGHT) {
 149:quantum/rgblight.c ****         rgblight_config.mode = RGBLIGHT_MODE_STATIC_LIGHT;
 150:quantum/rgblight.c ****     } else if (rgblight_config.mode > RGBLIGHT_MODES) {
 151:quantum/rgblight.c ****         rgblight_config.mode = RGBLIGHT_MODES;
 152:quantum/rgblight.c ****     }
 153:quantum/rgblight.c **** 
 154:quantum/rgblight.c ****     if (rgblight_config.val > RGBLIGHT_LIMIT_VAL) {
 155:quantum/rgblight.c ****         rgblight_config.val = RGBLIGHT_LIMIT_VAL;
 156:quantum/rgblight.c ****     }
 157:quantum/rgblight.c **** }
 158:quantum/rgblight.c **** 
 159:quantum/rgblight.c **** uint32_t eeconfig_read_rgblight(void) {
 160:quantum/rgblight.c **** #ifdef EEPROM_ENABLE
 161:quantum/rgblight.c ****     return eeprom_read_dword(EECONFIG_RGBLIGHT);
 162:quantum/rgblight.c **** #else
 163:quantum/rgblight.c ****     return 0;
 164:quantum/rgblight.c **** #endif
 165:quantum/rgblight.c **** }
 166:quantum/rgblight.c **** 
 167:quantum/rgblight.c **** void eeconfig_update_rgblight(uint32_t val) {
 168:quantum/rgblight.c **** #ifdef EEPROM_ENABLE
 169:quantum/rgblight.c ****     rgblight_check_config();
 170:quantum/rgblight.c ****     eeprom_update_dword(EECONFIG_RGBLIGHT, val);
 171:quantum/rgblight.c **** #endif
 172:quantum/rgblight.c **** }
 173:quantum/rgblight.c **** 
 174:quantum/rgblight.c **** void eeconfig_update_rgblight_current(void) { eeconfig_update_rgblight(rgblight_config.raw); }
 175:quantum/rgblight.c **** 
 176:quantum/rgblight.c **** void eeconfig_update_rgblight_default(void) {
 177:quantum/rgblight.c ****     rgblight_config.enable = 1;
 178:quantum/rgblight.c ****     rgblight_config.mode   = RGBLIGHT_MODE_STATIC_LIGHT;
 179:quantum/rgblight.c ****     rgblight_config.hue    = 0;
 180:quantum/rgblight.c ****     rgblight_config.sat    = UINT8_MAX;
 181:quantum/rgblight.c ****     rgblight_config.val    = RGBLIGHT_LIMIT_VAL;
 182:quantum/rgblight.c ****     rgblight_config.speed  = 0;
 183:quantum/rgblight.c ****     RGBLIGHT_SPLIT_SET_CHANGE_MODEHSVS;
 184:quantum/rgblight.c ****     eeconfig_update_rgblight(rgblight_config.raw);
 185:quantum/rgblight.c **** }
 186:quantum/rgblight.c **** 
 187:quantum/rgblight.c **** void eeconfig_debug_rgblight(void) {
 188:quantum/rgblight.c ****     dprintf("rgblight_config EEPROM:\n");
 189:quantum/rgblight.c ****     dprintf("rgblight_config.enable = %d\n", rgblight_config.enable);
 190:quantum/rgblight.c ****     dprintf("rghlight_config.mode = %d\n", rgblight_config.mode);
 191:quantum/rgblight.c ****     dprintf("rgblight_config.hue = %d\n", rgblight_config.hue);
 192:quantum/rgblight.c ****     dprintf("rgblight_config.sat = %d\n", rgblight_config.sat);
 193:quantum/rgblight.c ****     dprintf("rgblight_config.val = %d\n", rgblight_config.val);
 194:quantum/rgblight.c ****     dprintf("rgblight_config.speed = %d\n", rgblight_config.speed);
 195:quantum/rgblight.c **** }
 196:quantum/rgblight.c **** 
 197:quantum/rgblight.c **** void rgblight_init(void) {
 198:quantum/rgblight.c ****     /* if already initialized, don't do it again.
 199:quantum/rgblight.c ****        If you must do it again, extern this and set to false, first.
 200:quantum/rgblight.c ****        This is a dirty, dirty hack until proper hooks can be added for keyboard startup. */
 201:quantum/rgblight.c ****     if (is_rgblight_initialized) {
 202:quantum/rgblight.c ****         return;
 203:quantum/rgblight.c ****     }
 204:quantum/rgblight.c **** 
 205:quantum/rgblight.c ****     dprintf("rgblight_init called.\n");
 206:quantum/rgblight.c ****     dprintf("rgblight_init start!\n");
 207:quantum/rgblight.c ****     if (!eeconfig_is_enabled()) {
 208:quantum/rgblight.c ****         dprintf("rgblight_init eeconfig is not enabled.\n");
 209:quantum/rgblight.c ****         eeconfig_init();
 210:quantum/rgblight.c ****         eeconfig_update_rgblight_default();
 211:quantum/rgblight.c ****     }
 212:quantum/rgblight.c ****     rgblight_config.raw = eeconfig_read_rgblight();
 213:quantum/rgblight.c ****     RGBLIGHT_SPLIT_SET_CHANGE_MODEHSVS;
 214:quantum/rgblight.c ****     if (!rgblight_config.mode) {
 215:quantum/rgblight.c ****         dprintf("rgblight_init rgblight_config.mode = 0. Write default values to EEPROM.\n");
 216:quantum/rgblight.c ****         eeconfig_update_rgblight_default();
 217:quantum/rgblight.c ****         rgblight_config.raw = eeconfig_read_rgblight();
 218:quantum/rgblight.c ****     }
 219:quantum/rgblight.c ****     rgblight_check_config();
 220:quantum/rgblight.c **** 
 221:quantum/rgblight.c ****     eeconfig_debug_rgblight();  // display current eeprom values
 222:quantum/rgblight.c **** 
 223:quantum/rgblight.c ****     rgblight_timer_init();  // setup the timer
 224:quantum/rgblight.c **** 
 225:quantum/rgblight.c ****     if (rgblight_config.enable) {
 226:quantum/rgblight.c ****         rgblight_mode_noeeprom(rgblight_config.mode);
 227:quantum/rgblight.c ****     }
 228:quantum/rgblight.c **** 
 229:quantum/rgblight.c ****     is_rgblight_initialized = true;
 230:quantum/rgblight.c **** }
 231:quantum/rgblight.c **** 
 232:quantum/rgblight.c **** uint32_t rgblight_read_dword(void) { return rgblight_config.raw; }
 233:quantum/rgblight.c **** 
 234:quantum/rgblight.c **** void rgblight_update_dword(uint32_t dword) {
 235:quantum/rgblight.c ****     RGBLIGHT_SPLIT_SET_CHANGE_MODEHSVS;
 236:quantum/rgblight.c ****     rgblight_config.raw = dword;
 237:quantum/rgblight.c ****     if (rgblight_config.enable)
 238:quantum/rgblight.c ****         rgblight_mode_noeeprom(rgblight_config.mode);
 239:quantum/rgblight.c ****     else {
 240:quantum/rgblight.c ****         rgblight_timer_disable();
 241:quantum/rgblight.c ****         rgblight_set();
 242:quantum/rgblight.c ****     }
 243:quantum/rgblight.c **** }
 244:quantum/rgblight.c **** 
 245:quantum/rgblight.c **** void rgblight_increase(void) {
 246:quantum/rgblight.c ****     uint8_t mode = 0;
 247:quantum/rgblight.c ****     if (rgblight_config.mode < RGBLIGHT_MODES) {
 248:quantum/rgblight.c ****         mode = rgblight_config.mode + 1;
 249:quantum/rgblight.c ****     }
 250:quantum/rgblight.c ****     rgblight_mode(mode);
 251:quantum/rgblight.c **** }
 252:quantum/rgblight.c **** void rgblight_decrease(void) {
 253:quantum/rgblight.c ****     uint8_t mode = 0;
 254:quantum/rgblight.c ****     // Mode will never be < 1. If it ever is, eeprom needs to be initialized.
 255:quantum/rgblight.c ****     if (rgblight_config.mode > RGBLIGHT_MODE_STATIC_LIGHT) {
 256:quantum/rgblight.c ****         mode = rgblight_config.mode - 1;
 257:quantum/rgblight.c ****     }
 258:quantum/rgblight.c ****     rgblight_mode(mode);
 259:quantum/rgblight.c **** }
 260:quantum/rgblight.c **** void rgblight_step_helper(bool write_to_eeprom) {
 261:quantum/rgblight.c ****     uint8_t mode = 0;
 262:quantum/rgblight.c ****     mode         = rgblight_config.mode + 1;
 263:quantum/rgblight.c ****     if (mode > RGBLIGHT_MODES) {
 264:quantum/rgblight.c ****         mode = 1;
 265:quantum/rgblight.c ****     }
 266:quantum/rgblight.c ****     rgblight_mode_eeprom_helper(mode, write_to_eeprom);
 267:quantum/rgblight.c **** }
 268:quantum/rgblight.c **** void rgblight_step_noeeprom(void) { rgblight_step_helper(false); }
 269:quantum/rgblight.c **** void rgblight_step(void) { rgblight_step_helper(true); }
 270:quantum/rgblight.c **** void rgblight_step_reverse_helper(bool write_to_eeprom) {
 271:quantum/rgblight.c ****     uint8_t mode = 0;
 272:quantum/rgblight.c ****     mode         = rgblight_config.mode - 1;
 273:quantum/rgblight.c ****     if (mode < 1) {
 274:quantum/rgblight.c ****         mode = RGBLIGHT_MODES;
 275:quantum/rgblight.c ****     }
 276:quantum/rgblight.c ****     rgblight_mode_eeprom_helper(mode, write_to_eeprom);
 277:quantum/rgblight.c **** }
 278:quantum/rgblight.c **** void rgblight_step_reverse_noeeprom(void) { rgblight_step_reverse_helper(false); }
 279:quantum/rgblight.c **** void rgblight_step_reverse(void) { rgblight_step_reverse_helper(true); }
 280:quantum/rgblight.c **** 
 281:quantum/rgblight.c **** uint8_t rgblight_get_mode(void) {
 282:quantum/rgblight.c ****     if (!rgblight_config.enable) {
 283:quantum/rgblight.c ****         return false;
 284:quantum/rgblight.c ****     }
 285:quantum/rgblight.c **** 
 286:quantum/rgblight.c ****     return rgblight_config.mode;
 287:quantum/rgblight.c **** }
 288:quantum/rgblight.c **** 
 289:quantum/rgblight.c **** void rgblight_mode_eeprom_helper(uint8_t mode, bool write_to_eeprom) {
 290:quantum/rgblight.c ****     if (!rgblight_config.enable) {
 291:quantum/rgblight.c ****         return;
 292:quantum/rgblight.c ****     }
 293:quantum/rgblight.c ****     if (mode < RGBLIGHT_MODE_STATIC_LIGHT) {
 294:quantum/rgblight.c ****         rgblight_config.mode = RGBLIGHT_MODE_STATIC_LIGHT;
 295:quantum/rgblight.c ****     } else if (mode > RGBLIGHT_MODES) {
 296:quantum/rgblight.c ****         rgblight_config.mode = RGBLIGHT_MODES;
 297:quantum/rgblight.c ****     } else {
 298:quantum/rgblight.c ****         rgblight_config.mode = mode;
 299:quantum/rgblight.c ****     }
 300:quantum/rgblight.c ****     RGBLIGHT_SPLIT_SET_CHANGE_MODE;
 301:quantum/rgblight.c ****     if (write_to_eeprom) {
 302:quantum/rgblight.c ****         eeconfig_update_rgblight(rgblight_config.raw);
 303:quantum/rgblight.c ****         dprintf("rgblight mode [EEPROM]: %u\n", rgblight_config.mode);
 304:quantum/rgblight.c ****     } else {
 305:quantum/rgblight.c ****         dprintf("rgblight mode [NOEEPROM]: %u\n", rgblight_config.mode);
 306:quantum/rgblight.c ****     }
 307:quantum/rgblight.c ****     if (is_static_effect(rgblight_config.mode)) {
 308:quantum/rgblight.c ****         rgblight_timer_disable();
 309:quantum/rgblight.c ****     } else {
 310:quantum/rgblight.c ****         rgblight_timer_enable();
 311:quantum/rgblight.c ****     }
 312:quantum/rgblight.c **** #ifdef RGBLIGHT_USE_TIMER
 313:quantum/rgblight.c ****     animation_status.restart = true;
 314:quantum/rgblight.c **** #endif
 315:quantum/rgblight.c ****     rgblight_sethsv_noeeprom(rgblight_config.hue, rgblight_config.sat, rgblight_config.val);
 316:quantum/rgblight.c **** }
 317:quantum/rgblight.c **** 
 318:quantum/rgblight.c **** void rgblight_mode(uint8_t mode) { rgblight_mode_eeprom_helper(mode, true); }
 319:quantum/rgblight.c **** 
 320:quantum/rgblight.c **** void rgblight_mode_noeeprom(uint8_t mode) { rgblight_mode_eeprom_helper(mode, false); }
 321:quantum/rgblight.c **** 
 322:quantum/rgblight.c **** void rgblight_toggle(void) {
 323:quantum/rgblight.c ****     dprintf("rgblight toggle [EEPROM]: rgblight_config.enable = %u\n", !rgblight_config.enable);
 324:quantum/rgblight.c ****     if (rgblight_config.enable) {
 325:quantum/rgblight.c ****         rgblight_disable();
 326:quantum/rgblight.c ****     } else {
 327:quantum/rgblight.c ****         rgblight_enable();
 328:quantum/rgblight.c ****     }
 329:quantum/rgblight.c **** }
 330:quantum/rgblight.c **** 
 331:quantum/rgblight.c **** void rgblight_toggle_noeeprom(void) {
 332:quantum/rgblight.c ****     dprintf("rgblight toggle [NOEEPROM]: rgblight_config.enable = %u\n", !rgblight_config.enable);
 333:quantum/rgblight.c ****     if (rgblight_config.enable) {
 334:quantum/rgblight.c ****         rgblight_disable_noeeprom();
 335:quantum/rgblight.c ****     } else {
 336:quantum/rgblight.c ****         rgblight_enable_noeeprom();
 337:quantum/rgblight.c ****     }
 338:quantum/rgblight.c **** }
 339:quantum/rgblight.c **** 
 340:quantum/rgblight.c **** void rgblight_enable(void) {
 341:quantum/rgblight.c ****     rgblight_config.enable = 1;
 342:quantum/rgblight.c ****     // No need to update EEPROM here. rgblight_mode() will do that, actually
 343:quantum/rgblight.c ****     // eeconfig_update_rgblight(rgblight_config.raw);
 344:quantum/rgblight.c ****     dprintf("rgblight enable [EEPROM]: rgblight_config.enable = %u\n", rgblight_config.enable);
 345:quantum/rgblight.c ****     rgblight_mode(rgblight_config.mode);
 346:quantum/rgblight.c **** }
 347:quantum/rgblight.c **** 
 348:quantum/rgblight.c **** void rgblight_enable_noeeprom(void) {
 349:quantum/rgblight.c ****     rgblight_config.enable = 1;
 350:quantum/rgblight.c ****     dprintf("rgblight enable [NOEEPROM]: rgblight_config.enable = %u\n", rgblight_config.enable);
 351:quantum/rgblight.c ****     rgblight_mode_noeeprom(rgblight_config.mode);
 352:quantum/rgblight.c **** }
 353:quantum/rgblight.c **** 
 354:quantum/rgblight.c **** void rgblight_disable(void) {
 355:quantum/rgblight.c ****     rgblight_config.enable = 0;
 356:quantum/rgblight.c ****     eeconfig_update_rgblight(rgblight_config.raw);
 357:quantum/rgblight.c ****     dprintf("rgblight disable [EEPROM]: rgblight_config.enable = %u\n", rgblight_config.enable);
 358:quantum/rgblight.c ****     rgblight_timer_disable();
 359:quantum/rgblight.c ****     RGBLIGHT_SPLIT_SET_CHANGE_MODE;
 360:quantum/rgblight.c ****     wait_ms(50);
 361:quantum/rgblight.c ****     rgblight_set();
 362:quantum/rgblight.c **** }
 363:quantum/rgblight.c **** 
 364:quantum/rgblight.c **** void rgblight_disable_noeeprom(void) {
 365:quantum/rgblight.c ****     rgblight_config.enable = 0;
 366:quantum/rgblight.c ****     dprintf("rgblight disable [NOEEPROM]: rgblight_config.enable = %u\n", rgblight_config.enable);
 367:quantum/rgblight.c ****     rgblight_timer_disable();
 368:quantum/rgblight.c ****     RGBLIGHT_SPLIT_SET_CHANGE_MODE;
 369:quantum/rgblight.c ****     wait_ms(50);
 370:quantum/rgblight.c ****     rgblight_set();
 371:quantum/rgblight.c **** }
 372:quantum/rgblight.c **** 
 373:quantum/rgblight.c **** bool rgblight_is_enabled(void) { return rgblight_config.enable; }
 374:quantum/rgblight.c **** 
 375:quantum/rgblight.c **** void rgblight_increase_hue_helper(bool write_to_eeprom) {
 376:quantum/rgblight.c ****     uint8_t hue = rgblight_config.hue + RGBLIGHT_HUE_STEP;
 377:quantum/rgblight.c ****     rgblight_sethsv_eeprom_helper(hue, rgblight_config.sat, rgblight_config.val, write_to_eeprom);
 378:quantum/rgblight.c **** }
 379:quantum/rgblight.c **** void rgblight_increase_hue_noeeprom(void) { rgblight_increase_hue_helper(false); }
 380:quantum/rgblight.c **** void rgblight_increase_hue(void) { rgblight_increase_hue_helper(true); }
 381:quantum/rgblight.c **** void rgblight_decrease_hue_helper(bool write_to_eeprom) {
 382:quantum/rgblight.c ****     uint8_t hue = rgblight_config.hue - RGBLIGHT_HUE_STEP;
 383:quantum/rgblight.c ****     rgblight_sethsv_eeprom_helper(hue, rgblight_config.sat, rgblight_config.val, write_to_eeprom);
 384:quantum/rgblight.c **** }
 385:quantum/rgblight.c **** void rgblight_decrease_hue_noeeprom(void) { rgblight_decrease_hue_helper(false); }
 386:quantum/rgblight.c **** void rgblight_decrease_hue(void) { rgblight_decrease_hue_helper(true); }
 387:quantum/rgblight.c **** void rgblight_increase_sat_helper(bool write_to_eeprom) {
 388:quantum/rgblight.c ****     uint8_t sat = qadd8(rgblight_config.sat, RGBLIGHT_SAT_STEP);
 389:quantum/rgblight.c ****     rgblight_sethsv_eeprom_helper(rgblight_config.hue, sat, rgblight_config.val, write_to_eeprom);
 390:quantum/rgblight.c **** }
 391:quantum/rgblight.c **** void rgblight_increase_sat_noeeprom(void) { rgblight_increase_sat_helper(false); }
 392:quantum/rgblight.c **** void rgblight_increase_sat(void) { rgblight_increase_sat_helper(true); }
 393:quantum/rgblight.c **** void rgblight_decrease_sat_helper(bool write_to_eeprom) {
 394:quantum/rgblight.c ****     uint8_t sat = qsub8(rgblight_config.sat, RGBLIGHT_SAT_STEP);
 395:quantum/rgblight.c ****     rgblight_sethsv_eeprom_helper(rgblight_config.hue, sat, rgblight_config.val, write_to_eeprom);
 396:quantum/rgblight.c **** }
 397:quantum/rgblight.c **** void rgblight_decrease_sat_noeeprom(void) { rgblight_decrease_sat_helper(false); }
 398:quantum/rgblight.c **** void rgblight_decrease_sat(void) { rgblight_decrease_sat_helper(true); }
 399:quantum/rgblight.c **** void rgblight_increase_val_helper(bool write_to_eeprom) {
 400:quantum/rgblight.c ****     uint8_t val = qadd8(rgblight_config.val, RGBLIGHT_VAL_STEP);
 401:quantum/rgblight.c ****     rgblight_sethsv_eeprom_helper(rgblight_config.hue, rgblight_config.sat, val, write_to_eeprom);
 402:quantum/rgblight.c **** }
 403:quantum/rgblight.c **** void rgblight_increase_val_noeeprom(void) { rgblight_increase_val_helper(false); }
 404:quantum/rgblight.c **** void rgblight_increase_val(void) { rgblight_increase_val_helper(true); }
 405:quantum/rgblight.c **** void rgblight_decrease_val_helper(bool write_to_eeprom) {
 406:quantum/rgblight.c ****     uint8_t val = qsub8(rgblight_config.val, RGBLIGHT_VAL_STEP);
 407:quantum/rgblight.c ****     rgblight_sethsv_eeprom_helper(rgblight_config.hue, rgblight_config.sat, val, write_to_eeprom);
 408:quantum/rgblight.c **** }
 409:quantum/rgblight.c **** void rgblight_decrease_val_noeeprom(void) { rgblight_decrease_val_helper(false); }
 410:quantum/rgblight.c **** void rgblight_decrease_val(void) { rgblight_decrease_val_helper(true); }
 411:quantum/rgblight.c **** 
 412:quantum/rgblight.c **** void rgblight_increase_speed_helper(bool write_to_eeprom) {
 413:quantum/rgblight.c ****     if (rgblight_config.speed < 3) rgblight_config.speed++;
 414:quantum/rgblight.c ****     // RGBLIGHT_SPLIT_SET_CHANGE_HSVS; // NEED?
 415:quantum/rgblight.c ****     if (write_to_eeprom) {
 416:quantum/rgblight.c ****         eeconfig_update_rgblight(rgblight_config.raw);  // EECONFIG needs to be increased to suppor
 417:quantum/rgblight.c ****     }
 418:quantum/rgblight.c **** }
 419:quantum/rgblight.c **** void rgblight_increase_speed(void) { rgblight_increase_speed_helper(true); }
 420:quantum/rgblight.c **** void rgblight_increase_speed_noeeprom(void) { rgblight_increase_speed_helper(false); }
 421:quantum/rgblight.c **** 
 422:quantum/rgblight.c **** void rgblight_decrease_speed_helper(bool write_to_eeprom) {
 423:quantum/rgblight.c ****     if (rgblight_config.speed > 0) rgblight_config.speed--;
 424:quantum/rgblight.c ****     // RGBLIGHT_SPLIT_SET_CHANGE_HSVS; // NEED??
 425:quantum/rgblight.c ****     if (write_to_eeprom) {
 426:quantum/rgblight.c ****         eeconfig_update_rgblight(rgblight_config.raw);  // EECONFIG needs to be increased to suppor
 427:quantum/rgblight.c ****     }
 428:quantum/rgblight.c **** }
 429:quantum/rgblight.c **** void rgblight_decrease_speed(void) { rgblight_decrease_speed_helper(true); }
 430:quantum/rgblight.c **** void rgblight_decrease_speed_noeeprom(void) { rgblight_decrease_speed_helper(false); }
 431:quantum/rgblight.c **** 
 432:quantum/rgblight.c **** void rgblight_sethsv_noeeprom_old(uint8_t hue, uint8_t sat, uint8_t val) {
 433:quantum/rgblight.c ****     if (rgblight_config.enable) {
 434:quantum/rgblight.c ****         LED_TYPE tmp_led;
 435:quantum/rgblight.c ****         sethsv(hue, sat, val, &tmp_led);
 436:quantum/rgblight.c ****         rgblight_setrgb(tmp_led.r, tmp_led.g, tmp_led.b);
 437:quantum/rgblight.c ****     }
 438:quantum/rgblight.c **** }
 439:quantum/rgblight.c **** 
 440:quantum/rgblight.c **** void rgblight_sethsv_eeprom_helper(uint8_t hue, uint8_t sat, uint8_t val, bool write_to_eeprom) {
 441:quantum/rgblight.c ****     if (rgblight_config.enable) {
 442:quantum/rgblight.c ****         rgblight_status.base_mode = mode_base_table[rgblight_config.mode];
 443:quantum/rgblight.c ****         if (rgblight_config.mode == RGBLIGHT_MODE_STATIC_LIGHT) {
 444:quantum/rgblight.c ****             // same static color
 445:quantum/rgblight.c ****             LED_TYPE tmp_led;
 446:quantum/rgblight.c ****             sethsv(hue, sat, val, &tmp_led);
 447:quantum/rgblight.c ****             rgblight_setrgb(tmp_led.r, tmp_led.g, tmp_led.b);
 448:quantum/rgblight.c ****         } else {
 449:quantum/rgblight.c ****             // all LEDs in same color
 450:quantum/rgblight.c ****             if (1 == 0) {  // dummy
 451:quantum/rgblight.c ****             }
 452:quantum/rgblight.c **** #ifdef RGBLIGHT_EFFECT_BREATHING
 453:quantum/rgblight.c ****             else if (rgblight_status.base_mode == RGBLIGHT_MODE_BREATHING) {
 454:quantum/rgblight.c ****                 // breathing mode, ignore the change of val, use in memory value instead
 455:quantum/rgblight.c ****                 val = rgblight_config.val;
 456:quantum/rgblight.c ****             }
 457:quantum/rgblight.c **** #endif
 458:quantum/rgblight.c **** #ifdef RGBLIGHT_EFFECT_RAINBOW_MOOD
 459:quantum/rgblight.c ****             else if (rgblight_status.base_mode == RGBLIGHT_MODE_RAINBOW_MOOD) {
 460:quantum/rgblight.c ****                 // rainbow mood, ignore the change of hue
 461:quantum/rgblight.c ****                 hue = rgblight_config.hue;
 462:quantum/rgblight.c ****             }
 463:quantum/rgblight.c **** #endif
 464:quantum/rgblight.c **** #ifdef RGBLIGHT_EFFECT_RAINBOW_SWIRL
 465:quantum/rgblight.c ****             else if (rgblight_status.base_mode == RGBLIGHT_MODE_RAINBOW_SWIRL) {
 466:quantum/rgblight.c ****                 // rainbow swirl, ignore the change of hue
 467:quantum/rgblight.c ****                 hue = rgblight_config.hue;
 468:quantum/rgblight.c ****             }
 469:quantum/rgblight.c **** #endif
 470:quantum/rgblight.c **** #ifdef RGBLIGHT_EFFECT_STATIC_GRADIENT
 471:quantum/rgblight.c ****             else if (rgblight_status.base_mode == RGBLIGHT_MODE_STATIC_GRADIENT) {
 472:quantum/rgblight.c ****                 // static gradient
 473:quantum/rgblight.c ****                 uint8_t delta     = rgblight_config.mode - rgblight_status.base_mode;
 474:quantum/rgblight.c ****                 bool    direction = (delta % 2) == 0;
 475:quantum/rgblight.c **** #    ifdef __AVR__
 476:quantum/rgblight.c ****                 // probably due to how pgm_read_word is defined for ARM, but the ARM compiler reall
 477:quantum/rgblight.c ****                 uint8_t range = pgm_read_word(&RGBLED_GRADIENT_RANGES[delta / 2]);
 478:quantum/rgblight.c **** #    else
 479:quantum/rgblight.c ****                 uint8_t range = RGBLED_GRADIENT_RANGES[delta / 2];
 480:quantum/rgblight.c **** #    endif
 481:quantum/rgblight.c ****                 for (uint8_t i = 0; i < rgblight_ranges.effect_num_leds; i++) {
 482:quantum/rgblight.c ****                     uint8_t _hue = ((uint16_t)i * (uint16_t)range) / rgblight_ranges.effect_num_led
 483:quantum/rgblight.c ****                     if (direction) {
 484:quantum/rgblight.c ****                         _hue = hue + _hue;
 485:quantum/rgblight.c ****                     } else {
 486:quantum/rgblight.c ****                         _hue = hue - _hue;
 487:quantum/rgblight.c ****                     }
 488:quantum/rgblight.c ****                     dprintf("rgblight rainbow set hsv: %d,%d,%d,%u\n", i, _hue, direction, range);
 489:quantum/rgblight.c ****                     sethsv(_hue, sat, val, (LED_TYPE *)&led[i + rgblight_ranges.effect_start_pos]);
 490:quantum/rgblight.c ****                 }
 491:quantum/rgblight.c ****                 rgblight_set();
 492:quantum/rgblight.c ****             }
 493:quantum/rgblight.c **** #endif
 494:quantum/rgblight.c ****         }
 495:quantum/rgblight.c **** #ifdef RGBLIGHT_SPLIT
 496:quantum/rgblight.c ****         if (rgblight_config.hue != hue || rgblight_config.sat != sat || rgblight_config.val != val)
 497:quantum/rgblight.c ****             RGBLIGHT_SPLIT_SET_CHANGE_HSVS;
 498:quantum/rgblight.c ****         }
 499:quantum/rgblight.c **** #endif
 500:quantum/rgblight.c ****         rgblight_config.hue = hue;
 501:quantum/rgblight.c ****         rgblight_config.sat = sat;
 502:quantum/rgblight.c ****         rgblight_config.val = val;
 503:quantum/rgblight.c ****         if (write_to_eeprom) {
 504:quantum/rgblight.c ****             eeconfig_update_rgblight(rgblight_config.raw);
 505:quantum/rgblight.c ****             dprintf("rgblight set hsv [EEPROM]: %u,%u,%u\n", rgblight_config.hue, rgblight_config.s
 506:quantum/rgblight.c ****         } else {
 507:quantum/rgblight.c ****             dprintf("rgblight set hsv [NOEEPROM]: %u,%u,%u\n", rgblight_config.hue, rgblight_config
 508:quantum/rgblight.c ****         }
 509:quantum/rgblight.c ****     }
 510:quantum/rgblight.c **** }
 511:quantum/rgblight.c **** 
 512:quantum/rgblight.c **** void rgblight_sethsv(uint8_t hue, uint8_t sat, uint8_t val) { rgblight_sethsv_eeprom_helper(hue, sa
 513:quantum/rgblight.c **** 
 514:quantum/rgblight.c **** void rgblight_sethsv_noeeprom(uint8_t hue, uint8_t sat, uint8_t val) { rgblight_sethsv_eeprom_helpe
 515:quantum/rgblight.c **** 
 516:quantum/rgblight.c **** uint8_t rgblight_get_speed(void) { return rgblight_config.speed; }
 517:quantum/rgblight.c **** 
 518:quantum/rgblight.c **** void rgblight_set_speed_eeprom_helper(uint8_t speed, bool write_to_eeprom) {
 519:quantum/rgblight.c ****     rgblight_config.speed = speed;
 520:quantum/rgblight.c ****     if (write_to_eeprom) {
 521:quantum/rgblight.c ****         eeconfig_update_rgblight(rgblight_config.raw);  // EECONFIG needs to be increased to suppor
 522:quantum/rgblight.c ****         dprintf("rgblight set speed [EEPROM]: %u\n", rgblight_config.speed);
 523:quantum/rgblight.c ****     } else {
 524:quantum/rgblight.c ****         dprintf("rgblight set speed [NOEEPROM]: %u\n", rgblight_config.speed);
 525:quantum/rgblight.c ****     }
 526:quantum/rgblight.c **** }
 527:quantum/rgblight.c **** 
 528:quantum/rgblight.c **** void rgblight_set_speed(uint8_t speed) { rgblight_set_speed_eeprom_helper(speed, true); }
 529:quantum/rgblight.c **** 
 530:quantum/rgblight.c **** void rgblight_set_speed_noeeprom(uint8_t speed) { rgblight_set_speed_eeprom_helper(speed, false); }
 531:quantum/rgblight.c **** 
 532:quantum/rgblight.c **** uint8_t rgblight_get_hue(void) { return rgblight_config.hue; }
 533:quantum/rgblight.c **** 
 534:quantum/rgblight.c **** uint8_t rgblight_get_sat(void) { return rgblight_config.sat; }
 535:quantum/rgblight.c **** 
 536:quantum/rgblight.c **** uint8_t rgblight_get_val(void) { return rgblight_config.val; }
 537:quantum/rgblight.c **** 
 538:quantum/rgblight.c **** HSV rgblight_get_hsv(void) { return (HSV){rgblight_config.hue, rgblight_config.sat, rgblight_config
 539:quantum/rgblight.c **** 
 540:quantum/rgblight.c **** void rgblight_setrgb(uint8_t r, uint8_t g, uint8_t b) {
 541:quantum/rgblight.c ****     if (!rgblight_config.enable) {
 542:quantum/rgblight.c ****         return;
 543:quantum/rgblight.c ****     }
 544:quantum/rgblight.c **** 
 545:quantum/rgblight.c ****     for (uint8_t i = rgblight_ranges.effect_start_pos; i < rgblight_ranges.effect_end_pos; i++) {
 546:quantum/rgblight.c ****         led[i].r = r;
 547:quantum/rgblight.c ****         led[i].g = g;
 548:quantum/rgblight.c ****         led[i].b = b;
 549:quantum/rgblight.c **** #ifdef RGBW
 550:quantum/rgblight.c ****         led[i].w = 0;
 551:quantum/rgblight.c **** #endif
 552:quantum/rgblight.c ****     }
 553:quantum/rgblight.c ****     rgblight_set();
 554:quantum/rgblight.c **** }
 555:quantum/rgblight.c **** 
 556:quantum/rgblight.c **** void rgblight_setrgb_at(uint8_t r, uint8_t g, uint8_t b, uint8_t index) {
 557:quantum/rgblight.c ****     if (!rgblight_config.enable || index >= RGBLED_NUM) {
 558:quantum/rgblight.c ****         return;
 559:quantum/rgblight.c ****     }
 560:quantum/rgblight.c **** 
 561:quantum/rgblight.c ****     led[index].r = r;
 562:quantum/rgblight.c ****     led[index].g = g;
 563:quantum/rgblight.c ****     led[index].b = b;
 564:quantum/rgblight.c **** #ifdef RGBW
 565:quantum/rgblight.c ****     led[index].w = 0;
 566:quantum/rgblight.c **** #endif
 567:quantum/rgblight.c ****     rgblight_set();
 568:quantum/rgblight.c **** }
 569:quantum/rgblight.c **** 
 570:quantum/rgblight.c **** void rgblight_sethsv_at(uint8_t hue, uint8_t sat, uint8_t val, uint8_t index) {
 571:quantum/rgblight.c ****     if (!rgblight_config.enable) {
 572:quantum/rgblight.c ****         return;
 573:quantum/rgblight.c ****     }
 574:quantum/rgblight.c **** 
 575:quantum/rgblight.c ****     LED_TYPE tmp_led;
 576:quantum/rgblight.c ****     sethsv(hue, sat, val, &tmp_led);
 577:quantum/rgblight.c ****     rgblight_setrgb_at(tmp_led.r, tmp_led.g, tmp_led.b, index);
 578:quantum/rgblight.c **** }
 579:quantum/rgblight.c **** 
 580:quantum/rgblight.c **** #if defined(RGBLIGHT_EFFECT_BREATHING) || defined(RGBLIGHT_EFFECT_RAINBOW_MOOD) || defined(RGBLIGHT
 581:quantum/rgblight.c **** 
 582:quantum/rgblight.c **** static uint8_t get_interval_time(const uint8_t *default_interval_address, uint8_t velocikey_min, ui
 583:quantum/rgblight.c ****     return
 584:quantum/rgblight.c **** #    ifdef VELOCIKEY_ENABLE
 585:quantum/rgblight.c ****         velocikey_enabled() ? velocikey_match_speed(velocikey_min, velocikey_max) :
 586:quantum/rgblight.c **** #    endif
 587:quantum/rgblight.c ****                             pgm_read_byte(default_interval_address);
 588:quantum/rgblight.c **** }
 589:quantum/rgblight.c **** 
 590:quantum/rgblight.c **** #endif
 591:quantum/rgblight.c **** 
 592:quantum/rgblight.c **** void rgblight_setrgb_range(uint8_t r, uint8_t g, uint8_t b, uint8_t start, uint8_t end) {
 593:quantum/rgblight.c ****     if (!rgblight_config.enable || start < 0 || start >= end || end > RGBLED_NUM) {
 594:quantum/rgblight.c ****         return;
 595:quantum/rgblight.c ****     }
 596:quantum/rgblight.c **** 
 597:quantum/rgblight.c ****     for (uint8_t i = start; i < end; i++) {
 598:quantum/rgblight.c ****         led[i].r = r;
 599:quantum/rgblight.c ****         led[i].g = g;
 600:quantum/rgblight.c ****         led[i].b = b;
 601:quantum/rgblight.c **** #ifdef RGBW
 602:quantum/rgblight.c ****         led[i].w = 0;
 603:quantum/rgblight.c **** #endif
 604:quantum/rgblight.c ****     }
 605:quantum/rgblight.c ****     rgblight_set();
 606:quantum/rgblight.c ****     wait_ms(1);
 607:quantum/rgblight.c **** }
 608:quantum/rgblight.c **** 
 609:quantum/rgblight.c **** void rgblight_sethsv_range(uint8_t hue, uint8_t sat, uint8_t val, uint8_t start, uint8_t end) {
 610:quantum/rgblight.c ****     if (!rgblight_config.enable) {
 611:quantum/rgblight.c ****         return;
 612:quantum/rgblight.c ****     }
 613:quantum/rgblight.c **** 
 614:quantum/rgblight.c ****     LED_TYPE tmp_led;
 615:quantum/rgblight.c ****     sethsv(hue, sat, val, &tmp_led);
 616:quantum/rgblight.c ****     rgblight_setrgb_range(tmp_led.r, tmp_led.g, tmp_led.b, start, end);
 617:quantum/rgblight.c **** }
 618:quantum/rgblight.c **** 
 619:quantum/rgblight.c **** #ifndef RGBLIGHT_SPLIT
 620:quantum/rgblight.c **** void rgblight_setrgb_master(uint8_t r, uint8_t g, uint8_t b) { rgblight_setrgb_range(r, g, b, 0, (u
 621:quantum/rgblight.c **** 
 622:quantum/rgblight.c **** void rgblight_setrgb_slave(uint8_t r, uint8_t g, uint8_t b) { rgblight_setrgb_range(r, g, b, (uint8
 623:quantum/rgblight.c **** 
 624:quantum/rgblight.c **** void rgblight_sethsv_master(uint8_t hue, uint8_t sat, uint8_t val) { rgblight_sethsv_range(hue, sat
 625:quantum/rgblight.c **** 
 626:quantum/rgblight.c **** void rgblight_sethsv_slave(uint8_t hue, uint8_t sat, uint8_t val) { rgblight_sethsv_range(hue, sat,
 627:quantum/rgblight.c **** #endif  // ifndef RGBLIGHT_SPLIT
 628:quantum/rgblight.c **** 
 629:quantum/rgblight.c **** #ifdef RGBLIGHT_LAYERS
 630:quantum/rgblight.c **** void rgblight_set_layer_state(uint8_t layer, bool enabled) {
 631:quantum/rgblight.c ****     rgblight_layer_mask_t mask = 1 << layer;
 632:quantum/rgblight.c ****     if (enabled) {
 633:quantum/rgblight.c ****         rgblight_status.enabled_layer_mask |= mask;
 634:quantum/rgblight.c ****     } else {
 635:quantum/rgblight.c ****         rgblight_status.enabled_layer_mask &= ~mask;
 636:quantum/rgblight.c ****     }
 637:quantum/rgblight.c ****     RGBLIGHT_SPLIT_SET_CHANGE_LAYERS;
 638:quantum/rgblight.c ****     // Static modes don't have a ticker running to update the LEDs
 639:quantum/rgblight.c ****     if (rgblight_status.timer_enabled == false) {
 640:quantum/rgblight.c ****         rgblight_mode_noeeprom(rgblight_config.mode);
 641:quantum/rgblight.c ****     }
 642:quantum/rgblight.c **** 
 643:quantum/rgblight.c **** #    ifdef RGBLIGHT_LAYERS_OVERRIDE_RGB_OFF
 644:quantum/rgblight.c ****     // If not enabled, then nothing else will actually set the LEDs...
 645:quantum/rgblight.c ****     if (!rgblight_config.enable) {
 646:quantum/rgblight.c ****         rgblight_set();
 647:quantum/rgblight.c ****     }
 648:quantum/rgblight.c **** #    endif
 649:quantum/rgblight.c **** }
 650:quantum/rgblight.c **** 
 651:quantum/rgblight.c **** bool rgblight_get_layer_state(uint8_t layer) {
 652:quantum/rgblight.c ****     rgblight_layer_mask_t mask = 1 << layer;
 653:quantum/rgblight.c ****     return (rgblight_status.enabled_layer_mask & mask) != 0;
 654:quantum/rgblight.c **** }
 655:quantum/rgblight.c **** 
 656:quantum/rgblight.c **** // Write any enabled LED layers into the buffer
 657:quantum/rgblight.c **** static void rgblight_layers_write(void) {
 658:quantum/rgblight.c ****     uint8_t i = 0;
 659:quantum/rgblight.c ****     // For each layer
 660:quantum/rgblight.c ****     for (const rgblight_segment_t *const *layer_ptr = rgblight_layers; i < RGBLIGHT_MAX_LAYERS; lay
 661:quantum/rgblight.c ****         if (!rgblight_get_layer_state(i)) {
 662:quantum/rgblight.c ****             continue;  // Layer is disabled
 663:quantum/rgblight.c ****         }
 664:quantum/rgblight.c ****         const rgblight_segment_t *segment_ptr = pgm_read_ptr(layer_ptr);
 665:quantum/rgblight.c ****         if (segment_ptr == NULL) {
 666:quantum/rgblight.c ****             break;  // No more layers
 667:quantum/rgblight.c ****         }
 668:quantum/rgblight.c ****         // For each segment
 669:quantum/rgblight.c ****         while (1) {
 670:quantum/rgblight.c ****             rgblight_segment_t segment;
 671:quantum/rgblight.c ****             memcpy_P(&segment, segment_ptr, sizeof(rgblight_segment_t));
 672:quantum/rgblight.c ****             if (segment.index == RGBLIGHT_END_SEGMENT_INDEX) {
 673:quantum/rgblight.c ****                 break;  // No more segments
 674:quantum/rgblight.c ****             }
 675:quantum/rgblight.c ****             // Write segment.count LEDs
 676:quantum/rgblight.c ****             LED_TYPE *const limit = &led[MIN(segment.index + segment.count, RGBLED_NUM)];
 677:quantum/rgblight.c ****             for (LED_TYPE *led_ptr = &led[segment.index]; led_ptr < limit; led_ptr++) {
 678:quantum/rgblight.c ****                 sethsv(segment.hue, segment.sat, segment.val, led_ptr);
 679:quantum/rgblight.c ****             }
 680:quantum/rgblight.c ****             segment_ptr++;
 681:quantum/rgblight.c ****         }
 682:quantum/rgblight.c ****     }
 683:quantum/rgblight.c **** }
 684:quantum/rgblight.c **** 
 685:quantum/rgblight.c **** #    ifdef RGBLIGHT_LAYER_BLINK
 686:quantum/rgblight.c **** rgblight_layer_mask_t _blinked_layer_mask = 0;
 687:quantum/rgblight.c **** uint16_t              _blink_duration     = 0;
 688:quantum/rgblight.c **** static uint16_t       _blink_timer;
 689:quantum/rgblight.c **** 
 690:quantum/rgblight.c **** void rgblight_blink_layer(uint8_t layer, uint16_t duration_ms) {
 691:quantum/rgblight.c ****     rgblight_set_layer_state(layer, true);
 692:quantum/rgblight.c ****     _blinked_layer_mask |= 1 << layer;
 693:quantum/rgblight.c ****     _blink_timer    = timer_read();
 694:quantum/rgblight.c ****     _blink_duration = duration_ms;
 695:quantum/rgblight.c **** }
 696:quantum/rgblight.c **** 
 697:quantum/rgblight.c **** void rgblight_unblink_layers(void) {
 698:quantum/rgblight.c ****     if (_blinked_layer_mask != 0 && timer_elapsed(_blink_timer) > _blink_duration) {
 699:quantum/rgblight.c ****         for (uint8_t layer = 0; layer < RGBLIGHT_MAX_LAYERS; layer++) {
 700:quantum/rgblight.c ****             if ((_blinked_layer_mask & 1 << layer) != 0) {
 701:quantum/rgblight.c ****                 rgblight_set_layer_state(layer, false);
 702:quantum/rgblight.c ****             }
 703:quantum/rgblight.c ****         }
 704:quantum/rgblight.c ****         _blinked_layer_mask = 0;
 705:quantum/rgblight.c ****     }
 706:quantum/rgblight.c **** }
 707:quantum/rgblight.c **** #    endif
 708:quantum/rgblight.c **** 
 709:quantum/rgblight.c **** #endif
 710:quantum/rgblight.c **** 
 711:quantum/rgblight.c **** __attribute__((weak)) void rgblight_call_driver(LED_TYPE *start_led, uint8_t num_leds) { ws2812_set
 712:quantum/rgblight.c **** 
 713:quantum/rgblight.c **** #ifndef RGBLIGHT_CUSTOM_DRIVER
 714:quantum/rgblight.c **** 
 715:quantum/rgblight.c **** void rgblight_set(void) {
 716:quantum/rgblight.c ****     LED_TYPE *start_led;
 717:quantum/rgblight.c ****     uint8_t   num_leds = rgblight_ranges.clipping_num_leds;
 718:quantum/rgblight.c **** 
 719:quantum/rgblight.c ****     if (!rgblight_config.enable) {
 720:quantum/rgblight.c ****         for (uint8_t i = rgblight_ranges.effect_start_pos; i < rgblight_ranges.effect_end_pos; i++)
 721:quantum/rgblight.c ****             led[i].r = 0;
 722:quantum/rgblight.c ****             led[i].g = 0;
 723:quantum/rgblight.c ****             led[i].b = 0;
 724:quantum/rgblight.c **** #    ifdef RGBW
 725:quantum/rgblight.c ****             led[i].w = 0;
 726:quantum/rgblight.c **** #    endif
 727:quantum/rgblight.c ****         }
 728:quantum/rgblight.c ****     }
 729:quantum/rgblight.c **** 
 730:quantum/rgblight.c **** #    ifdef RGBLIGHT_LAYERS
 731:quantum/rgblight.c ****     if (rgblight_layers != NULL
 732:quantum/rgblight.c **** #        ifndef RGBLIGHT_LAYERS_OVERRIDE_RGB_OFF
 733:quantum/rgblight.c ****         && rgblight_config.enable
 734:quantum/rgblight.c **** #        endif
 735:quantum/rgblight.c ****     ) {
 736:quantum/rgblight.c ****         rgblight_layers_write();
 737:quantum/rgblight.c ****     }
 738:quantum/rgblight.c **** #    endif
 739:quantum/rgblight.c **** 
 740:quantum/rgblight.c **** #    ifdef RGBLIGHT_LED_MAP
 741:quantum/rgblight.c ****     LED_TYPE led0[RGBLED_NUM];
 742:quantum/rgblight.c ****     for (uint8_t i = 0; i < RGBLED_NUM; i++) {
 743:quantum/rgblight.c ****         led0[i] = led[pgm_read_byte(&led_map[i])];
 744:quantum/rgblight.c ****     }
 745:quantum/rgblight.c ****     start_led = led0 + rgblight_ranges.clipping_start_pos;
 746:quantum/rgblight.c **** #    else
 747:quantum/rgblight.c ****     start_led = led + rgblight_ranges.clipping_start_pos;
 748:quantum/rgblight.c **** #    endif
 749:quantum/rgblight.c **** 
 750:quantum/rgblight.c **** #    ifdef RGBW
 751:quantum/rgblight.c ****     for (uint8_t i = 0; i < num_leds; i++) {
 752:quantum/rgblight.c ****         convert_rgb_to_rgbw(&start_led[i]);
 753:quantum/rgblight.c ****     }
 754:quantum/rgblight.c **** #    endif
 755:quantum/rgblight.c ****     rgblight_call_driver(start_led, num_leds);
 756:quantum/rgblight.c **** }
 757:quantum/rgblight.c **** #endif
 758:quantum/rgblight.c **** 
 759:quantum/rgblight.c **** #ifdef RGBLIGHT_SPLIT
 760:quantum/rgblight.c **** /* for split keyboard master side */
 761:quantum/rgblight.c **** uint8_t rgblight_get_change_flags(void) { return rgblight_status.change_flags; }
 762:quantum/rgblight.c **** 
 763:quantum/rgblight.c **** void rgblight_clear_change_flags(void) { rgblight_status.change_flags = 0; }
 764:quantum/rgblight.c **** 
 765:quantum/rgblight.c **** void rgblight_get_syncinfo(rgblight_syncinfo_t *syncinfo) {
 766:quantum/rgblight.c ****     syncinfo->config = rgblight_config;
 767:quantum/rgblight.c ****     syncinfo->status = rgblight_status;
 768:quantum/rgblight.c **** }
 769:quantum/rgblight.c **** 
 770:quantum/rgblight.c **** /* for split keyboard slave side */
 771:quantum/rgblight.c **** void rgblight_update_sync(rgblight_syncinfo_t *syncinfo, bool write_to_eeprom) {
 772:quantum/rgblight.c **** #    ifdef RGBLIGHT_LAYERS
 773:quantum/rgblight.c ****     if (syncinfo->status.change_flags & RGBLIGHT_STATUS_CHANGE_LAYERS) {
 774:quantum/rgblight.c ****         rgblight_status.enabled_layer_mask = syncinfo->status.enabled_layer_mask;
 775:quantum/rgblight.c ****     }
 776:quantum/rgblight.c **** #    endif
 777:quantum/rgblight.c ****     if (syncinfo->status.change_flags & RGBLIGHT_STATUS_CHANGE_MODE) {
 778:quantum/rgblight.c ****         if (syncinfo->config.enable) {
 779:quantum/rgblight.c ****             rgblight_config.enable = 1;  // == rgblight_enable_noeeprom();
 780:quantum/rgblight.c ****             rgblight_mode_eeprom_helper(syncinfo->config.mode, write_to_eeprom);
 781:quantum/rgblight.c ****         } else {
 782:quantum/rgblight.c ****             rgblight_disable_noeeprom();
 783:quantum/rgblight.c ****         }
 784:quantum/rgblight.c ****     }
 785:quantum/rgblight.c ****     if (syncinfo->status.change_flags & RGBLIGHT_STATUS_CHANGE_HSVS) {
 786:quantum/rgblight.c ****         rgblight_sethsv_eeprom_helper(syncinfo->config.hue, syncinfo->config.sat, syncinfo->config.
 787:quantum/rgblight.c ****         // rgblight_config.speed = config->speed; // NEED???
 788:quantum/rgblight.c ****     }
 789:quantum/rgblight.c **** #    ifdef RGBLIGHT_USE_TIMER
 790:quantum/rgblight.c ****     if (syncinfo->status.change_flags & RGBLIGHT_STATUS_CHANGE_TIMER) {
 791:quantum/rgblight.c ****         if (syncinfo->status.timer_enabled) {
 792:quantum/rgblight.c ****             rgblight_timer_enable();
 793:quantum/rgblight.c ****         } else {
 794:quantum/rgblight.c ****             rgblight_timer_disable();
 795:quantum/rgblight.c ****         }
 796:quantum/rgblight.c ****     }
 797:quantum/rgblight.c **** #        ifndef RGBLIGHT_SPLIT_NO_ANIMATION_SYNC
 798:quantum/rgblight.c ****     if (syncinfo->status.change_flags & RGBLIGHT_STATUS_ANIMATION_TICK) {
 799:quantum/rgblight.c ****         animation_status.restart = true;
 800:quantum/rgblight.c ****     }
 801:quantum/rgblight.c **** #        endif /* RGBLIGHT_SPLIT_NO_ANIMATION_SYNC */
 802:quantum/rgblight.c **** #    endif     /* RGBLIGHT_USE_TIMER */
 803:quantum/rgblight.c **** }
 804:quantum/rgblight.c **** #endif /* RGBLIGHT_SPLIT */
 805:quantum/rgblight.c **** 
 806:quantum/rgblight.c **** #ifdef RGBLIGHT_USE_TIMER
 807:quantum/rgblight.c **** 
 808:quantum/rgblight.c **** typedef void (*effect_func_t)(animation_status_t *anim);
 809:quantum/rgblight.c **** 
 810:quantum/rgblight.c **** // Animation timer -- use system timer (AVR Timer0)
 811:quantum/rgblight.c **** void rgblight_timer_init(void) {
 812:quantum/rgblight.c ****     // OLD!!!! Animation timer -- AVR Timer3
 813:quantum/rgblight.c ****     // static uint8_t rgblight_timer_is_init = 0;
 814:quantum/rgblight.c ****     // if (rgblight_timer_is_init) {
 815:quantum/rgblight.c ****     //   return;
 816:quantum/rgblight.c ****     // }
 817:quantum/rgblight.c ****     // rgblight_timer_is_init = 1;
 818:quantum/rgblight.c ****     // /* Timer 3 setup */
 819:quantum/rgblight.c ****     // TCCR3B = _BV(WGM32) // CTC mode OCR3A as TOP
 820:quantum/rgblight.c ****     //       | _BV(CS30); // Clock selelct: clk/1
 821:quantum/rgblight.c ****     // /* Set TOP value */
 822:quantum/rgblight.c ****     // uint8_t sreg = SREG;
 823:quantum/rgblight.c ****     // cli();
 824:quantum/rgblight.c ****     // OCR3AH = (RGBLED_TIMER_TOP >> 8) & 0xff;
 825:quantum/rgblight.c ****     // OCR3AL = RGBLED_TIMER_TOP & 0xff;
 826:quantum/rgblight.c ****     // SREG = sreg;
 827:quantum/rgblight.c **** 
 828:quantum/rgblight.c ****     rgblight_status.timer_enabled = false;
 829:quantum/rgblight.c ****     RGBLIGHT_SPLIT_SET_CHANGE_TIMER_ENABLE;
 830:quantum/rgblight.c **** }
 831:quantum/rgblight.c **** void rgblight_timer_enable(void) {
 832:quantum/rgblight.c ****     if (!is_static_effect(rgblight_config.mode)) {
 833:quantum/rgblight.c ****         rgblight_status.timer_enabled = true;
 834:quantum/rgblight.c ****     }
 835:quantum/rgblight.c ****     animation_status.last_timer = timer_read();
 836:quantum/rgblight.c ****     RGBLIGHT_SPLIT_SET_CHANGE_TIMER_ENABLE;
 837:quantum/rgblight.c ****     dprintf("rgblight timer enabled.\n");
 838:quantum/rgblight.c **** }
 839:quantum/rgblight.c **** void rgblight_timer_disable(void) {
 840:quantum/rgblight.c ****     rgblight_status.timer_enabled = false;
 841:quantum/rgblight.c ****     RGBLIGHT_SPLIT_SET_CHANGE_TIMER_ENABLE;
 842:quantum/rgblight.c ****     dprintf("rgblight timer disable.\n");
 843:quantum/rgblight.c **** }
 844:quantum/rgblight.c **** void rgblight_timer_toggle(void) {
 845:quantum/rgblight.c ****     dprintf("rgblight timer toggle.\n");
 846:quantum/rgblight.c ****     if (rgblight_status.timer_enabled) {
 847:quantum/rgblight.c ****         rgblight_timer_disable();
 848:quantum/rgblight.c ****     } else {
 849:quantum/rgblight.c ****         rgblight_timer_enable();
 850:quantum/rgblight.c ****     }
 851:quantum/rgblight.c **** }
 852:quantum/rgblight.c **** 
 853:quantum/rgblight.c **** void rgblight_show_solid_color(uint8_t r, uint8_t g, uint8_t b) {
 854:quantum/rgblight.c ****     rgblight_enable();
 855:quantum/rgblight.c ****     rgblight_mode(RGBLIGHT_MODE_STATIC_LIGHT);
 856:quantum/rgblight.c ****     rgblight_setrgb(r, g, b);
 857:quantum/rgblight.c **** }
 858:quantum/rgblight.c **** 
 859:quantum/rgblight.c **** static void rgblight_effect_dummy(animation_status_t *anim) {
  16               		.loc 1 859 61 view -0
  17               		.cfi_startproc
  18               	/* prologue: function */
  19               	/* frame size = 0 */
  20               	/* stack size = 0 */
  21               	.L__stack_usage = 0
 860:quantum/rgblight.c ****     // do nothing
 861:quantum/rgblight.c ****     /********
 862:quantum/rgblight.c ****     dprintf("rgblight_task() what happened?\n");
 863:quantum/rgblight.c ****     dprintf("is_static_effect %d\n", is_static_effect(rgblight_config.mode));
 864:quantum/rgblight.c ****     dprintf("mode = %d, base_mode = %d, timer_enabled %d, ",
 865:quantum/rgblight.c ****             rgblight_config.mode, rgblight_status.base_mode,
 866:quantum/rgblight.c ****             rgblight_status.timer_enabled);
 867:quantum/rgblight.c ****     dprintf("last_timer = %d\n",anim->last_timer);
 868:quantum/rgblight.c ****     **/
 869:quantum/rgblight.c **** }
  22               		.loc 1 869 1 view .LVU1
  23               	/* epilogue start */
  24 0000 0895      		ret
  25               		.cfi_endproc
  26               	.LFE171:
  28               		.section	.text.rgblight_set_clipping_range,"ax",@progbits
  29               	.global	rgblight_set_clipping_range
  31               	rgblight_set_clipping_range:
  32               	.LVL1:
  33               	.LFB84:
 113:quantum/rgblight.c ****     rgblight_ranges.clipping_start_pos = start_pos;
  34               		.loc 1 113 71 view -0
  35               		.cfi_startproc
  36               	/* prologue: function */
  37               	/* frame size = 0 */
  38               	/* stack size = 0 */
  39               	.L__stack_usage = 0
 114:quantum/rgblight.c ****     rgblight_ranges.clipping_num_leds  = num_leds;
  40               		.loc 1 114 5 view .LVU3
 114:quantum/rgblight.c ****     rgblight_ranges.clipping_num_leds  = num_leds;
  41               		.loc 1 114 40 is_stmt 0 view .LVU4
  42 0000 E0E0      		ldi r30,lo8(rgblight_ranges)
  43 0002 F0E0      		ldi r31,hi8(rgblight_ranges)
  44 0004 8083      		st Z,r24
 115:quantum/rgblight.c **** }
  45               		.loc 1 115 5 is_stmt 1 view .LVU5
 115:quantum/rgblight.c **** }
  46               		.loc 1 115 40 is_stmt 0 view .LVU6
  47 0006 6183      		std Z+1,r22
  48               	/* epilogue start */
 116:quantum/rgblight.c **** 
  49               		.loc 1 116 1 view .LVU7
  50 0008 0895      		ret
  51               		.cfi_endproc
  52               	.LFE84:
  54               		.section	.text.rgblight_set_effect_range,"ax",@progbits
  55               	.global	rgblight_set_effect_range
  57               	rgblight_set_effect_range:
  58               	.LVL2:
  59               	.LFB85:
 118:quantum/rgblight.c ****     if (start_pos >= RGBLED_NUM) return;
  60               		.loc 1 118 69 is_stmt 1 view -0
  61               		.cfi_startproc
  62               	/* prologue: function */
  63               	/* frame size = 0 */
  64               	/* stack size = 0 */
  65               	.L__stack_usage = 0
 119:quantum/rgblight.c ****     if (start_pos + num_leds > RGBLED_NUM) return;
  66               		.loc 1 119 5 view .LVU9
 119:quantum/rgblight.c ****     if (start_pos + num_leds > RGBLED_NUM) return;
  67               		.loc 1 119 8 is_stmt 0 view .LVU10
  68 0000 8B31      		cpi r24,lo8(27)
  69 0002 00F4      		brsh .L3
 120:quantum/rgblight.c ****     rgblight_ranges.effect_start_pos = start_pos;
  70               		.loc 1 120 5 is_stmt 1 view .LVU11
 120:quantum/rgblight.c ****     rgblight_ranges.effect_start_pos = start_pos;
  71               		.loc 1 120 19 is_stmt 0 view .LVU12
  72 0004 482F      		mov r20,r24
  73 0006 460F      		add r20,r22
  74 0008 5527      		clr r21
  75 000a 551F      		rol r21
 120:quantum/rgblight.c ****     rgblight_ranges.effect_start_pos = start_pos;
  76               		.loc 1 120 8 view .LVU13
  77 000c 4C31      		cpi r20,28
  78 000e 5105      		cpc r21,__zero_reg__
  79 0010 04F4      		brge .L3
 121:quantum/rgblight.c ****     rgblight_ranges.effect_end_pos   = start_pos + num_leds;
  80               		.loc 1 121 5 is_stmt 1 view .LVU14
 121:quantum/rgblight.c ****     rgblight_ranges.effect_end_pos   = start_pos + num_leds;
  81               		.loc 1 121 38 is_stmt 0 view .LVU15
  82 0012 8093 0000 		sts rgblight_ranges+2,r24
 122:quantum/rgblight.c ****     rgblight_ranges.effect_num_leds  = num_leds;
  83               		.loc 1 122 5 is_stmt 1 view .LVU16
 122:quantum/rgblight.c ****     rgblight_ranges.effect_num_leds  = num_leds;
  84               		.loc 1 122 50 is_stmt 0 view .LVU17
  85 0016 860F      		add r24,r22
  86               	.LVL3:
 122:quantum/rgblight.c ****     rgblight_ranges.effect_num_leds  = num_leds;
  87               		.loc 1 122 38 view .LVU18
  88 0018 8093 0000 		sts rgblight_ranges+3,r24
 123:quantum/rgblight.c **** }
  89               		.loc 1 123 5 is_stmt 1 view .LVU19
 123:quantum/rgblight.c **** }
  90               		.loc 1 123 38 is_stmt 0 view .LVU20
  91 001c 6093 0000 		sts rgblight_ranges+4,r22
  92               	.LVL4:
  93               	.L3:
  94               	/* epilogue start */
 124:quantum/rgblight.c **** 
  95               		.loc 1 124 1 view .LVU21
  96 0020 0895      		ret
  97               		.cfi_endproc
  98               	.LFE85:
 100               		.section	.text.rgblight_hsv_to_rgb,"ax",@progbits
 101               		.weak	rgblight_hsv_to_rgb
 103               	rgblight_hsv_to_rgb:
 104               	.LVL5:
 105               	.LFB86:
 126:quantum/rgblight.c **** 
 106               		.loc 1 126 56 is_stmt 1 view -0
 107               		.cfi_startproc
 108               	/* prologue: function */
 109               	/* frame size = 0 */
 110               	/* stack size = 0 */
 111               	.L__stack_usage = 0
 126:quantum/rgblight.c **** 
 112               		.loc 1 126 58 view .LVU23
 126:quantum/rgblight.c **** 
 113               		.loc 1 126 65 is_stmt 0 view .LVU24
 114 0000 0C94 0000 		jmp hsv_to_rgb
 115               	.LVL6:
 126:quantum/rgblight.c **** 
 116               		.loc 1 126 65 view .LVU25
 117               		.cfi_endproc
 118               	.LFE86:
 120               		.section	.text.sethsv_raw,"ax",@progbits
 121               	.global	sethsv_raw
 123               	sethsv_raw:
 124               	.LVL7:
 125               	.LFB87:
 128:quantum/rgblight.c ****     HSV hsv = {hue, sat, val};
 126               		.loc 1 128 72 is_stmt 1 view -0
 127               		.cfi_startproc
 128:quantum/rgblight.c ****     HSV hsv = {hue, sat, val};
 128               		.loc 1 128 72 is_stmt 0 view .LVU27
 129 0000 CF93      		push r28
 130               	.LCFI0:
 131               		.cfi_def_cfa_offset 3
 132               		.cfi_offset 28, -2
 133 0002 DF93      		push r29
 134               	.LCFI1:
 135               		.cfi_def_cfa_offset 4
 136               		.cfi_offset 29, -3
 137               	/* prologue: function */
 138               	/* frame size = 0 */
 139               	/* stack size = 2 */
 140               	.L__stack_usage = 2
 141 0004 762F      		mov r23,r22
 142 0006 E901      		movw r28,r18
 129:quantum/rgblight.c ****     RGB rgb = rgblight_hsv_to_rgb(hsv);
 143               		.loc 1 129 5 is_stmt 1 view .LVU28
 130:quantum/rgblight.c ****     setrgb(rgb.r, rgb.g, rgb.b, led1);
 144               		.loc 1 130 5 view .LVU29
 130:quantum/rgblight.c ****     setrgb(rgb.r, rgb.g, rgb.b, led1);
 145               		.loc 1 130 15 is_stmt 0 view .LVU30
 146 0008 682F      		mov r22,r24
 147               	.LVL8:
 130:quantum/rgblight.c ****     setrgb(rgb.r, rgb.g, rgb.b, led1);
 148               		.loc 1 130 15 view .LVU31
 149 000a 842F      		mov r24,r20
 150               	.LVL9:
 130:quantum/rgblight.c ****     setrgb(rgb.r, rgb.g, rgb.b, led1);
 151               		.loc 1 130 15 view .LVU32
 152 000c 0E94 0000 		call rgblight_hsv_to_rgb
 153               	.LVL10:
 131:quantum/rgblight.c **** }
 154               		.loc 1 131 5 is_stmt 1 view .LVU33
 155               	.LBB20:
 156               	.LBI20:
 136:quantum/rgblight.c ****     led1->r = r;
 157               		.loc 1 136 6 view .LVU34
 158               	.LBB21:
 137:quantum/rgblight.c ****     led1->g = g;
 159               		.loc 1 137 5 view .LVU35
 137:quantum/rgblight.c ****     led1->g = g;
 160               		.loc 1 137 13 is_stmt 0 view .LVU36
 161 0010 7983      		std Y+1,r23
 138:quantum/rgblight.c ****     led1->b = b;
 162               		.loc 1 138 5 is_stmt 1 view .LVU37
 138:quantum/rgblight.c ****     led1->b = b;
 163               		.loc 1 138 13 is_stmt 0 view .LVU38
 164 0012 6883      		st Y,r22
 139:quantum/rgblight.c **** #ifdef RGBW
 165               		.loc 1 139 5 is_stmt 1 view .LVU39
 139:quantum/rgblight.c **** #ifdef RGBW
 166               		.loc 1 139 13 is_stmt 0 view .LVU40
 167 0014 8A83      		std Y+2,r24
 168               	.LVL11:
 169               	/* epilogue start */
 139:quantum/rgblight.c **** #ifdef RGBW
 170               		.loc 1 139 13 view .LVU41
 171               	.LBE21:
 172               	.LBE20:
 132:quantum/rgblight.c **** 
 173               		.loc 1 132 1 view .LVU42
 174 0016 DF91      		pop r29
 175 0018 CF91      		pop r28
 176               	.LVL12:
 132:quantum/rgblight.c **** 
 177               		.loc 1 132 1 view .LVU43
 178 001a 0895      		ret
 179               		.cfi_endproc
 180               	.LFE87:
 182               		.section	.text.sethsv,"ax",@progbits
 183               	.global	sethsv
 185               	sethsv:
 186               	.LVL13:
 187               	.LFB88:
 134:quantum/rgblight.c **** 
 188               		.loc 1 134 68 is_stmt 1 view -0
 189               		.cfi_startproc
 190               	/* prologue: function */
 191               	/* frame size = 0 */
 192               	/* stack size = 0 */
 193               	.L__stack_usage = 0
 134:quantum/rgblight.c **** 
 194               		.loc 1 134 70 view .LVU45
 195 0000 4937      		cpi r20,lo8(121)
 196 0002 00F0      		brlo .L8
 197 0004 48E7      		ldi r20,lo8(120)
 198               	.LVL14:
 199               	.L8:
 134:quantum/rgblight.c **** 
 200               		.loc 1 134 70 is_stmt 0 view .LVU46
 201 0006 0C94 0000 		jmp sethsv_raw
 202               	.LVL15:
 134:quantum/rgblight.c **** 
 203               		.loc 1 134 70 view .LVU47
 204               		.cfi_endproc
 205               	.LFE88:
 207               		.section	.text.setrgb,"ax",@progbits
 208               	.global	setrgb
 210               	setrgb:
 211               	.LVL16:
 212               	.LFB89:
 136:quantum/rgblight.c ****     led1->r = r;
 213               		.loc 1 136 62 is_stmt 1 view -0
 214               		.cfi_startproc
 215               	/* prologue: function */
 216               	/* frame size = 0 */
 217               	/* stack size = 0 */
 218               	.L__stack_usage = 0
 136:quantum/rgblight.c ****     led1->r = r;
 219               		.loc 1 136 62 is_stmt 0 view .LVU49
 220 0000 F901      		movw r30,r18
 137:quantum/rgblight.c ****     led1->g = g;
 221               		.loc 1 137 5 is_stmt 1 view .LVU50
 137:quantum/rgblight.c ****     led1->g = g;
 222               		.loc 1 137 13 is_stmt 0 view .LVU51
 223 0002 8183      		std Z+1,r24
 138:quantum/rgblight.c ****     led1->b = b;
 224               		.loc 1 138 5 is_stmt 1 view .LVU52
 138:quantum/rgblight.c ****     led1->b = b;
 225               		.loc 1 138 13 is_stmt 0 view .LVU53
 226 0004 6083      		st Z,r22
 139:quantum/rgblight.c **** #ifdef RGBW
 227               		.loc 1 139 5 is_stmt 1 view .LVU54
 139:quantum/rgblight.c **** #ifdef RGBW
 228               		.loc 1 139 13 is_stmt 0 view .LVU55
 229 0006 4283      		std Z+2,r20
 230               	/* epilogue start */
 143:quantum/rgblight.c **** 
 231               		.loc 1 143 1 view .LVU56
 232 0008 0895      		ret
 233               		.cfi_endproc
 234               	.LFE89:
 236               		.section	.text.rgblight_check_config,"ax",@progbits
 237               	.global	rgblight_check_config
 239               	rgblight_check_config:
 240               	.LFB90:
 145:quantum/rgblight.c ****     /* Add some out of bound checks for RGB light config */
 241               		.loc 1 145 34 is_stmt 1 view -0
 242               		.cfi_startproc
 243               	/* prologue: function */
 244               	/* frame size = 0 */
 245               	/* stack size = 0 */
 246               	.L__stack_usage = 0
 148:quantum/rgblight.c ****         rgblight_config.mode = RGBLIGHT_MODE_STATIC_LIGHT;
 247               		.loc 1 148 5 view .LVU58
 148:quantum/rgblight.c ****         rgblight_config.mode = RGBLIGHT_MODE_STATIC_LIGHT;
 248               		.loc 1 148 30 is_stmt 0 view .LVU59
 249 0000 8091 0000 		lds r24,rgblight_config
 250 0004 982F      		mov r25,r24
 251 0006 9E7F      		andi r25,lo8(-2)
 148:quantum/rgblight.c ****         rgblight_config.mode = RGBLIGHT_MODE_STATIC_LIGHT;
 252               		.loc 1 148 8 view .LVU60
 253 0008 01F4      		brne .L11
 149:quantum/rgblight.c ****     } else if (rgblight_config.mode > RGBLIGHT_MODES) {
 254               		.loc 1 149 9 is_stmt 1 view .LVU61
 149:quantum/rgblight.c ****     } else if (rgblight_config.mode > RGBLIGHT_MODES) {
 255               		.loc 1 149 30 is_stmt 0 view .LVU62
 256 000a 8170      		andi r24,lo8(1)
 257 000c 8260      		ori r24,lo8(2)
 258               	.L14:
 151:quantum/rgblight.c ****     }
 259               		.loc 1 151 30 view .LVU63
 260 000e 8093 0000 		sts rgblight_config,r24
 261               	.L12:
 154:quantum/rgblight.c ****         rgblight_config.val = RGBLIGHT_LIMIT_VAL;
 262               		.loc 1 154 5 is_stmt 1 view .LVU64
 154:quantum/rgblight.c ****         rgblight_config.val = RGBLIGHT_LIMIT_VAL;
 263               		.loc 1 154 8 is_stmt 0 view .LVU65
 264 0012 8091 0000 		lds r24,rgblight_config+3
 265 0016 8937      		cpi r24,lo8(121)
 266 0018 00F0      		brlo .L10
 155:quantum/rgblight.c ****     }
 267               		.loc 1 155 9 is_stmt 1 view .LVU66
 155:quantum/rgblight.c ****     }
 268               		.loc 1 155 29 is_stmt 0 view .LVU67
 269 001a 88E7      		ldi r24,lo8(120)
 270 001c 8093 0000 		sts rgblight_config+3,r24
 271               	.L10:
 272               	/* epilogue start */
 157:quantum/rgblight.c **** 
 273               		.loc 1 157 1 view .LVU68
 274 0020 0895      		ret
 275               	.L11:
 150:quantum/rgblight.c ****         rgblight_config.mode = RGBLIGHT_MODES;
 276               		.loc 1 150 12 is_stmt 1 view .LVU69
 150:quantum/rgblight.c ****         rgblight_config.mode = RGBLIGHT_MODES;
 277               		.loc 1 150 15 is_stmt 0 view .LVU70
 278 0022 8635      		cpi r24,lo8(86)
 279 0024 00F0      		brlo .L12
 151:quantum/rgblight.c ****     }
 280               		.loc 1 151 9 is_stmt 1 view .LVU71
 151:quantum/rgblight.c ****     }
 281               		.loc 1 151 30 is_stmt 0 view .LVU72
 282 0026 8170      		andi r24,lo8(1)
 283 0028 8465      		ori r24,lo8(84)
 284 002a 00C0      		rjmp .L14
 285               		.cfi_endproc
 286               	.LFE90:
 288               		.section	.text.eeconfig_read_rgblight,"ax",@progbits
 289               	.global	eeconfig_read_rgblight
 291               	eeconfig_read_rgblight:
 292               	.LFB91:
 159:quantum/rgblight.c **** #ifdef EEPROM_ENABLE
 293               		.loc 1 159 39 is_stmt 1 view -0
 294               		.cfi_startproc
 295               	/* prologue: function */
 296               	/* frame size = 0 */
 297               	/* stack size = 0 */
 298               	.L__stack_usage = 0
 161:quantum/rgblight.c **** #else
 299               		.loc 1 161 5 view .LVU74
 161:quantum/rgblight.c **** #else
 300               		.loc 1 161 12 is_stmt 0 view .LVU75
 301 0000 88E0      		ldi r24,lo8(8)
 302 0002 90E0      		ldi r25,0
 303 0004 0C94 0000 		jmp eeprom_read_dword
 304               	.LVL17:
 305               		.cfi_endproc
 306               	.LFE91:
 308               		.section	.text.eeconfig_update_rgblight,"ax",@progbits
 309               	.global	eeconfig_update_rgblight
 311               	eeconfig_update_rgblight:
 312               	.LVL18:
 313               	.LFB92:
 167:quantum/rgblight.c **** #ifdef EEPROM_ENABLE
 314               		.loc 1 167 45 is_stmt 1 view -0
 315               		.cfi_startproc
 167:quantum/rgblight.c **** #ifdef EEPROM_ENABLE
 316               		.loc 1 167 45 is_stmt 0 view .LVU77
 317 0000 CF92      		push r12
 318               	.LCFI2:
 319               		.cfi_def_cfa_offset 3
 320               		.cfi_offset 12, -2
 321 0002 DF92      		push r13
 322               	.LCFI3:
 323               		.cfi_def_cfa_offset 4
 324               		.cfi_offset 13, -3
 325 0004 EF92      		push r14
 326               	.LCFI4:
 327               		.cfi_def_cfa_offset 5
 328               		.cfi_offset 14, -4
 329 0006 FF92      		push r15
 330               	.LCFI5:
 331               		.cfi_def_cfa_offset 6
 332               		.cfi_offset 15, -5
 333               	/* prologue: function */
 334               	/* frame size = 0 */
 335               	/* stack size = 4 */
 336               	.L__stack_usage = 4
 337 0008 6B01      		movw r12,r22
 338 000a 7C01      		movw r14,r24
 169:quantum/rgblight.c ****     eeprom_update_dword(EECONFIG_RGBLIGHT, val);
 339               		.loc 1 169 5 is_stmt 1 view .LVU78
 340 000c 0E94 0000 		call rgblight_check_config
 341               	.LVL19:
 170:quantum/rgblight.c **** #endif
 342               		.loc 1 170 5 view .LVU79
 343 0010 B701      		movw r22,r14
 344 0012 A601      		movw r20,r12
 345 0014 88E0      		ldi r24,lo8(8)
 346 0016 90E0      		ldi r25,0
 347               	/* epilogue start */
 172:quantum/rgblight.c **** 
 348               		.loc 1 172 1 is_stmt 0 view .LVU80
 349 0018 FF90      		pop r15
 350 001a EF90      		pop r14
 351 001c DF90      		pop r13
 352 001e CF90      		pop r12
 170:quantum/rgblight.c **** #endif
 353               		.loc 1 170 5 view .LVU81
 354 0020 0C94 0000 		jmp eeprom_update_dword
 355               	.LVL20:
 356               		.cfi_endproc
 357               	.LFE92:
 359               		.section	.text.eeconfig_update_rgblight_current,"ax",@progbits
 360               	.global	eeconfig_update_rgblight_current
 362               	eeconfig_update_rgblight_current:
 363               	.LFB93:
 174:quantum/rgblight.c **** 
 364               		.loc 1 174 45 is_stmt 1 view -0
 365               		.cfi_startproc
 366               	/* prologue: function */
 367               	/* frame size = 0 */
 368               	/* stack size = 0 */
 369               	.L__stack_usage = 0
 174:quantum/rgblight.c **** 
 370               		.loc 1 174 47 view .LVU83
 371 0000 6091 0000 		lds r22,rgblight_config
 372 0004 7091 0000 		lds r23,rgblight_config+1
 373 0008 8091 0000 		lds r24,rgblight_config+2
 374 000c 9091 0000 		lds r25,rgblight_config+3
 375 0010 0C94 0000 		jmp eeconfig_update_rgblight
 376               	.LVL21:
 377               		.cfi_endproc
 378               	.LFE93:
 380               		.section	.text.eeconfig_update_rgblight_default,"ax",@progbits
 381               	.global	eeconfig_update_rgblight_default
 383               	eeconfig_update_rgblight_default:
 384               	.LFB94:
 176:quantum/rgblight.c ****     rgblight_config.enable = 1;
 385               		.loc 1 176 45 view -0
 386               		.cfi_startproc
 387               	/* prologue: function */
 388               	/* frame size = 0 */
 389               	/* stack size = 0 */
 390               	.L__stack_usage = 0
 177:quantum/rgblight.c ****     rgblight_config.mode   = RGBLIGHT_MODE_STATIC_LIGHT;
 391               		.loc 1 177 5 view .LVU85
 178:quantum/rgblight.c ****     rgblight_config.hue    = 0;
 392               		.loc 1 178 5 view .LVU86
 179:quantum/rgblight.c ****     rgblight_config.sat    = UINT8_MAX;
 393               		.loc 1 179 5 view .LVU87
 180:quantum/rgblight.c ****     rgblight_config.val    = RGBLIGHT_LIMIT_VAL;
 394               		.loc 1 180 5 view .LVU88
 181:quantum/rgblight.c ****     rgblight_config.speed  = 0;
 395               		.loc 1 181 5 view .LVU89
 182:quantum/rgblight.c ****     RGBLIGHT_SPLIT_SET_CHANGE_MODEHSVS;
 396               		.loc 1 182 5 view .LVU90
 177:quantum/rgblight.c ****     rgblight_config.mode   = RGBLIGHT_MODE_STATIC_LIGHT;
 397               		.loc 1 177 28 is_stmt 0 view .LVU91
 398 0000 E0E0      		ldi r30,lo8(rgblight_config)
 399 0002 F0E0      		ldi r31,hi8(rgblight_config)
 400 0004 83E0      		ldi r24,lo8(3)
 401 0006 8083      		st Z,r24
 179:quantum/rgblight.c ****     rgblight_config.sat    = UINT8_MAX;
 402               		.loc 1 179 28 view .LVU92
 403 0008 1182      		std Z+1,__zero_reg__
 180:quantum/rgblight.c ****     rgblight_config.val    = RGBLIGHT_LIMIT_VAL;
 404               		.loc 1 180 28 view .LVU93
 405 000a 8FEF      		ldi r24,lo8(-1)
 406 000c 8283      		std Z+2,r24
 181:quantum/rgblight.c ****     rgblight_config.speed  = 0;
 407               		.loc 1 181 28 view .LVU94
 408 000e 88E7      		ldi r24,lo8(120)
 409 0010 8383      		std Z+3,r24
 182:quantum/rgblight.c ****     RGBLIGHT_SPLIT_SET_CHANGE_MODEHSVS;
 410               		.loc 1 182 28 view .LVU95
 411 0012 1482      		std Z+4,__zero_reg__
 183:quantum/rgblight.c ****     eeconfig_update_rgblight(rgblight_config.raw);
 412               		.loc 1 183 5 is_stmt 1 view .LVU96
 413 0014 A0E0      		ldi r26,lo8(rgblight_status)
 414 0016 B0E0      		ldi r27,hi8(rgblight_status)
 415 0018 1296      		adiw r26,2
 416 001a 8C91      		ld r24,X
 417 001c 1297      		sbiw r26,2
 418 001e 8360      		ori r24,lo8(3)
 419 0020 1296      		adiw r26,2
 420 0022 8C93      		st X,r24
 184:quantum/rgblight.c **** }
 421               		.loc 1 184 5 view .LVU97
 422 0024 6081      		ld r22,Z
 423 0026 7181      		ldd r23,Z+1
 424 0028 8281      		ldd r24,Z+2
 425 002a 9381      		ldd r25,Z+3
 426 002c 0C94 0000 		jmp eeconfig_update_rgblight
 427               	.LVL22:
 428               		.cfi_endproc
 429               	.LFE94:
 431               		.section	.text.eeconfig_debug_rgblight,"ax",@progbits
 432               	.global	eeconfig_debug_rgblight
 434               	eeconfig_debug_rgblight:
 435               	.LFB95:
 187:quantum/rgblight.c ****     dprintf("rgblight_config EEPROM:\n");
 436               		.loc 1 187 36 view -0
 437               		.cfi_startproc
 438               	/* prologue: function */
 439               	/* frame size = 0 */
 440               	/* stack size = 0 */
 441               	.L__stack_usage = 0
 188:quantum/rgblight.c ****     dprintf("rgblight_config.enable = %d\n", rgblight_config.enable);
 442               		.loc 1 188 41 view .LVU99
 189:quantum/rgblight.c ****     dprintf("rghlight_config.mode = %d\n", rgblight_config.mode);
 443               		.loc 1 189 69 view .LVU100
 190:quantum/rgblight.c ****     dprintf("rgblight_config.hue = %d\n", rgblight_config.hue);
 444               		.loc 1 190 65 view .LVU101
 191:quantum/rgblight.c ****     dprintf("rgblight_config.sat = %d\n", rgblight_config.sat);
 445               		.loc 1 191 63 view .LVU102
 192:quantum/rgblight.c ****     dprintf("rgblight_config.val = %d\n", rgblight_config.val);
 446               		.loc 1 192 63 view .LVU103
 193:quantum/rgblight.c ****     dprintf("rgblight_config.speed = %d\n", rgblight_config.speed);
 447               		.loc 1 193 63 view .LVU104
 194:quantum/rgblight.c **** }
 448               		.loc 1 194 67 view .LVU105
 449               	/* epilogue start */
 195:quantum/rgblight.c **** 
 450               		.loc 1 195 1 is_stmt 0 view .LVU106
 451 0000 0895      		ret
 452               		.cfi_endproc
 453               	.LFE95:
 455               		.section	.text.rgblight_read_dword,"ax",@progbits
 456               	.global	rgblight_read_dword
 458               	rgblight_read_dword:
 459               	.LFB97:
 232:quantum/rgblight.c **** 
 460               		.loc 1 232 36 is_stmt 1 view -0
 461               		.cfi_startproc
 462               	/* prologue: function */
 463               	/* frame size = 0 */
 464               	/* stack size = 0 */
 465               	.L__stack_usage = 0
 232:quantum/rgblight.c **** 
 466               		.loc 1 232 38 view .LVU108
 232:quantum/rgblight.c **** 
 467               		.loc 1 232 60 is_stmt 0 view .LVU109
 468 0000 6091 0000 		lds r22,rgblight_config
 469 0004 7091 0000 		lds r23,rgblight_config+1
 470 0008 8091 0000 		lds r24,rgblight_config+2
 471 000c 9091 0000 		lds r25,rgblight_config+3
 472               	/* epilogue start */
 232:quantum/rgblight.c **** 
 473               		.loc 1 232 1 view .LVU110
 474 0010 0895      		ret
 475               		.cfi_endproc
 476               	.LFE97:
 478               		.section	.text.rgblight_get_mode,"ax",@progbits
 479               	.global	rgblight_get_mode
 481               	rgblight_get_mode:
 482               	.LFB107:
 281:quantum/rgblight.c ****     if (!rgblight_config.enable) {
 483               		.loc 1 281 33 is_stmt 1 view -0
 484               		.cfi_startproc
 485               	/* prologue: function */
 486               	/* frame size = 0 */
 487               	/* stack size = 0 */
 488               	.L__stack_usage = 0
 282:quantum/rgblight.c ****         return false;
 489               		.loc 1 282 5 view .LVU112
 282:quantum/rgblight.c ****         return false;
 490               		.loc 1 282 25 is_stmt 0 view .LVU113
 491 0000 8091 0000 		lds r24,rgblight_config
 282:quantum/rgblight.c ****         return false;
 492               		.loc 1 282 8 view .LVU114
 493 0004 80FF      		sbrs r24,0
 494 0006 00C0      		rjmp .L23
 286:quantum/rgblight.c **** }
 495               		.loc 1 286 5 is_stmt 1 view .LVU115
 286:quantum/rgblight.c **** }
 496               		.loc 1 286 27 is_stmt 0 view .LVU116
 497 0008 8695      		lsr r24
 498 000a 0895      		ret
 499               	.L23:
 283:quantum/rgblight.c ****     }
 500               		.loc 1 283 16 view .LVU117
 501 000c 80E0      		ldi r24,0
 502               	/* epilogue start */
 287:quantum/rgblight.c **** 
 503               		.loc 1 287 1 view .LVU118
 504 000e 0895      		ret
 505               		.cfi_endproc
 506               	.LFE107:
 508               		.section	.text.rgblight_is_enabled,"ax",@progbits
 509               	.global	rgblight_is_enabled
 511               	rgblight_is_enabled:
 512               	.LFB117:
 373:quantum/rgblight.c **** 
 513               		.loc 1 373 32 is_stmt 1 view -0
 514               		.cfi_startproc
 515               	/* prologue: function */
 516               	/* frame size = 0 */
 517               	/* stack size = 0 */
 518               	.L__stack_usage = 0
 373:quantum/rgblight.c **** 
 519               		.loc 1 373 34 view .LVU120
 373:quantum/rgblight.c **** 
 520               		.loc 1 373 56 is_stmt 0 view .LVU121
 521 0000 8091 0000 		lds r24,rgblight_config
 373:quantum/rgblight.c **** 
 522               		.loc 1 373 1 view .LVU122
 523 0004 8170      		andi r24,lo8(1)
 524               	/* epilogue start */
 525 0006 0895      		ret
 526               		.cfi_endproc
 527               	.LFE117:
 529               		.section	.text.rgblight_increase_speed_helper,"ax",@progbits
 530               	.global	rgblight_increase_speed_helper
 532               	rgblight_increase_speed_helper:
 533               	.LVL23:
 534               	.LFB136:
 412:quantum/rgblight.c ****     if (rgblight_config.speed < 3) rgblight_config.speed++;
 535               		.loc 1 412 59 is_stmt 1 view -0
 536               		.cfi_startproc
 537               	/* prologue: function */
 538               	/* frame size = 0 */
 539               	/* stack size = 0 */
 540               	.L__stack_usage = 0
 413:quantum/rgblight.c ****     // RGBLIGHT_SPLIT_SET_CHANGE_HSVS; // NEED?
 541               		.loc 1 413 5 view .LVU124
 413:quantum/rgblight.c ****     // RGBLIGHT_SPLIT_SET_CHANGE_HSVS; // NEED?
 542               		.loc 1 413 24 is_stmt 0 view .LVU125
 543 0000 9091 0000 		lds r25,rgblight_config+4
 413:quantum/rgblight.c ****     // RGBLIGHT_SPLIT_SET_CHANGE_HSVS; // NEED?
 544               		.loc 1 413 8 view .LVU126
 545 0004 9330      		cpi r25,lo8(3)
 546 0006 00F4      		brsh .L26
 413:quantum/rgblight.c ****     // RGBLIGHT_SPLIT_SET_CHANGE_HSVS; // NEED?
 547               		.loc 1 413 36 is_stmt 1 discriminator 1 view .LVU127
 413:quantum/rgblight.c ****     // RGBLIGHT_SPLIT_SET_CHANGE_HSVS; // NEED?
 548               		.loc 1 413 57 is_stmt 0 discriminator 1 view .LVU128
 549 0008 9F5F      		subi r25,lo8(-(1))
 550 000a 9093 0000 		sts rgblight_config+4,r25
 551               	.L26:
 415:quantum/rgblight.c ****         eeconfig_update_rgblight(rgblight_config.raw);  // EECONFIG needs to be increased to suppor
 552               		.loc 1 415 5 is_stmt 1 view .LVU129
 415:quantum/rgblight.c ****         eeconfig_update_rgblight(rgblight_config.raw);  // EECONFIG needs to be increased to suppor
 553               		.loc 1 415 8 is_stmt 0 view .LVU130
 554 000e 8823      		tst r24
 555 0010 01F0      		breq .L25
 416:quantum/rgblight.c ****     }
 556               		.loc 1 416 9 is_stmt 1 view .LVU131
 557 0012 6091 0000 		lds r22,rgblight_config
 558 0016 7091 0000 		lds r23,rgblight_config+1
 559 001a 8091 0000 		lds r24,rgblight_config+2
 560 001e 9091 0000 		lds r25,rgblight_config+3
 561 0022 0C94 0000 		jmp eeconfig_update_rgblight
 562               	.LVL24:
 563               	.L25:
 564               	/* epilogue start */
 418:quantum/rgblight.c **** void rgblight_increase_speed(void) { rgblight_increase_speed_helper(true); }
 565               		.loc 1 418 1 is_stmt 0 view .LVU132
 566 0026 0895      		ret
 567               		.cfi_endproc
 568               	.LFE136:
 570               		.section	.text.rgblight_increase_speed,"ax",@progbits
 571               	.global	rgblight_increase_speed
 573               	rgblight_increase_speed:
 574               	.LFB137:
 419:quantum/rgblight.c **** void rgblight_increase_speed_noeeprom(void) { rgblight_increase_speed_helper(false); }
 575               		.loc 1 419 36 is_stmt 1 view -0
 576               		.cfi_startproc
 577               	/* prologue: function */
 578               	/* frame size = 0 */
 579               	/* stack size = 0 */
 580               	.L__stack_usage = 0
 419:quantum/rgblight.c **** void rgblight_increase_speed_noeeprom(void) { rgblight_increase_speed_helper(false); }
 581               		.loc 1 419 38 view .LVU134
 582 0000 81E0      		ldi r24,lo8(1)
 583 0002 0C94 0000 		jmp rgblight_increase_speed_helper
 584               	.LVL25:
 585               		.cfi_endproc
 586               	.LFE137:
 588               		.section	.text.rgblight_increase_speed_noeeprom,"ax",@progbits
 589               	.global	rgblight_increase_speed_noeeprom
 591               	rgblight_increase_speed_noeeprom:
 592               	.LFB138:
 420:quantum/rgblight.c **** 
 593               		.loc 1 420 45 view -0
 594               		.cfi_startproc
 595               	/* prologue: function */
 596               	/* frame size = 0 */
 597               	/* stack size = 0 */
 598               	.L__stack_usage = 0
 420:quantum/rgblight.c **** 
 599               		.loc 1 420 47 view .LVU136
 600 0000 80E0      		ldi r24,0
 601 0002 0C94 0000 		jmp rgblight_increase_speed_helper
 602               	.LVL26:
 603               		.cfi_endproc
 604               	.LFE138:
 606               		.section	.text.rgblight_decrease_speed_helper,"ax",@progbits
 607               	.global	rgblight_decrease_speed_helper
 609               	rgblight_decrease_speed_helper:
 610               	.LVL27:
 611               	.LFB139:
 422:quantum/rgblight.c ****     if (rgblight_config.speed > 0) rgblight_config.speed--;
 612               		.loc 1 422 59 view -0
 613               		.cfi_startproc
 614               	/* prologue: function */
 615               	/* frame size = 0 */
 616               	/* stack size = 0 */
 617               	.L__stack_usage = 0
 423:quantum/rgblight.c ****     // RGBLIGHT_SPLIT_SET_CHANGE_HSVS; // NEED??
 618               		.loc 1 423 5 view .LVU138
 423:quantum/rgblight.c ****     // RGBLIGHT_SPLIT_SET_CHANGE_HSVS; // NEED??
 619               		.loc 1 423 24 is_stmt 0 view .LVU139
 620 0000 9091 0000 		lds r25,rgblight_config+4
 423:quantum/rgblight.c ****     // RGBLIGHT_SPLIT_SET_CHANGE_HSVS; // NEED??
 621               		.loc 1 423 8 view .LVU140
 622 0004 9923      		tst r25
 623 0006 01F0      		breq .L31
 423:quantum/rgblight.c ****     // RGBLIGHT_SPLIT_SET_CHANGE_HSVS; // NEED??
 624               		.loc 1 423 36 is_stmt 1 discriminator 1 view .LVU141
 423:quantum/rgblight.c ****     // RGBLIGHT_SPLIT_SET_CHANGE_HSVS; // NEED??
 625               		.loc 1 423 57 is_stmt 0 discriminator 1 view .LVU142
 626 0008 9150      		subi r25,lo8(-(-1))
 627 000a 9093 0000 		sts rgblight_config+4,r25
 628               	.L31:
 425:quantum/rgblight.c ****         eeconfig_update_rgblight(rgblight_config.raw);  // EECONFIG needs to be increased to suppor
 629               		.loc 1 425 5 is_stmt 1 view .LVU143
 425:quantum/rgblight.c ****         eeconfig_update_rgblight(rgblight_config.raw);  // EECONFIG needs to be increased to suppor
 630               		.loc 1 425 8 is_stmt 0 view .LVU144
 631 000e 8823      		tst r24
 632 0010 01F0      		breq .L30
 426:quantum/rgblight.c ****     }
 633               		.loc 1 426 9 is_stmt 1 view .LVU145
 634 0012 6091 0000 		lds r22,rgblight_config
 635 0016 7091 0000 		lds r23,rgblight_config+1
 636 001a 8091 0000 		lds r24,rgblight_config+2
 637 001e 9091 0000 		lds r25,rgblight_config+3
 638 0022 0C94 0000 		jmp eeconfig_update_rgblight
 639               	.LVL28:
 640               	.L30:
 641               	/* epilogue start */
 428:quantum/rgblight.c **** void rgblight_decrease_speed(void) { rgblight_decrease_speed_helper(true); }
 642               		.loc 1 428 1 is_stmt 0 view .LVU146
 643 0026 0895      		ret
 644               		.cfi_endproc
 645               	.LFE139:
 647               		.section	.text.rgblight_decrease_speed,"ax",@progbits
 648               	.global	rgblight_decrease_speed
 650               	rgblight_decrease_speed:
 651               	.LFB140:
 429:quantum/rgblight.c **** void rgblight_decrease_speed_noeeprom(void) { rgblight_decrease_speed_helper(false); }
 652               		.loc 1 429 36 is_stmt 1 view -0
 653               		.cfi_startproc
 654               	/* prologue: function */
 655               	/* frame size = 0 */
 656               	/* stack size = 0 */
 657               	.L__stack_usage = 0
 429:quantum/rgblight.c **** void rgblight_decrease_speed_noeeprom(void) { rgblight_decrease_speed_helper(false); }
 658               		.loc 1 429 38 view .LVU148
 659 0000 81E0      		ldi r24,lo8(1)
 660 0002 0C94 0000 		jmp rgblight_decrease_speed_helper
 661               	.LVL29:
 662               		.cfi_endproc
 663               	.LFE140:
 665               		.section	.text.rgblight_decrease_speed_noeeprom,"ax",@progbits
 666               	.global	rgblight_decrease_speed_noeeprom
 668               	rgblight_decrease_speed_noeeprom:
 669               	.LFB141:
 430:quantum/rgblight.c **** 
 670               		.loc 1 430 45 view -0
 671               		.cfi_startproc
 672               	/* prologue: function */
 673               	/* frame size = 0 */
 674               	/* stack size = 0 */
 675               	.L__stack_usage = 0
 430:quantum/rgblight.c **** 
 676               		.loc 1 430 47 view .LVU150
 677 0000 80E0      		ldi r24,0
 678 0002 0C94 0000 		jmp rgblight_decrease_speed_helper
 679               	.LVL30:
 680               		.cfi_endproc
 681               	.LFE141:
 683               		.section	.text.rgblight_get_speed,"ax",@progbits
 684               	.global	rgblight_get_speed
 686               	rgblight_get_speed:
 687               	.LFB146:
 516:quantum/rgblight.c **** 
 688               		.loc 1 516 34 view -0
 689               		.cfi_startproc
 690               	/* prologue: function */
 691               	/* frame size = 0 */
 692               	/* stack size = 0 */
 693               	.L__stack_usage = 0
 516:quantum/rgblight.c **** 
 694               		.loc 1 516 36 view .LVU152
 516:quantum/rgblight.c **** 
 695               		.loc 1 516 1 is_stmt 0 view .LVU153
 696 0000 8091 0000 		lds r24,rgblight_config+4
 697               	/* epilogue start */
 698 0004 0895      		ret
 699               		.cfi_endproc
 700               	.LFE146:
 702               		.section	.text.rgblight_set_speed_eeprom_helper,"ax",@progbits
 703               	.global	rgblight_set_speed_eeprom_helper
 705               	rgblight_set_speed_eeprom_helper:
 706               	.LVL31:
 707               	.LFB147:
 518:quantum/rgblight.c ****     rgblight_config.speed = speed;
 708               		.loc 1 518 76 is_stmt 1 view -0
 709               		.cfi_startproc
 710               	/* prologue: function */
 711               	/* frame size = 0 */
 712               	/* stack size = 0 */
 713               	.L__stack_usage = 0
 519:quantum/rgblight.c ****     if (write_to_eeprom) {
 714               		.loc 1 519 5 view .LVU155
 519:quantum/rgblight.c ****     if (write_to_eeprom) {
 715               		.loc 1 519 27 is_stmt 0 view .LVU156
 716 0000 8093 0000 		sts rgblight_config+4,r24
 520:quantum/rgblight.c ****         eeconfig_update_rgblight(rgblight_config.raw);  // EECONFIG needs to be increased to suppor
 717               		.loc 1 520 5 is_stmt 1 view .LVU157
 520:quantum/rgblight.c ****         eeconfig_update_rgblight(rgblight_config.raw);  // EECONFIG needs to be increased to suppor
 718               		.loc 1 520 8 is_stmt 0 view .LVU158
 719 0004 6623      		tst r22
 720 0006 01F0      		breq .L39
 521:quantum/rgblight.c ****         dprintf("rgblight set speed [EEPROM]: %u\n", rgblight_config.speed);
 721               		.loc 1 521 9 is_stmt 1 view .LVU159
 722 0008 6091 0000 		lds r22,rgblight_config
 723 000c 7091 0000 		lds r23,rgblight_config+1
 724 0010 8091 0000 		lds r24,rgblight_config+2
 725 0014 9091 0000 		lds r25,rgblight_config+3
 726               	.LVL32:
 521:quantum/rgblight.c ****         dprintf("rgblight set speed [EEPROM]: %u\n", rgblight_config.speed);
 727               		.loc 1 521 9 is_stmt 0 view .LVU160
 728 0018 0C94 0000 		jmp eeconfig_update_rgblight
 729               	.LVL33:
 730               	.L39:
 731               	/* epilogue start */
 526:quantum/rgblight.c **** 
 732               		.loc 1 526 1 view .LVU161
 733 001c 0895      		ret
 734               		.cfi_endproc
 735               	.LFE147:
 737               		.section	.text.rgblight_set_speed,"ax",@progbits
 738               	.global	rgblight_set_speed
 740               	rgblight_set_speed:
 741               	.LVL34:
 742               	.LFB148:
 528:quantum/rgblight.c **** 
 743               		.loc 1 528 40 is_stmt 1 view -0
 744               		.cfi_startproc
 745               	/* prologue: function */
 746               	/* frame size = 0 */
 747               	/* stack size = 0 */
 748               	.L__stack_usage = 0
 528:quantum/rgblight.c **** 
 749               		.loc 1 528 42 view .LVU163
 750 0000 61E0      		ldi r22,lo8(1)
 751 0002 0C94 0000 		jmp rgblight_set_speed_eeprom_helper
 752               	.LVL35:
 528:quantum/rgblight.c **** 
 753               		.loc 1 528 42 is_stmt 0 view .LVU164
 754               		.cfi_endproc
 755               	.LFE148:
 757               		.section	.text.rgblight_set_speed_noeeprom,"ax",@progbits
 758               	.global	rgblight_set_speed_noeeprom
 760               	rgblight_set_speed_noeeprom:
 761               	.LVL36:
 762               	.LFB149:
 530:quantum/rgblight.c **** 
 763               		.loc 1 530 49 is_stmt 1 view -0
 764               		.cfi_startproc
 765               	/* prologue: function */
 766               	/* frame size = 0 */
 767               	/* stack size = 0 */
 768               	.L__stack_usage = 0
 530:quantum/rgblight.c **** 
 769               		.loc 1 530 51 view .LVU166
 770 0000 60E0      		ldi r22,0
 771 0002 0C94 0000 		jmp rgblight_set_speed_eeprom_helper
 772               	.LVL37:
 530:quantum/rgblight.c **** 
 773               		.loc 1 530 51 is_stmt 0 view .LVU167
 774               		.cfi_endproc
 775               	.LFE149:
 777               		.section	.text.rgblight_get_hue,"ax",@progbits
 778               	.global	rgblight_get_hue
 780               	rgblight_get_hue:
 781               	.LFB150:
 532:quantum/rgblight.c **** 
 782               		.loc 1 532 32 is_stmt 1 view -0
 783               		.cfi_startproc
 784               	/* prologue: function */
 785               	/* frame size = 0 */
 786               	/* stack size = 0 */
 787               	.L__stack_usage = 0
 532:quantum/rgblight.c **** 
 788               		.loc 1 532 34 view .LVU169
 532:quantum/rgblight.c **** 
 789               		.loc 1 532 1 is_stmt 0 view .LVU170
 790 0000 8091 0000 		lds r24,rgblight_config+1
 791               	/* epilogue start */
 792 0004 0895      		ret
 793               		.cfi_endproc
 794               	.LFE150:
 796               		.section	.text.rgblight_get_sat,"ax",@progbits
 797               	.global	rgblight_get_sat
 799               	rgblight_get_sat:
 800               	.LFB151:
 534:quantum/rgblight.c **** 
 801               		.loc 1 534 32 is_stmt 1 view -0
 802               		.cfi_startproc
 803               	/* prologue: function */
 804               	/* frame size = 0 */
 805               	/* stack size = 0 */
 806               	.L__stack_usage = 0
 534:quantum/rgblight.c **** 
 807               		.loc 1 534 34 view .LVU172
 534:quantum/rgblight.c **** 
 808               		.loc 1 534 1 is_stmt 0 view .LVU173
 809 0000 8091 0000 		lds r24,rgblight_config+2
 810               	/* epilogue start */
 811 0004 0895      		ret
 812               		.cfi_endproc
 813               	.LFE151:
 815               		.section	.text.rgblight_get_val,"ax",@progbits
 816               	.global	rgblight_get_val
 818               	rgblight_get_val:
 819               	.LFB152:
 536:quantum/rgblight.c **** 
 820               		.loc 1 536 32 is_stmt 1 view -0
 821               		.cfi_startproc
 822               	/* prologue: function */
 823               	/* frame size = 0 */
 824               	/* stack size = 0 */
 825               	.L__stack_usage = 0
 536:quantum/rgblight.c **** 
 826               		.loc 1 536 34 view .LVU175
 536:quantum/rgblight.c **** 
 827               		.loc 1 536 1 is_stmt 0 view .LVU176
 828 0000 8091 0000 		lds r24,rgblight_config+3
 829               	/* epilogue start */
 830 0004 0895      		ret
 831               		.cfi_endproc
 832               	.LFE152:
 834               		.section	.text.rgblight_get_hsv,"ax",@progbits
 835               	.global	rgblight_get_hsv
 837               	rgblight_get_hsv:
 838               	.LFB153:
 538:quantum/rgblight.c **** 
 839               		.loc 1 538 28 is_stmt 1 view -0
 840               		.cfi_startproc
 841               	/* prologue: function */
 842               	/* frame size = 0 */
 843               	/* stack size = 0 */
 844               	.L__stack_usage = 0
 538:quantum/rgblight.c **** 
 845               		.loc 1 538 30 view .LVU178
 538:quantum/rgblight.c **** 
 846               		.loc 1 538 79 is_stmt 0 view .LVU179
 847 0000 E0E0      		ldi r30,lo8(rgblight_config)
 848 0002 F0E0      		ldi r31,hi8(rgblight_config)
 849 0004 7281      		ldd r23,Z+2
 538:quantum/rgblight.c **** 
 850               		.loc 1 538 37 view .LVU180
 851 0006 6181      		ldd r22,Z+1
 538:quantum/rgblight.c **** 
 852               		.loc 1 538 1 view .LVU181
 853 0008 8381      		ldd r24,Z+3
 854               	/* epilogue start */
 855 000a 0895      		ret
 856               		.cfi_endproc
 857               	.LFE153:
 859               		.section	.text.rgblight_call_driver,"ax",@progbits
 860               		.weak	rgblight_call_driver
 862               	rgblight_call_driver:
 863               	.LVL38:
 864               	.LFB160:
 711:quantum/rgblight.c **** 
 865               		.loc 1 711 88 is_stmt 1 view -0
 866               		.cfi_startproc
 867               	/* prologue: function */
 868               	/* frame size = 0 */
 869               	/* stack size = 0 */
 870               	.L__stack_usage = 0
 711:quantum/rgblight.c **** 
 871               		.loc 1 711 90 view .LVU183
 872 0000 70E0      		ldi r23,0
 873 0002 0C94 0000 		jmp ws2812_setleds
 874               	.LVL39:
 711:quantum/rgblight.c **** 
 875               		.loc 1 711 90 is_stmt 0 view .LVU184
 876               		.cfi_endproc
 877               	.LFE160:
 879               		.section	.text.rgblight_set,"ax",@progbits
 880               	.global	rgblight_set
 882               	rgblight_set:
 883               	.LFB161:
 715:quantum/rgblight.c ****     LED_TYPE *start_led;
 884               		.loc 1 715 25 is_stmt 1 view -0
 885               		.cfi_startproc
 886               	/* prologue: function */
 887               	/* frame size = 0 */
 888               	/* stack size = 0 */
 889               	.L__stack_usage = 0
 716:quantum/rgblight.c ****     uint8_t   num_leds = rgblight_ranges.clipping_num_leds;
 890               		.loc 1 716 5 view .LVU186
 717:quantum/rgblight.c **** 
 891               		.loc 1 717 5 view .LVU187
 717:quantum/rgblight.c **** 
 892               		.loc 1 717 15 is_stmt 0 view .LVU188
 893 0000 6091 0000 		lds r22,rgblight_ranges+1
 894               	.LVL40:
 719:quantum/rgblight.c ****         for (uint8_t i = rgblight_ranges.effect_start_pos; i < rgblight_ranges.effect_end_pos; i++)
 895               		.loc 1 719 5 is_stmt 1 view .LVU189
 719:quantum/rgblight.c ****         for (uint8_t i = rgblight_ranges.effect_start_pos; i < rgblight_ranges.effect_end_pos; i++)
 896               		.loc 1 719 25 is_stmt 0 view .LVU190
 897 0004 8091 0000 		lds r24,rgblight_config
 719:quantum/rgblight.c ****         for (uint8_t i = rgblight_ranges.effect_start_pos; i < rgblight_ranges.effect_end_pos; i++)
 898               		.loc 1 719 8 view .LVU191
 899 0008 80FF      		sbrs r24,0
 900 000a 00C0      		rjmp .L49
 901               	.L52:
 747:quantum/rgblight.c **** #    endif
 902               		.loc 1 747 5 is_stmt 1 view .LVU192
 903               	.LVL41:
 755:quantum/rgblight.c **** }
 904               		.loc 1 755 5 view .LVU193
 747:quantum/rgblight.c **** #    endif
 905               		.loc 1 747 21 is_stmt 0 view .LVU194
 906 000c 8091 0000 		lds r24,rgblight_ranges
 907 0010 23E0      		ldi r18,lo8(3)
 908 0012 829F      		mul r24,r18
 909 0014 C001      		movw r24,r0
 910 0016 1124      		clr __zero_reg__
 755:quantum/rgblight.c **** }
 911               		.loc 1 755 5 view .LVU195
 912 0018 8050      		subi r24,lo8(-(led))
 913 001a 9040      		sbci r25,hi8(-(led))
 914 001c 0C94 0000 		jmp rgblight_call_driver
 915               	.LVL42:
 916               	.L49:
 720:quantum/rgblight.c ****             led[i].r = 0;
 917               		.loc 1 720 9 is_stmt 1 view .LVU196
 918               	.LBB22:
 720:quantum/rgblight.c ****             led[i].r = 0;
 919               		.loc 1 720 14 view .LVU197
 720:quantum/rgblight.c ****             led[i].r = 0;
 920               		.loc 1 720 22 is_stmt 0 view .LVU198
 921 0020 8091 0000 		lds r24,rgblight_ranges+2
 922               	.LVL43:
 720:quantum/rgblight.c ****             led[i].r = 0;
 923               		.loc 1 720 79 view .LVU199
 924 0024 9091 0000 		lds r25,rgblight_ranges+3
 925 0028 23E0      		ldi r18,lo8(3)
 926 002a 829F      		mul r24,r18
 927 002c F001      		movw r30,r0
 928 002e 1124      		clr __zero_reg__
 929 0030 E050      		subi r30,lo8(-(led))
 930 0032 F040      		sbci r31,hi8(-(led))
 931               	.L50:
 720:quantum/rgblight.c ****             led[i].r = 0;
 932               		.loc 1 720 60 is_stmt 1 discriminator 1 view .LVU200
 720:quantum/rgblight.c ****             led[i].r = 0;
 933               		.loc 1 720 9 is_stmt 0 discriminator 1 view .LVU201
 934 0034 8917      		cp r24,r25
 935 0036 00F4      		brsh .L52
 721:quantum/rgblight.c ****             led[i].g = 0;
 936               		.loc 1 721 13 is_stmt 1 discriminator 3 view .LVU202
 721:quantum/rgblight.c ****             led[i].g = 0;
 937               		.loc 1 721 22 is_stmt 0 discriminator 3 view .LVU203
 938 0038 1182      		std Z+1,__zero_reg__
 722:quantum/rgblight.c ****             led[i].b = 0;
 939               		.loc 1 722 13 is_stmt 1 discriminator 3 view .LVU204
 722:quantum/rgblight.c ****             led[i].b = 0;
 940               		.loc 1 722 22 is_stmt 0 discriminator 3 view .LVU205
 941 003a 1082      		st Z,__zero_reg__
 723:quantum/rgblight.c **** #    ifdef RGBW
 942               		.loc 1 723 13 is_stmt 1 discriminator 3 view .LVU206
 723:quantum/rgblight.c **** #    ifdef RGBW
 943               		.loc 1 723 22 is_stmt 0 discriminator 3 view .LVU207
 944 003c 1282      		std Z+2,__zero_reg__
 720:quantum/rgblight.c ****             led[i].r = 0;
 945               		.loc 1 720 96 is_stmt 1 discriminator 3 view .LVU208
 720:quantum/rgblight.c ****             led[i].r = 0;
 946               		.loc 1 720 97 is_stmt 0 discriminator 3 view .LVU209
 947 003e 8F5F      		subi r24,lo8(-(1))
 948               	.LVL44:
 720:quantum/rgblight.c ****             led[i].r = 0;
 949               		.loc 1 720 97 discriminator 3 view .LVU210
 950 0040 3396      		adiw r30,3
 951 0042 00C0      		rjmp .L50
 952               	.LBE22:
 953               		.cfi_endproc
 954               	.LFE161:
 956               		.section	.text.rgblight_setrgb,"ax",@progbits
 957               	.global	rgblight_setrgb
 959               	rgblight_setrgb:
 960               	.LVL45:
 961               	.LFB154:
 540:quantum/rgblight.c ****     if (!rgblight_config.enable) {
 962               		.loc 1 540 55 is_stmt 1 view -0
 963               		.cfi_startproc
 964               	/* prologue: function */
 965               	/* frame size = 0 */
 966               	/* stack size = 0 */
 967               	.L__stack_usage = 0
 541:quantum/rgblight.c ****         return;
 968               		.loc 1 541 5 view .LVU212
 541:quantum/rgblight.c ****         return;
 969               		.loc 1 541 25 is_stmt 0 view .LVU213
 970 0000 9091 0000 		lds r25,rgblight_config
 541:quantum/rgblight.c ****         return;
 971               		.loc 1 541 8 view .LVU214
 972 0004 90FF      		sbrs r25,0
 973 0006 00C0      		rjmp .L53
 545:quantum/rgblight.c ****         led[i].r = r;
 974               		.loc 1 545 5 is_stmt 1 view .LVU215
 975               	.LBB23:
 545:quantum/rgblight.c ****         led[i].r = r;
 976               		.loc 1 545 10 view .LVU216
 545:quantum/rgblight.c ****         led[i].r = r;
 977               		.loc 1 545 18 is_stmt 0 view .LVU217
 978 0008 9091 0000 		lds r25,rgblight_ranges+2
 979               	.LVL46:
 545:quantum/rgblight.c ****         led[i].r = r;
 980               		.loc 1 545 75 view .LVU218
 981 000c 2091 0000 		lds r18,rgblight_ranges+3
 982 0010 33E0      		ldi r19,lo8(3)
 983 0012 939F      		mul r25,r19
 984 0014 F001      		movw r30,r0
 985 0016 1124      		clr __zero_reg__
 986 0018 E050      		subi r30,lo8(-(led))
 987 001a F040      		sbci r31,hi8(-(led))
 988               	.L55:
 545:quantum/rgblight.c ****         led[i].r = r;
 989               		.loc 1 545 56 is_stmt 1 discriminator 1 view .LVU219
 545:quantum/rgblight.c ****         led[i].r = r;
 990               		.loc 1 545 5 is_stmt 0 discriminator 1 view .LVU220
 991 001c 9217      		cp r25,r18
 992 001e 00F0      		brlo .L56
 545:quantum/rgblight.c ****         led[i].r = r;
 993               		.loc 1 545 5 discriminator 1 view .LVU221
 994               	.LBE23:
 553:quantum/rgblight.c **** }
 995               		.loc 1 553 5 is_stmt 1 view .LVU222
 996 0020 0C94 0000 		jmp rgblight_set
 997               	.LVL47:
 998               	.L56:
 999               	.LBB24:
 546:quantum/rgblight.c ****         led[i].g = g;
 1000               		.loc 1 546 9 discriminator 3 view .LVU223
 546:quantum/rgblight.c ****         led[i].g = g;
 1001               		.loc 1 546 18 is_stmt 0 discriminator 3 view .LVU224
 1002 0024 8183      		std Z+1,r24
 547:quantum/rgblight.c ****         led[i].b = b;
 1003               		.loc 1 547 9 is_stmt 1 discriminator 3 view .LVU225
 547:quantum/rgblight.c ****         led[i].b = b;
 1004               		.loc 1 547 18 is_stmt 0 discriminator 3 view .LVU226
 1005 0026 6083      		st Z,r22
 548:quantum/rgblight.c **** #ifdef RGBW
 1006               		.loc 1 548 9 is_stmt 1 discriminator 3 view .LVU227
 548:quantum/rgblight.c **** #ifdef RGBW
 1007               		.loc 1 548 18 is_stmt 0 discriminator 3 view .LVU228
 1008 0028 4283      		std Z+2,r20
 545:quantum/rgblight.c ****         led[i].r = r;
 1009               		.loc 1 545 92 is_stmt 1 discriminator 3 view .LVU229
 545:quantum/rgblight.c ****         led[i].r = r;
 1010               		.loc 1 545 93 is_stmt 0 discriminator 3 view .LVU230
 1011 002a 9F5F      		subi r25,lo8(-(1))
 1012               	.LVL48:
 545:quantum/rgblight.c ****         led[i].r = r;
 1013               		.loc 1 545 93 discriminator 3 view .LVU231
 1014 002c 3396      		adiw r30,3
 1015 002e 00C0      		rjmp .L55
 1016               	.LVL49:
 1017               	.L53:
 1018               	/* epilogue start */
 545:quantum/rgblight.c ****         led[i].r = r;
 1019               		.loc 1 545 93 discriminator 3 view .LVU232
 1020               	.LBE24:
 554:quantum/rgblight.c **** 
 1021               		.loc 1 554 1 view .LVU233
 1022 0030 0895      		ret
 1023               		.cfi_endproc
 1024               	.LFE154:
 1026               		.section	.text.rgblight_sethsv_noeeprom_old,"ax",@progbits
 1027               	.global	rgblight_sethsv_noeeprom_old
 1029               	rgblight_sethsv_noeeprom_old:
 1030               	.LVL50:
 1031               	.LFB142:
 432:quantum/rgblight.c ****     if (rgblight_config.enable) {
 1032               		.loc 1 432 74 is_stmt 1 view -0
 1033               		.cfi_startproc
 432:quantum/rgblight.c ****     if (rgblight_config.enable) {
 1034               		.loc 1 432 74 is_stmt 0 view .LVU235
 1035 0000 CF93      		push r28
 1036               	.LCFI6:
 1037               		.cfi_def_cfa_offset 3
 1038               		.cfi_offset 28, -2
 1039 0002 DF93      		push r29
 1040               	.LCFI7:
 1041               		.cfi_def_cfa_offset 4
 1042               		.cfi_offset 29, -3
 1043 0004 00D0      		rcall .
 1044 0006 0F92      		push __tmp_reg__
 1045               	.LCFI8:
 1046               		.cfi_def_cfa_offset 7
 1047 0008 CDB7      		in r28,__SP_L__
 1048 000a DEB7      		in r29,__SP_H__
 1049               	.LCFI9:
 1050               		.cfi_def_cfa_register 28
 1051               	/* prologue: function */
 1052               	/* frame size = 3 */
 1053               	/* stack size = 5 */
 1054               	.L__stack_usage = 5
 433:quantum/rgblight.c ****         LED_TYPE tmp_led;
 1055               		.loc 1 433 5 is_stmt 1 view .LVU236
 433:quantum/rgblight.c ****         LED_TYPE tmp_led;
 1056               		.loc 1 433 9 is_stmt 0 view .LVU237
 1057 000c 9091 0000 		lds r25,rgblight_config
 433:quantum/rgblight.c ****         LED_TYPE tmp_led;
 1058               		.loc 1 433 8 view .LVU238
 1059 0010 90FF      		sbrs r25,0
 1060 0012 00C0      		rjmp .L57
 1061               	.LBB25:
 434:quantum/rgblight.c ****         sethsv(hue, sat, val, &tmp_led);
 1062               		.loc 1 434 9 is_stmt 1 view .LVU239
 435:quantum/rgblight.c ****         rgblight_setrgb(tmp_led.r, tmp_led.g, tmp_led.b);
 1063               		.loc 1 435 9 view .LVU240
 1064 0014 9E01      		movw r18,r28
 1065 0016 2F5F      		subi r18,-1
 1066 0018 3F4F      		sbci r19,-1
 1067 001a 0E94 0000 		call sethsv
 1068               	.LVL51:
 436:quantum/rgblight.c ****     }
 1069               		.loc 1 436 9 view .LVU241
 1070 001e 4B81      		ldd r20,Y+3
 1071 0020 6981      		ldd r22,Y+1
 1072 0022 8A81      		ldd r24,Y+2
 1073 0024 0E94 0000 		call rgblight_setrgb
 1074               	.LVL52:
 1075               	.L57:
 1076               	/* epilogue start */
 1077               	.LBE25:
 438:quantum/rgblight.c **** 
 1078               		.loc 1 438 1 is_stmt 0 view .LVU242
 1079 0028 0F90      		pop __tmp_reg__
 1080 002a 0F90      		pop __tmp_reg__
 1081 002c 0F90      		pop __tmp_reg__
 1082 002e DF91      		pop r29
 1083 0030 CF91      		pop r28
 1084 0032 0895      		ret
 1085               		.cfi_endproc
 1086               	.LFE142:
 1088               		.section	.text.rgblight_effect_breathing,"ax",@progbits
 1089               	.global	rgblight_effect_breathing
 1091               	rgblight_effect_breathing:
 1092               	.LVL53:
 1093               	.LFB173:
 870:quantum/rgblight.c **** 
 871:quantum/rgblight.c **** void rgblight_task(void) {
 872:quantum/rgblight.c ****     if (rgblight_status.timer_enabled) {
 873:quantum/rgblight.c ****         effect_func_t effect_func   = rgblight_effect_dummy;
 874:quantum/rgblight.c ****         uint16_t      interval_time = 2000;  // dummy interval
 875:quantum/rgblight.c ****         uint8_t       delta         = rgblight_config.mode - rgblight_status.base_mode;
 876:quantum/rgblight.c ****         animation_status.delta      = delta;
 877:quantum/rgblight.c **** 
 878:quantum/rgblight.c ****         // static light mode, do nothing here
 879:quantum/rgblight.c ****         if (1 == 0) {  // dummy
 880:quantum/rgblight.c ****         }
 881:quantum/rgblight.c **** #    ifdef RGBLIGHT_EFFECT_BREATHING
 882:quantum/rgblight.c ****         else if (rgblight_status.base_mode == RGBLIGHT_MODE_BREATHING) {
 883:quantum/rgblight.c ****             // breathing mode
 884:quantum/rgblight.c ****             interval_time = get_interval_time(&RGBLED_BREATHING_INTERVALS[delta], 1, 100);
 885:quantum/rgblight.c ****             effect_func   = rgblight_effect_breathing;
 886:quantum/rgblight.c ****         }
 887:quantum/rgblight.c **** #    endif
 888:quantum/rgblight.c **** #    ifdef RGBLIGHT_EFFECT_RAINBOW_MOOD
 889:quantum/rgblight.c ****         else if (rgblight_status.base_mode == RGBLIGHT_MODE_RAINBOW_MOOD) {
 890:quantum/rgblight.c ****             // rainbow mood mode
 891:quantum/rgblight.c ****             interval_time = get_interval_time(&RGBLED_RAINBOW_MOOD_INTERVALS[delta], 5, 100);
 892:quantum/rgblight.c ****             effect_func   = rgblight_effect_rainbow_mood;
 893:quantum/rgblight.c ****         }
 894:quantum/rgblight.c **** #    endif
 895:quantum/rgblight.c **** #    ifdef RGBLIGHT_EFFECT_RAINBOW_SWIRL
 896:quantum/rgblight.c ****         else if (rgblight_status.base_mode == RGBLIGHT_MODE_RAINBOW_SWIRL) {
 897:quantum/rgblight.c ****             // rainbow swirl mode
 898:quantum/rgblight.c ****             interval_time = get_interval_time(&RGBLED_RAINBOW_SWIRL_INTERVALS[delta / 2], 1, 100);
 899:quantum/rgblight.c ****             effect_func   = rgblight_effect_rainbow_swirl;
 900:quantum/rgblight.c ****         }
 901:quantum/rgblight.c **** #    endif
 902:quantum/rgblight.c **** #    ifdef RGBLIGHT_EFFECT_SNAKE
 903:quantum/rgblight.c ****         else if (rgblight_status.base_mode == RGBLIGHT_MODE_SNAKE) {
 904:quantum/rgblight.c ****             // snake mode
 905:quantum/rgblight.c ****             interval_time = get_interval_time(&RGBLED_SNAKE_INTERVALS[delta / 2], 1, 200);
 906:quantum/rgblight.c ****             effect_func   = rgblight_effect_snake;
 907:quantum/rgblight.c ****         }
 908:quantum/rgblight.c **** #    endif
 909:quantum/rgblight.c **** #    ifdef RGBLIGHT_EFFECT_KNIGHT
 910:quantum/rgblight.c ****         else if (rgblight_status.base_mode == RGBLIGHT_MODE_KNIGHT) {
 911:quantum/rgblight.c ****             // knight mode
 912:quantum/rgblight.c ****             interval_time = get_interval_time(&RGBLED_KNIGHT_INTERVALS[delta], 5, 100);
 913:quantum/rgblight.c ****             effect_func   = rgblight_effect_knight;
 914:quantum/rgblight.c ****         }
 915:quantum/rgblight.c **** #    endif
 916:quantum/rgblight.c **** #    ifdef RGBLIGHT_EFFECT_CHRISTMAS
 917:quantum/rgblight.c ****         else if (rgblight_status.base_mode == RGBLIGHT_MODE_CHRISTMAS) {
 918:quantum/rgblight.c ****             // christmas mode
 919:quantum/rgblight.c ****             interval_time = RGBLIGHT_EFFECT_CHRISTMAS_INTERVAL;
 920:quantum/rgblight.c ****             effect_func   = (effect_func_t)rgblight_effect_christmas;
 921:quantum/rgblight.c ****         }
 922:quantum/rgblight.c **** #    endif
 923:quantum/rgblight.c **** #    ifdef RGBLIGHT_EFFECT_RGB_TEST
 924:quantum/rgblight.c ****         else if (rgblight_status.base_mode == RGBLIGHT_MODE_RGB_TEST) {
 925:quantum/rgblight.c ****             // RGB test mode
 926:quantum/rgblight.c ****             interval_time = pgm_read_word(&RGBLED_RGBTEST_INTERVALS[0]);
 927:quantum/rgblight.c ****             effect_func   = (effect_func_t)rgblight_effect_rgbtest;
 928:quantum/rgblight.c ****         }
 929:quantum/rgblight.c **** #    endif
 930:quantum/rgblight.c **** #    ifdef RGBLIGHT_EFFECT_ALTERNATING
 931:quantum/rgblight.c ****         else if (rgblight_status.base_mode == RGBLIGHT_MODE_ALTERNATING) {
 932:quantum/rgblight.c ****             interval_time = 500;
 933:quantum/rgblight.c ****             effect_func   = (effect_func_t)rgblight_effect_alternating;
 934:quantum/rgblight.c ****         }
 935:quantum/rgblight.c **** #    endif
 936:quantum/rgblight.c **** #    ifdef RGBLIGHT_EFFECT_TWINKLE
 937:quantum/rgblight.c ****         else if (rgblight_status.base_mode == RGBLIGHT_MODE_TWINKLE) {
 938:quantum/rgblight.c ****             interval_time = get_interval_time(&RGBLED_TWINKLE_INTERVALS[delta % 3], 5, 50);
 939:quantum/rgblight.c ****             effect_func   = (effect_func_t)rgblight_effect_twinkle;
 940:quantum/rgblight.c ****         }
 941:quantum/rgblight.c **** #    endif
 942:quantum/rgblight.c ****         if (animation_status.restart) {
 943:quantum/rgblight.c ****             animation_status.restart    = false;
 944:quantum/rgblight.c ****             animation_status.last_timer = timer_read() - interval_time - 1;
 945:quantum/rgblight.c ****             animation_status.pos16      = 0;  // restart signal to local each effect
 946:quantum/rgblight.c ****         }
 947:quantum/rgblight.c ****         if (timer_elapsed(animation_status.last_timer) >= interval_time) {
 948:quantum/rgblight.c **** #    if defined(RGBLIGHT_SPLIT) && !defined(RGBLIGHT_SPLIT_NO_ANIMATION_SYNC)
 949:quantum/rgblight.c ****             static uint16_t report_last_timer = 0;
 950:quantum/rgblight.c ****             static bool     tick_flag         = false;
 951:quantum/rgblight.c ****             uint16_t        oldpos16;
 952:quantum/rgblight.c ****             if (tick_flag) {
 953:quantum/rgblight.c ****                 tick_flag = false;
 954:quantum/rgblight.c ****                 if (timer_elapsed(report_last_timer) >= 30000) {
 955:quantum/rgblight.c ****                     report_last_timer = timer_read();
 956:quantum/rgblight.c ****                     dprintf("rgblight animation tick report to slave\n");
 957:quantum/rgblight.c ****                     RGBLIGHT_SPLIT_ANIMATION_TICK;
 958:quantum/rgblight.c ****                 }
 959:quantum/rgblight.c ****             }
 960:quantum/rgblight.c ****             oldpos16 = animation_status.pos16;
 961:quantum/rgblight.c **** #    endif
 962:quantum/rgblight.c ****             animation_status.last_timer += interval_time;
 963:quantum/rgblight.c ****             effect_func(&animation_status);
 964:quantum/rgblight.c **** #    if defined(RGBLIGHT_SPLIT) && !defined(RGBLIGHT_SPLIT_NO_ANIMATION_SYNC)
 965:quantum/rgblight.c ****             if (animation_status.pos16 == 0 && oldpos16 != 0) {
 966:quantum/rgblight.c ****                 tick_flag = true;
 967:quantum/rgblight.c ****             }
 968:quantum/rgblight.c **** #    endif
 969:quantum/rgblight.c ****         }
 970:quantum/rgblight.c ****     }
 971:quantum/rgblight.c **** 
 972:quantum/rgblight.c **** #    ifdef RGBLIGHT_LAYER_BLINK
 973:quantum/rgblight.c ****     rgblight_unblink_layers();
 974:quantum/rgblight.c **** #    endif
 975:quantum/rgblight.c **** }
 976:quantum/rgblight.c **** 
 977:quantum/rgblight.c **** #endif /* RGBLIGHT_USE_TIMER */
 978:quantum/rgblight.c **** 
 979:quantum/rgblight.c **** // Effects
 980:quantum/rgblight.c **** #ifdef RGBLIGHT_EFFECT_BREATHING
 981:quantum/rgblight.c **** 
 982:quantum/rgblight.c **** #    ifndef RGBLIGHT_EFFECT_BREATHE_CENTER
 983:quantum/rgblight.c **** #        ifndef RGBLIGHT_BREATHE_TABLE_SIZE
 984:quantum/rgblight.c **** #            define RGBLIGHT_BREATHE_TABLE_SIZE 256  // 256 or 128 or 64
 985:quantum/rgblight.c **** #        endif
 986:quantum/rgblight.c **** #        include <rgblight_breathe_table.h>
 987:quantum/rgblight.c **** #    endif
 988:quantum/rgblight.c **** 
 989:quantum/rgblight.c **** __attribute__((weak)) const uint8_t RGBLED_BREATHING_INTERVALS[] PROGMEM = {30, 20, 10, 5};
 990:quantum/rgblight.c **** 
 991:quantum/rgblight.c **** void rgblight_effect_breathing(animation_status_t *anim) {
 1094               		.loc 1 991 58 is_stmt 1 view -0
 1095               		.cfi_startproc
 1096               		.loc 1 991 58 is_stmt 0 view .LVU244
 1097 0000 CF93      		push r28
 1098               	.LCFI10:
 1099               		.cfi_def_cfa_offset 3
 1100               		.cfi_offset 28, -2
 1101 0002 DF93      		push r29
 1102               	.LCFI11:
 1103               		.cfi_def_cfa_offset 4
 1104               		.cfi_offset 29, -3
 1105               	/* prologue: function */
 1106               	/* frame size = 0 */
 1107               	/* stack size = 2 */
 1108               	.L__stack_usage = 2
 1109 0004 EC01      		movw r28,r24
 992:quantum/rgblight.c ****     float val;
 1110               		.loc 1 992 5 is_stmt 1 view .LVU245
 993:quantum/rgblight.c **** 
 994:quantum/rgblight.c ****     // http://sean.voisen.org/blog/2011/10/breathing-led-with-arduino/
 995:quantum/rgblight.c **** #    ifdef RGBLIGHT_EFFECT_BREATHE_TABLE
 996:quantum/rgblight.c ****     val = pgm_read_byte(&rgblight_effect_breathe_table[anim->pos / table_scale]);
 1111               		.loc 1 996 5 view .LVU246
 1112               	.LBB26:
 1113               		.loc 1 996 11 view .LVU247
 1114               	.LVL54:
 1115               		.loc 1 996 11 view .LVU248
 1116               		.loc 1 996 11 view .LVU249
 1117 0006 EC81      		ldd r30,Y+4
 1118 0008 F0E0      		ldi r31,0
 1119 000a E050      		subi r30,lo8(-(rgblight_effect_breathe_table))
 1120 000c F040      		sbci r31,hi8(-(rgblight_effect_breathe_table))
 1121               	/* #APP */
 1122               	 ;  996 "quantum/rgblight.c" 1
 1123 000e 4491      		lpm r20, Z
 1124               		
 1125               	 ;  0 "" 2
 1126               	.LVL55:
 1127               		.loc 1 996 11 view .LVU250
 1128               		.loc 1 996 11 is_stmt 0 view .LVU251
 1129               	/* #NOAPP */
 1130               	.LBE26:
 997:quantum/rgblight.c **** #    else
 998:quantum/rgblight.c ****     val = (exp(sin((anim->pos / 255.0) * M_PI)) - RGBLIGHT_EFFECT_BREATHE_CENTER / M_E) * (RGBLIGHT
 999:quantum/rgblight.c **** #    endif
1000:quantum/rgblight.c ****     rgblight_sethsv_noeeprom_old(rgblight_config.hue, rgblight_config.sat, val);
 1131               		.loc 1 1000 5 is_stmt 1 view .LVU252
 1132 0010 E0E0      		ldi r30,lo8(rgblight_config)
 1133 0012 F0E0      		ldi r31,hi8(rgblight_config)
 1134 0014 6281      		ldd r22,Z+2
 1135 0016 8181      		ldd r24,Z+1
 1136               	.LVL56:
 1137               		.loc 1 1000 5 is_stmt 0 view .LVU253
 1138 0018 0E94 0000 		call rgblight_sethsv_noeeprom_old
 1139               	.LVL57:
1001:quantum/rgblight.c ****     anim->pos = (anim->pos + 1);
 1140               		.loc 1 1001 5 is_stmt 1 view .LVU254
 1141               		.loc 1 1001 28 is_stmt 0 view .LVU255
 1142 001c 8C81      		ldd r24,Y+4
 1143 001e 8F5F      		subi r24,lo8(-(1))
 1144               		.loc 1 1001 15 view .LVU256
 1145 0020 8C83      		std Y+4,r24
 1146               	/* epilogue start */
1002:quantum/rgblight.c **** }
 1147               		.loc 1 1002 1 view .LVU257
 1148 0022 DF91      		pop r29
 1149 0024 CF91      		pop r28
 1150               	.LVL58:
 1151               		.loc 1 1002 1 view .LVU258
 1152 0026 0895      		ret
 1153               		.cfi_endproc
 1154               	.LFE173:
 1156               		.section	.text.rgblight_effect_rainbow_mood,"ax",@progbits
 1157               	.global	rgblight_effect_rainbow_mood
 1159               	rgblight_effect_rainbow_mood:
 1160               	.LVL59:
 1161               	.LFB174:
1003:quantum/rgblight.c **** #endif
1004:quantum/rgblight.c **** 
1005:quantum/rgblight.c **** #ifdef RGBLIGHT_EFFECT_RAINBOW_MOOD
1006:quantum/rgblight.c **** __attribute__((weak)) const uint8_t RGBLED_RAINBOW_MOOD_INTERVALS[] PROGMEM = {120, 60, 30};
1007:quantum/rgblight.c **** 
1008:quantum/rgblight.c **** void rgblight_effect_rainbow_mood(animation_status_t *anim) {
 1162               		.loc 1 1008 61 is_stmt 1 view -0
 1163               		.cfi_startproc
 1164               		.loc 1 1008 61 is_stmt 0 view .LVU260
 1165 0000 CF93      		push r28
 1166               	.LCFI12:
 1167               		.cfi_def_cfa_offset 3
 1168               		.cfi_offset 28, -2
 1169 0002 DF93      		push r29
 1170               	.LCFI13:
 1171               		.cfi_def_cfa_offset 4
 1172               		.cfi_offset 29, -3
 1173               	/* prologue: function */
 1174               	/* frame size = 0 */
 1175               	/* stack size = 2 */
 1176               	.L__stack_usage = 2
 1177 0004 EC01      		movw r28,r24
1009:quantum/rgblight.c ****     rgblight_sethsv_noeeprom_old(anim->current_hue, rgblight_config.sat, rgblight_config.val);
 1178               		.loc 1 1009 5 is_stmt 1 view .LVU261
 1179 0006 E0E0      		ldi r30,lo8(rgblight_config)
 1180 0008 F0E0      		ldi r31,hi8(rgblight_config)
 1181 000a 4381      		ldd r20,Z+3
 1182 000c 6281      		ldd r22,Z+2
 1183 000e 8C81      		ldd r24,Y+4
 1184               	.LVL60:
 1185               		.loc 1 1009 5 is_stmt 0 view .LVU262
 1186 0010 0E94 0000 		call rgblight_sethsv_noeeprom_old
 1187               	.LVL61:
1010:quantum/rgblight.c ****     anim->current_hue++;
 1188               		.loc 1 1010 5 is_stmt 1 view .LVU263
 1189               		.loc 1 1010 22 is_stmt 0 view .LVU264
 1190 0014 8C81      		ldd r24,Y+4
 1191 0016 8F5F      		subi r24,lo8(-(1))
 1192 0018 8C83      		std Y+4,r24
 1193               	/* epilogue start */
1011:quantum/rgblight.c **** }
 1194               		.loc 1 1011 1 view .LVU265
 1195 001a DF91      		pop r29
 1196 001c CF91      		pop r28
 1197               	.LVL62:
 1198               		.loc 1 1011 1 view .LVU266
 1199 001e 0895      		ret
 1200               		.cfi_endproc
 1201               	.LFE174:
 1203               		.section	.text.rgblight_effect_rgbtest,"ax",@progbits
 1204               	.global	rgblight_effect_rgbtest
 1206               	rgblight_effect_rgbtest:
 1207               	.LVL63:
 1208               	.LFB179:
1012:quantum/rgblight.c **** #endif
1013:quantum/rgblight.c **** 
1014:quantum/rgblight.c **** #ifdef RGBLIGHT_EFFECT_RAINBOW_SWIRL
1015:quantum/rgblight.c **** #    ifndef RGBLIGHT_RAINBOW_SWIRL_RANGE
1016:quantum/rgblight.c **** #        define RGBLIGHT_RAINBOW_SWIRL_RANGE 255
1017:quantum/rgblight.c **** #    endif
1018:quantum/rgblight.c **** 
1019:quantum/rgblight.c **** __attribute__((weak)) const uint8_t RGBLED_RAINBOW_SWIRL_INTERVALS[] PROGMEM = {100, 50, 20};
1020:quantum/rgblight.c **** 
1021:quantum/rgblight.c **** void rgblight_effect_rainbow_swirl(animation_status_t *anim) {
1022:quantum/rgblight.c ****     uint8_t hue;
1023:quantum/rgblight.c ****     uint8_t i;
1024:quantum/rgblight.c **** 
1025:quantum/rgblight.c ****     for (i = 0; i < rgblight_ranges.effect_num_leds; i++) {
1026:quantum/rgblight.c ****         hue = (RGBLIGHT_RAINBOW_SWIRL_RANGE / rgblight_ranges.effect_num_leds * i + anim->current_h
1027:quantum/rgblight.c ****         sethsv(hue, rgblight_config.sat, rgblight_config.val, (LED_TYPE *)&led[i + rgblight_ranges.
1028:quantum/rgblight.c ****     }
1029:quantum/rgblight.c ****     rgblight_set();
1030:quantum/rgblight.c **** 
1031:quantum/rgblight.c ****     if (anim->delta % 2) {
1032:quantum/rgblight.c ****         anim->current_hue++;
1033:quantum/rgblight.c ****     } else {
1034:quantum/rgblight.c ****         anim->current_hue--;
1035:quantum/rgblight.c ****     }
1036:quantum/rgblight.c **** }
1037:quantum/rgblight.c **** #endif
1038:quantum/rgblight.c **** 
1039:quantum/rgblight.c **** #ifdef RGBLIGHT_EFFECT_SNAKE
1040:quantum/rgblight.c **** __attribute__((weak)) const uint8_t RGBLED_SNAKE_INTERVALS[] PROGMEM = {100, 50, 20};
1041:quantum/rgblight.c **** 
1042:quantum/rgblight.c **** void rgblight_effect_snake(animation_status_t *anim) {
1043:quantum/rgblight.c ****     static uint8_t pos = 0;
1044:quantum/rgblight.c ****     uint8_t        i, j;
1045:quantum/rgblight.c ****     int8_t         k;
1046:quantum/rgblight.c ****     int8_t         increment = 1;
1047:quantum/rgblight.c **** 
1048:quantum/rgblight.c ****     if (anim->delta % 2) {
1049:quantum/rgblight.c ****         increment = -1;
1050:quantum/rgblight.c ****     }
1051:quantum/rgblight.c **** 
1052:quantum/rgblight.c **** #    if defined(RGBLIGHT_SPLIT) && !defined(RGBLIGHT_SPLIT_NO_ANIMATION_SYNC)
1053:quantum/rgblight.c ****     if (anim->pos == 0) {  // restart signal
1054:quantum/rgblight.c ****         if (increment == 1) {
1055:quantum/rgblight.c ****             pos = rgblight_ranges.effect_num_leds - 1;
1056:quantum/rgblight.c ****         } else {
1057:quantum/rgblight.c ****             pos = 0;
1058:quantum/rgblight.c ****         }
1059:quantum/rgblight.c ****         anim->pos = 1;
1060:quantum/rgblight.c ****     }
1061:quantum/rgblight.c **** #    endif
1062:quantum/rgblight.c **** 
1063:quantum/rgblight.c ****     for (i = 0; i < rgblight_ranges.effect_num_leds; i++) {
1064:quantum/rgblight.c ****         LED_TYPE *ledp = led + i + rgblight_ranges.effect_start_pos;
1065:quantum/rgblight.c ****         ledp->r        = 0;
1066:quantum/rgblight.c ****         ledp->g        = 0;
1067:quantum/rgblight.c ****         ledp->b        = 0;
1068:quantum/rgblight.c **** #    ifdef RGBW
1069:quantum/rgblight.c ****         ledp->w = 0;
1070:quantum/rgblight.c **** #    endif
1071:quantum/rgblight.c ****         for (j = 0; j < RGBLIGHT_EFFECT_SNAKE_LENGTH; j++) {
1072:quantum/rgblight.c ****             k = pos + j * increment;
1073:quantum/rgblight.c ****             if (k > RGBLED_NUM) {
1074:quantum/rgblight.c ****                 k = k % RGBLED_NUM;
1075:quantum/rgblight.c ****             }
1076:quantum/rgblight.c ****             if (k < 0) {
1077:quantum/rgblight.c ****                 k = k + rgblight_ranges.effect_num_leds;
1078:quantum/rgblight.c ****             }
1079:quantum/rgblight.c ****             if (i == k) {
1080:quantum/rgblight.c ****                 sethsv(rgblight_config.hue, rgblight_config.sat, (uint8_t)(rgblight_config.val * (R
1081:quantum/rgblight.c ****             }
1082:quantum/rgblight.c ****         }
1083:quantum/rgblight.c ****     }
1084:quantum/rgblight.c ****     rgblight_set();
1085:quantum/rgblight.c ****     if (increment == 1) {
1086:quantum/rgblight.c ****         if (pos - 1 < 0) {
1087:quantum/rgblight.c ****             pos = rgblight_ranges.effect_num_leds - 1;
1088:quantum/rgblight.c **** #    if defined(RGBLIGHT_SPLIT) && !defined(RGBLIGHT_SPLIT_NO_ANIMATION_SYNC)
1089:quantum/rgblight.c ****             anim->pos = 0;
1090:quantum/rgblight.c **** #    endif
1091:quantum/rgblight.c ****         } else {
1092:quantum/rgblight.c ****             pos -= 1;
1093:quantum/rgblight.c **** #    if defined(RGBLIGHT_SPLIT) && !defined(RGBLIGHT_SPLIT_NO_ANIMATION_SYNC)
1094:quantum/rgblight.c ****             anim->pos = 1;
1095:quantum/rgblight.c **** #    endif
1096:quantum/rgblight.c ****         }
1097:quantum/rgblight.c ****     } else {
1098:quantum/rgblight.c ****         pos = (pos + 1) % rgblight_ranges.effect_num_leds;
1099:quantum/rgblight.c **** #    if defined(RGBLIGHT_SPLIT) && !defined(RGBLIGHT_SPLIT_NO_ANIMATION_SYNC)
1100:quantum/rgblight.c ****         anim->pos = pos;
1101:quantum/rgblight.c **** #    endif
1102:quantum/rgblight.c ****     }
1103:quantum/rgblight.c **** }
1104:quantum/rgblight.c **** #endif
1105:quantum/rgblight.c **** 
1106:quantum/rgblight.c **** #ifdef RGBLIGHT_EFFECT_KNIGHT
1107:quantum/rgblight.c **** __attribute__((weak)) const uint8_t RGBLED_KNIGHT_INTERVALS[] PROGMEM = {127, 63, 31};
1108:quantum/rgblight.c **** 
1109:quantum/rgblight.c **** void rgblight_effect_knight(animation_status_t *anim) {
1110:quantum/rgblight.c ****     static int8_t low_bound  = 0;
1111:quantum/rgblight.c ****     static int8_t high_bound = RGBLIGHT_EFFECT_KNIGHT_LENGTH - 1;
1112:quantum/rgblight.c ****     static int8_t increment  = 1;
1113:quantum/rgblight.c ****     uint8_t       i, cur;
1114:quantum/rgblight.c **** 
1115:quantum/rgblight.c **** #    if defined(RGBLIGHT_SPLIT) && !defined(RGBLIGHT_SPLIT_NO_ANIMATION_SYNC)
1116:quantum/rgblight.c ****     if (anim->pos == 0) {  // restart signal
1117:quantum/rgblight.c ****         anim->pos  = 1;
1118:quantum/rgblight.c ****         low_bound  = 0;
1119:quantum/rgblight.c ****         high_bound = RGBLIGHT_EFFECT_KNIGHT_LENGTH - 1;
1120:quantum/rgblight.c ****         increment  = 1;
1121:quantum/rgblight.c ****     }
1122:quantum/rgblight.c **** #    endif
1123:quantum/rgblight.c ****     // Set all the LEDs to 0
1124:quantum/rgblight.c ****     for (i = rgblight_ranges.effect_start_pos; i < rgblight_ranges.effect_end_pos; i++) {
1125:quantum/rgblight.c ****         led[i].r = 0;
1126:quantum/rgblight.c ****         led[i].g = 0;
1127:quantum/rgblight.c ****         led[i].b = 0;
1128:quantum/rgblight.c **** #    ifdef RGBW
1129:quantum/rgblight.c ****         led[i].w = 0;
1130:quantum/rgblight.c **** #    endif
1131:quantum/rgblight.c ****     }
1132:quantum/rgblight.c ****     // Determine which LEDs should be lit up
1133:quantum/rgblight.c ****     for (i = 0; i < RGBLIGHT_EFFECT_KNIGHT_LED_NUM; i++) {
1134:quantum/rgblight.c ****         cur = (i + RGBLIGHT_EFFECT_KNIGHT_OFFSET) % rgblight_ranges.effect_num_leds + rgblight_rang
1135:quantum/rgblight.c **** 
1136:quantum/rgblight.c ****         if (i >= low_bound && i <= high_bound) {
1137:quantum/rgblight.c ****             sethsv(rgblight_config.hue, rgblight_config.sat, rgblight_config.val, (LED_TYPE *)&led[
1138:quantum/rgblight.c ****         } else {
1139:quantum/rgblight.c ****             led[cur].r = 0;
1140:quantum/rgblight.c ****             led[cur].g = 0;
1141:quantum/rgblight.c ****             led[cur].b = 0;
1142:quantum/rgblight.c **** #    ifdef RGBW
1143:quantum/rgblight.c ****             led[cur].w = 0;
1144:quantum/rgblight.c **** #    endif
1145:quantum/rgblight.c ****         }
1146:quantum/rgblight.c ****     }
1147:quantum/rgblight.c ****     rgblight_set();
1148:quantum/rgblight.c **** 
1149:quantum/rgblight.c ****     // Move from low_bound to high_bound changing the direction we increment each
1150:quantum/rgblight.c ****     // time a boundary is hit.
1151:quantum/rgblight.c ****     low_bound += increment;
1152:quantum/rgblight.c ****     high_bound += increment;
1153:quantum/rgblight.c **** 
1154:quantum/rgblight.c ****     if (high_bound <= 0 || low_bound >= RGBLIGHT_EFFECT_KNIGHT_LED_NUM - 1) {
1155:quantum/rgblight.c ****         increment = -increment;
1156:quantum/rgblight.c **** #    if defined(RGBLIGHT_SPLIT) && !defined(RGBLIGHT_SPLIT_NO_ANIMATION_SYNC)
1157:quantum/rgblight.c ****         if (increment == 1) {
1158:quantum/rgblight.c ****             anim->pos = 0;
1159:quantum/rgblight.c ****         }
1160:quantum/rgblight.c **** #    endif
1161:quantum/rgblight.c ****     }
1162:quantum/rgblight.c **** }
1163:quantum/rgblight.c **** #endif
1164:quantum/rgblight.c **** 
1165:quantum/rgblight.c **** #ifdef RGBLIGHT_EFFECT_CHRISTMAS
1166:quantum/rgblight.c **** #    define CUBED(x) ((x) * (x) * (x))
1167:quantum/rgblight.c **** 
1168:quantum/rgblight.c **** /**
1169:quantum/rgblight.c ****  * Christmas lights effect, with a smooth animation between red & green.
1170:quantum/rgblight.c ****  */
1171:quantum/rgblight.c **** void rgblight_effect_christmas(animation_status_t *anim) {
1172:quantum/rgblight.c ****     static int8_t increment = 1;
1173:quantum/rgblight.c ****     const uint8_t max_pos   = 32;
1174:quantum/rgblight.c ****     const uint8_t hue_green = 85;
1175:quantum/rgblight.c **** 
1176:quantum/rgblight.c ****     uint32_t xa;
1177:quantum/rgblight.c ****     uint8_t  hue, val;
1178:quantum/rgblight.c ****     uint8_t  i;
1179:quantum/rgblight.c **** 
1180:quantum/rgblight.c ****     // The effect works by animating anim->pos from 0 to 32 and back to 0.
1181:quantum/rgblight.c ****     // The pos is used in a cubic bezier formula to ease-in-out between red and green, leaving the 
1182:quantum/rgblight.c ****     xa  = CUBED((uint32_t)anim->pos);
1183:quantum/rgblight.c ****     hue = ((uint32_t)hue_green) * xa / (xa + CUBED((uint32_t)(max_pos - anim->pos)));
1184:quantum/rgblight.c ****     // Additionally, these interpolated colors get shown with a slightly darker value, to make them
1185:quantum/rgblight.c ****     val = 255 - (3 * (hue < hue_green / 2 ? hue : hue_green - hue) / 2);
1186:quantum/rgblight.c **** 
1187:quantum/rgblight.c ****     for (i = 0; i < rgblight_ranges.effect_num_leds; i++) {
1188:quantum/rgblight.c ****         uint8_t local_hue = (i / RGBLIGHT_EFFECT_CHRISTMAS_STEP) % 2 ? hue : hue_green - hue;
1189:quantum/rgblight.c ****         sethsv(local_hue, rgblight_config.sat, val, (LED_TYPE *)&led[i + rgblight_ranges.effect_sta
1190:quantum/rgblight.c ****     }
1191:quantum/rgblight.c ****     rgblight_set();
1192:quantum/rgblight.c **** 
1193:quantum/rgblight.c ****     if (anim->pos == 0) {
1194:quantum/rgblight.c ****         increment = 1;
1195:quantum/rgblight.c ****     } else if (anim->pos == max_pos) {
1196:quantum/rgblight.c ****         increment = -1;
1197:quantum/rgblight.c ****     }
1198:quantum/rgblight.c ****     anim->pos += increment;
1199:quantum/rgblight.c **** }
1200:quantum/rgblight.c **** #endif
1201:quantum/rgblight.c **** 
1202:quantum/rgblight.c **** #ifdef RGBLIGHT_EFFECT_RGB_TEST
1203:quantum/rgblight.c **** __attribute__((weak)) const uint16_t RGBLED_RGBTEST_INTERVALS[] PROGMEM = {1024};
1204:quantum/rgblight.c **** 
1205:quantum/rgblight.c **** void rgblight_effect_rgbtest(animation_status_t *anim) {
 1209               		.loc 1 1205 56 is_stmt 1 view -0
 1210               		.cfi_startproc
 1211               		.loc 1 1205 56 is_stmt 0 view .LVU268
 1212 0000 0F93      		push r16
 1213               	.LCFI14:
 1214               		.cfi_def_cfa_offset 3
 1215               		.cfi_offset 16, -2
 1216 0002 1F93      		push r17
 1217               	.LCFI15:
 1218               		.cfi_def_cfa_offset 4
 1219               		.cfi_offset 17, -3
 1220 0004 CF93      		push r28
 1221               	.LCFI16:
 1222               		.cfi_def_cfa_offset 5
 1223               		.cfi_offset 28, -4
 1224 0006 DF93      		push r29
 1225               	.LCFI17:
 1226               		.cfi_def_cfa_offset 6
 1227               		.cfi_offset 29, -5
 1228 0008 00D0      		rcall .
 1229 000a 0F92      		push __tmp_reg__
 1230               	.LCFI18:
 1231               		.cfi_def_cfa_offset 9
 1232 000c CDB7      		in r28,__SP_L__
 1233 000e DEB7      		in r29,__SP_H__
 1234               	.LCFI19:
 1235               		.cfi_def_cfa_register 28
 1236               	/* prologue: function */
 1237               	/* frame size = 3 */
 1238               	/* stack size = 7 */
 1239               	.L__stack_usage = 7
 1240 0010 8C01      		movw r16,r24
1206:quantum/rgblight.c ****     static uint8_t maxval = 0;
 1241               		.loc 1 1206 5 is_stmt 1 view .LVU269
1207:quantum/rgblight.c ****     uint8_t        g;
 1242               		.loc 1 1207 5 view .LVU270
1208:quantum/rgblight.c ****     uint8_t        r;
 1243               		.loc 1 1208 5 view .LVU271
1209:quantum/rgblight.c ****     uint8_t        b;
 1244               		.loc 1 1209 5 view .LVU272
1210:quantum/rgblight.c **** 
1211:quantum/rgblight.c ****     if (maxval == 0) {
 1245               		.loc 1 1211 5 view .LVU273
 1246               		.loc 1 1211 8 is_stmt 0 view .LVU274
 1247 0012 8091 0000 		lds r24,maxval.3444
 1248               	.LVL64:
 1249               		.loc 1 1211 8 view .LVU275
 1250 0016 8111      		cpse r24,__zero_reg__
 1251 0018 00C0      		rjmp .L65
 1252               	.LBB27:
1212:quantum/rgblight.c ****         LED_TYPE tmp_led;
 1253               		.loc 1 1212 9 is_stmt 1 view .LVU276
1213:quantum/rgblight.c ****         sethsv(0, 255, RGBLIGHT_LIMIT_VAL, &tmp_led);
 1254               		.loc 1 1213 9 view .LVU277
 1255 001a 9E01      		movw r18,r28
 1256 001c 2F5F      		subi r18,-1
 1257 001e 3F4F      		sbci r19,-1
 1258 0020 48E7      		ldi r20,lo8(120)
 1259 0022 6FEF      		ldi r22,lo8(-1)
 1260 0024 0E94 0000 		call sethsv
 1261               	.LVL65:
1214:quantum/rgblight.c ****         maxval = tmp_led.r;
 1262               		.loc 1 1214 9 view .LVU278
 1263               		.loc 1 1214 16 is_stmt 0 view .LVU279
 1264 0028 8A81      		ldd r24,Y+2
 1265 002a 8093 0000 		sts maxval.3444,r24
 1266               	.L65:
 1267               	.LBE27:
1215:quantum/rgblight.c ****     }
1216:quantum/rgblight.c ****     g = r = b = 0;
 1268               		.loc 1 1216 5 is_stmt 1 view .LVU280
 1269               	.LVL66:
1217:quantum/rgblight.c ****     switch (anim->pos) {
 1270               		.loc 1 1217 5 view .LVU281
 1271               		.loc 1 1217 17 is_stmt 0 view .LVU282
 1272 002e F801      		movw r30,r16
 1273 0030 6481      		ldd r22,Z+4
 1274               		.loc 1 1217 5 view .LVU283
 1275 0032 6130      		cpi r22,lo8(1)
 1276 0034 01F0      		breq .L66
1218:quantum/rgblight.c ****         case 0:
1219:quantum/rgblight.c ****             r = maxval;
 1277               		.loc 1 1219 15 view .LVU284
 1278 0036 8091 0000 		lds r24,maxval.3444
 1279               	.LVL67:
1220:quantum/rgblight.c ****             break;
 1280               		.loc 1 1220 13 is_stmt 1 view .LVU285
1216:quantum/rgblight.c ****     switch (anim->pos) {
 1281               		.loc 1 1216 15 is_stmt 0 view .LVU286
 1282 003a 40E0      		ldi r20,0
1217:quantum/rgblight.c ****         case 0:
 1283               		.loc 1 1217 5 view .LVU287
 1284 003c 6623      		tst r22
 1285 003e 01F0      		breq .L69
1216:quantum/rgblight.c ****     switch (anim->pos) {
 1286               		.loc 1 1216 15 view .LVU288
 1287 0040 40E0      		ldi r20,0
1217:quantum/rgblight.c ****         case 0:
 1288               		.loc 1 1217 5 view .LVU289
 1289 0042 6230      		cpi r22,lo8(2)
 1290 0044 01F4      		brne .L70
1221:quantum/rgblight.c ****         case 1:
1222:quantum/rgblight.c ****             g = maxval;
1223:quantum/rgblight.c ****             break;
1224:quantum/rgblight.c ****         case 2:
1225:quantum/rgblight.c ****             b = maxval;
 1291               		.loc 1 1225 13 is_stmt 1 view .LVU290
 1292               		.loc 1 1225 15 is_stmt 0 view .LVU291
 1293 0046 4091 0000 		lds r20,maxval.3444
 1294               	.L70:
 1295               	.LVL68:
1226:quantum/rgblight.c ****             break;
 1296               		.loc 1 1226 13 is_stmt 1 view .LVU292
1216:quantum/rgblight.c ****     switch (anim->pos) {
 1297               		.loc 1 1216 11 is_stmt 0 view .LVU293
 1298 004a 80E0      		ldi r24,0
 1299               	.LVL69:
1216:quantum/rgblight.c ****     switch (anim->pos) {
 1300               		.loc 1 1216 7 view .LVU294
 1301 004c 60E0      		ldi r22,0
 1302               		.loc 1 1226 13 view .LVU295
 1303 004e 00C0      		rjmp .L69
 1304               	.LVL70:
 1305               	.L66:
1222:quantum/rgblight.c ****             break;
 1306               		.loc 1 1222 13 is_stmt 1 view .LVU296
1222:quantum/rgblight.c ****             break;
 1307               		.loc 1 1222 15 is_stmt 0 view .LVU297
 1308 0050 6091 0000 		lds r22,maxval.3444
 1309               	.LVL71:
1223:quantum/rgblight.c ****         case 2:
 1310               		.loc 1 1223 13 is_stmt 1 view .LVU298
1216:quantum/rgblight.c ****     switch (anim->pos) {
 1311               		.loc 1 1216 15 is_stmt 0 view .LVU299
 1312 0054 40E0      		ldi r20,0
1216:quantum/rgblight.c ****     switch (anim->pos) {
 1313               		.loc 1 1216 11 view .LVU300
 1314 0056 80E0      		ldi r24,0
 1315               	.LVL72:
 1316               	.L69:
1227:quantum/rgblight.c ****     }
1228:quantum/rgblight.c ****     rgblight_setrgb(r, g, b);
 1317               		.loc 1 1228 5 is_stmt 1 view .LVU301
 1318 0058 0E94 0000 		call rgblight_setrgb
 1319               	.LVL73:
1229:quantum/rgblight.c ****     anim->pos = (anim->pos + 1) % 3;
 1320               		.loc 1 1229 5 view .LVU302
 1321               		.loc 1 1229 22 is_stmt 0 view .LVU303
 1322 005c F801      		movw r30,r16
 1323 005e 8481      		ldd r24,Z+4
 1324 0060 90E0      		ldi r25,0
 1325               		.loc 1 1229 28 view .LVU304
 1326 0062 0196      		adiw r24,1
 1327               		.loc 1 1229 33 view .LVU305
 1328 0064 63E0      		ldi r22,lo8(3)
 1329 0066 70E0      		ldi r23,0
 1330 0068 0E94 0000 		call __divmodhi4
 1331               		.loc 1 1229 15 view .LVU306
 1332 006c 8483      		std Z+4,r24
 1333               	/* epilogue start */
1230:quantum/rgblight.c **** }
 1334               		.loc 1 1230 1 view .LVU307
 1335 006e 0F90      		pop __tmp_reg__
 1336 0070 0F90      		pop __tmp_reg__
 1337 0072 0F90      		pop __tmp_reg__
 1338 0074 DF91      		pop r29
 1339 0076 CF91      		pop r28
 1340 0078 1F91      		pop r17
 1341 007a 0F91      		pop r16
 1342               	.LVL74:
 1343               		.loc 1 1230 1 view .LVU308
 1344 007c 0895      		ret
 1345               		.cfi_endproc
 1346               	.LFE179:
 1348               		.section	.text.rgblight_sethsv_eeprom_helper,"ax",@progbits
 1349               	.global	rgblight_sethsv_eeprom_helper
 1351               	rgblight_sethsv_eeprom_helper:
 1352               	.LVL75:
 1353               	.LFB143:
 440:quantum/rgblight.c ****     if (rgblight_config.enable) {
 1354               		.loc 1 440 97 is_stmt 1 view -0
 1355               		.cfi_startproc
 440:quantum/rgblight.c ****     if (rgblight_config.enable) {
 1356               		.loc 1 440 97 is_stmt 0 view .LVU310
 1357 0000 AF92      		push r10
 1358               	.LCFI20:
 1359               		.cfi_def_cfa_offset 3
 1360               		.cfi_offset 10, -2
 1361 0002 BF92      		push r11
 1362               	.LCFI21:
 1363               		.cfi_def_cfa_offset 4
 1364               		.cfi_offset 11, -3
 1365 0004 CF92      		push r12
 1366               	.LCFI22:
 1367               		.cfi_def_cfa_offset 5
 1368               		.cfi_offset 12, -4
 1369 0006 DF92      		push r13
 1370               	.LCFI23:
 1371               		.cfi_def_cfa_offset 6
 1372               		.cfi_offset 13, -5
 1373 0008 EF92      		push r14
 1374               	.LCFI24:
 1375               		.cfi_def_cfa_offset 7
 1376               		.cfi_offset 14, -6
 1377 000a FF92      		push r15
 1378               	.LCFI25:
 1379               		.cfi_def_cfa_offset 8
 1380               		.cfi_offset 15, -7
 1381 000c 0F93      		push r16
 1382               	.LCFI26:
 1383               		.cfi_def_cfa_offset 9
 1384               		.cfi_offset 16, -8
 1385 000e 1F93      		push r17
 1386               	.LCFI27:
 1387               		.cfi_def_cfa_offset 10
 1388               		.cfi_offset 17, -9
 1389 0010 CF93      		push r28
 1390               	.LCFI28:
 1391               		.cfi_def_cfa_offset 11
 1392               		.cfi_offset 28, -10
 1393 0012 DF93      		push r29
 1394               	.LCFI29:
 1395               		.cfi_def_cfa_offset 12
 1396               		.cfi_offset 29, -11
 1397 0014 00D0      		rcall .
 1398 0016 0F92      		push __tmp_reg__
 1399               	.LCFI30:
 1400               		.cfi_def_cfa_offset 15
 1401 0018 CDB7      		in r28,__SP_L__
 1402 001a DEB7      		in r29,__SP_H__
 1403               	.LCFI31:
 1404               		.cfi_def_cfa_register 28
 1405               	/* prologue: function */
 1406               	/* frame size = 3 */
 1407               	/* stack size = 13 */
 1408               	.L__stack_usage = 13
 1409 001c 182F      		mov r17,r24
 1410 001e F62E      		mov r15,r22
 1411 0020 042F      		mov r16,r20
 1412 0022 E22E      		mov r14,r18
 441:quantum/rgblight.c ****         rgblight_status.base_mode = mode_base_table[rgblight_config.mode];
 1413               		.loc 1 441 5 is_stmt 1 view .LVU311
 441:quantum/rgblight.c ****         rgblight_status.base_mode = mode_base_table[rgblight_config.mode];
 1414               		.loc 1 441 9 is_stmt 0 view .LVU312
 1415 0024 9091 0000 		lds r25,rgblight_config
 441:quantum/rgblight.c ****         rgblight_status.base_mode = mode_base_table[rgblight_config.mode];
 1416               		.loc 1 441 8 view .LVU313
 1417 0028 90FF      		sbrs r25,0
 1418 002a 00C0      		rjmp .L71
 442:quantum/rgblight.c ****         if (rgblight_config.mode == RGBLIGHT_MODE_STATIC_LIGHT) {
 1419               		.loc 1 442 9 is_stmt 1 view .LVU314
 442:quantum/rgblight.c ****         if (rgblight_config.mode == RGBLIGHT_MODE_STATIC_LIGHT) {
 1420               		.loc 1 442 68 is_stmt 0 view .LVU315
 1421 002c E92F      		mov r30,r25
 1422 002e E695      		lsr r30
 1423 0030 AE2F      		mov r26,r30
 1424 0032 B0E0      		ldi r27,0
 442:quantum/rgblight.c ****         if (rgblight_config.mode == RGBLIGHT_MODE_STATIC_LIGHT) {
 1425               		.loc 1 442 52 view .LVU316
 1426 0034 A050      		subi r26,lo8(-(mode_base_table))
 1427 0036 B040      		sbci r27,hi8(-(mode_base_table))
 1428 0038 8C91      		ld r24,X
 1429               	.LVL76:
 442:quantum/rgblight.c ****         if (rgblight_config.mode == RGBLIGHT_MODE_STATIC_LIGHT) {
 1430               		.loc 1 442 35 view .LVU317
 1431 003a 8093 0000 		sts rgblight_status,r24
 443:quantum/rgblight.c ****             // same static color
 1432               		.loc 1 443 9 is_stmt 1 view .LVU318
 443:quantum/rgblight.c ****             // same static color
 1433               		.loc 1 443 34 is_stmt 0 view .LVU319
 1434 003e 9E7F      		andi r25,lo8(-2)
 443:quantum/rgblight.c ****             // same static color
 1435               		.loc 1 443 12 view .LVU320
 1436 0040 9230      		cpi r25,lo8(2)
 1437 0042 01F4      		brne .L74
 1438               	.LBB28:
 445:quantum/rgblight.c ****             sethsv(hue, sat, val, &tmp_led);
 1439               		.loc 1 445 13 is_stmt 1 view .LVU321
 446:quantum/rgblight.c ****             rgblight_setrgb(tmp_led.r, tmp_led.g, tmp_led.b);
 1440               		.loc 1 446 13 view .LVU322
 1441 0044 9E01      		movw r18,r28
 1442               	.LVL77:
 446:quantum/rgblight.c ****             rgblight_setrgb(tmp_led.r, tmp_led.g, tmp_led.b);
 1443               		.loc 1 446 13 is_stmt 0 view .LVU323
 1444 0046 2F5F      		subi r18,-1
 1445 0048 3F4F      		sbci r19,-1
 1446 004a 812F      		mov r24,r17
 1447 004c 0E94 0000 		call sethsv
 1448               	.LVL78:
 447:quantum/rgblight.c ****         } else {
 1449               		.loc 1 447 13 is_stmt 1 view .LVU324
 1450 0050 4B81      		ldd r20,Y+3
 1451 0052 6981      		ldd r22,Y+1
 1452 0054 8A81      		ldd r24,Y+2
 1453 0056 0E94 0000 		call rgblight_setrgb
 1454               	.LVL79:
 1455               	.L75:
 447:quantum/rgblight.c ****         } else {
 1456               		.loc 1 447 13 is_stmt 0 view .LVU325
 1457               	.LBE28:
 496:quantum/rgblight.c ****             RGBLIGHT_SPLIT_SET_CHANGE_HSVS;
 1458               		.loc 1 496 9 is_stmt 1 view .LVU326
 496:quantum/rgblight.c ****             RGBLIGHT_SPLIT_SET_CHANGE_HSVS;
 1459               		.loc 1 496 12 is_stmt 0 view .LVU327
 1460 005a 8091 0000 		lds r24,rgblight_config+1
 1461 005e 8113      		cpse r24,r17
 1462 0060 00C0      		rjmp .L83
 496:quantum/rgblight.c ****             RGBLIGHT_SPLIT_SET_CHANGE_HSVS;
 1463               		.loc 1 496 40 discriminator 1 view .LVU328
 1464 0062 8091 0000 		lds r24,rgblight_config+2
 1465 0066 8F11      		cpse r24,r15
 1466 0068 00C0      		rjmp .L83
 496:quantum/rgblight.c ****             RGBLIGHT_SPLIT_SET_CHANGE_HSVS;
 1467               		.loc 1 496 70 discriminator 2 view .LVU329
 1468 006a 8091 0000 		lds r24,rgblight_config+3
 1469 006e 8017      		cp r24,r16
 1470 0070 01F0      		breq .L84
 1471               	.L83:
 497:quantum/rgblight.c ****         }
 1472               		.loc 1 497 13 is_stmt 1 view .LVU330
 1473 0072 8091 0000 		lds r24,rgblight_status+2
 1474 0076 8260      		ori r24,lo8(2)
 1475 0078 8093 0000 		sts rgblight_status+2,r24
 1476               	.L84:
 500:quantum/rgblight.c ****         rgblight_config.sat = sat;
 1477               		.loc 1 500 9 view .LVU331
 500:quantum/rgblight.c ****         rgblight_config.sat = sat;
 1478               		.loc 1 500 29 is_stmt 0 view .LVU332
 1479 007c 1093 0000 		sts rgblight_config+1,r17
 501:quantum/rgblight.c ****         rgblight_config.val = val;
 1480               		.loc 1 501 9 is_stmt 1 view .LVU333
 501:quantum/rgblight.c ****         rgblight_config.val = val;
 1481               		.loc 1 501 29 is_stmt 0 view .LVU334
 1482 0080 F092 0000 		sts rgblight_config+2,r15
 502:quantum/rgblight.c ****         if (write_to_eeprom) {
 1483               		.loc 1 502 9 is_stmt 1 view .LVU335
 502:quantum/rgblight.c ****         if (write_to_eeprom) {
 1484               		.loc 1 502 29 is_stmt 0 view .LVU336
 1485 0084 0093 0000 		sts rgblight_config+3,r16
 503:quantum/rgblight.c ****             eeconfig_update_rgblight(rgblight_config.raw);
 1486               		.loc 1 503 9 is_stmt 1 view .LVU337
 503:quantum/rgblight.c ****             eeconfig_update_rgblight(rgblight_config.raw);
 1487               		.loc 1 503 12 is_stmt 0 view .LVU338
 1488 0088 EE20      		tst r14
 1489 008a 01F0      		breq .L71
 504:quantum/rgblight.c ****             dprintf("rgblight set hsv [EEPROM]: %u,%u,%u\n", rgblight_config.hue, rgblight_config.s
 1490               		.loc 1 504 13 is_stmt 1 view .LVU339
 1491 008c 6091 0000 		lds r22,rgblight_config
 1492 0090 7091 0000 		lds r23,rgblight_config+1
 1493 0094 8091 0000 		lds r24,rgblight_config+2
 1494 0098 9091 0000 		lds r25,rgblight_config+3
 1495 009c 0E94 0000 		call eeconfig_update_rgblight
 1496               	.LVL80:
 505:quantum/rgblight.c ****         } else {
 1497               		.loc 1 505 124 view .LVU340
 507:quantum/rgblight.c ****         }
 1498               		.loc 1 507 126 view .LVU341
 1499               	.L71:
 1500               	/* epilogue start */
 510:quantum/rgblight.c **** 
 1501               		.loc 1 510 1 is_stmt 0 view .LVU342
 1502 00a0 0F90      		pop __tmp_reg__
 1503 00a2 0F90      		pop __tmp_reg__
 1504 00a4 0F90      		pop __tmp_reg__
 1505 00a6 DF91      		pop r29
 1506 00a8 CF91      		pop r28
 1507 00aa 1F91      		pop r17
 1508               	.LVL81:
 510:quantum/rgblight.c **** 
 1509               		.loc 1 510 1 view .LVU343
 1510 00ac 0F91      		pop r16
 1511               	.LVL82:
 510:quantum/rgblight.c **** 
 1512               		.loc 1 510 1 view .LVU344
 1513 00ae FF90      		pop r15
 1514               	.LVL83:
 510:quantum/rgblight.c **** 
 1515               		.loc 1 510 1 view .LVU345
 1516 00b0 EF90      		pop r14
 1517               	.LVL84:
 510:quantum/rgblight.c **** 
 1518               		.loc 1 510 1 view .LVU346
 1519 00b2 DF90      		pop r13
 1520 00b4 CF90      		pop r12
 1521 00b6 BF90      		pop r11
 1522 00b8 AF90      		pop r10
 1523 00ba 0895      		ret
 1524               	.LVL85:
 1525               	.L74:
 450:quantum/rgblight.c ****             }
 1526               		.loc 1 450 13 is_stmt 1 view .LVU347
 453:quantum/rgblight.c ****                 // breathing mode, ignore the change of val, use in memory value instead
 1527               		.loc 1 453 18 view .LVU348
 453:quantum/rgblight.c ****                 // breathing mode, ignore the change of val, use in memory value instead
 1528               		.loc 1 453 21 is_stmt 0 view .LVU349
 1529 00bc 8230      		cpi r24,lo8(2)
 1530 00be 01F4      		brne .L76
 455:quantum/rgblight.c ****             }
 1531               		.loc 1 455 17 is_stmt 1 view .LVU350
 455:quantum/rgblight.c ****             }
 1532               		.loc 1 455 21 is_stmt 0 view .LVU351
 1533 00c0 0091 0000 		lds r16,rgblight_config+3
 1534               	.LVL86:
 455:quantum/rgblight.c ****             }
 1535               		.loc 1 455 21 view .LVU352
 1536 00c4 00C0      		rjmp .L75
 1537               	.L76:
 459:quantum/rgblight.c ****                 // rainbow mood, ignore the change of hue
 1538               		.loc 1 459 18 is_stmt 1 view .LVU353
 459:quantum/rgblight.c ****                 // rainbow mood, ignore the change of hue
 1539               		.loc 1 459 21 is_stmt 0 view .LVU354
 1540 00c6 8630      		cpi r24,lo8(6)
 1541 00c8 01F4      		brne .L77
 1542               	.L78:
 461:quantum/rgblight.c ****             }
 1543               		.loc 1 461 17 is_stmt 1 view .LVU355
 461:quantum/rgblight.c ****             }
 1544               		.loc 1 461 21 is_stmt 0 view .LVU356
 1545 00ca 1091 0000 		lds r17,rgblight_config+1
 1546               	.LVL87:
 461:quantum/rgblight.c ****             }
 1547               		.loc 1 461 21 view .LVU357
 1548 00ce 00C0      		rjmp .L75
 1549               	.L77:
 465:quantum/rgblight.c ****                 // rainbow swirl, ignore the change of hue
 1550               		.loc 1 465 18 is_stmt 1 view .LVU358
 465:quantum/rgblight.c ****                 // rainbow swirl, ignore the change of hue
 1551               		.loc 1 465 21 is_stmt 0 view .LVU359
 1552 00d0 8930      		cpi r24,lo8(9)
 1553 00d2 01F0      		breq .L78
 471:quantum/rgblight.c ****                 // static gradient
 1554               		.loc 1 471 18 is_stmt 1 view .LVU360
 471:quantum/rgblight.c ****                 // static gradient
 1555               		.loc 1 471 21 is_stmt 0 view .LVU361
 1556 00d4 8931      		cpi r24,lo8(25)
 1557 00d6 01F4      		brne .L75
 1558               	.LBB29:
 473:quantum/rgblight.c ****                 bool    direction = (delta % 2) == 0;
 1559               		.loc 1 473 17 is_stmt 1 view .LVU362
 473:quantum/rgblight.c ****                 bool    direction = (delta % 2) == 0;
 1560               		.loc 1 473 25 is_stmt 0 view .LVU363
 1561 00d8 E951      		subi r30,lo8(-(-25))
 1562               	.LVL88:
 474:quantum/rgblight.c **** #    ifdef __AVR__
 1563               		.loc 1 474 17 is_stmt 1 view .LVU364
 474:quantum/rgblight.c **** #    ifdef __AVR__
 1564               		.loc 1 474 49 is_stmt 0 view .LVU365
 1565 00da 8E2F      		mov r24,r30
 1566 00dc 8170      		andi r24,lo8(1)
 1567 00de D82E      		mov r13,r24
 1568               	.LVL89:
 477:quantum/rgblight.c **** #    else
 1569               		.loc 1 477 17 is_stmt 1 view .LVU366
 1570               	.LBB30:
 477:quantum/rgblight.c **** #    else
 1571               		.loc 1 477 33 view .LVU367
 1572 00e0 E695      		lsr r30
 1573               	.LVL90:
 477:quantum/rgblight.c **** #    else
 1574               		.loc 1 477 33 is_stmt 0 view .LVU368
 1575 00e2 F0E0      		ldi r31,0
 1576 00e4 E050      		subi r30,lo8(-(RGBLED_GRADIENT_RANGES))
 1577 00e6 F040      		sbci r31,hi8(-(RGBLED_GRADIENT_RANGES))
 1578               	.LVL91:
 477:quantum/rgblight.c **** #    else
 1579               		.loc 1 477 33 is_stmt 1 view .LVU369
 477:quantum/rgblight.c **** #    else
 1580               		.loc 1 477 33 view .LVU370
 1581               	/* #APP */
 1582               	 ;  477 "quantum/rgblight.c" 1
 1583 00e8 A590      		lpm r10, Z+
 1584 00ea B490      		lpm r11, Z
 1585               		
 1586               	 ;  0 "" 2
 1587               	.LVL92:
 477:quantum/rgblight.c **** #    else
 1588               		.loc 1 477 33 view .LVU371
 477:quantum/rgblight.c **** #    else
 1589               		.loc 1 477 33 is_stmt 0 view .LVU372
 1590               	/* #NOAPP */
 1591               	.LBE30:
 481:quantum/rgblight.c ****                     uint8_t _hue = ((uint16_t)i * (uint16_t)range) / rgblight_ranges.effect_num_led
 1592               		.loc 1 481 17 is_stmt 1 view .LVU373
 1593               	.LBB31:
 481:quantum/rgblight.c ****                     uint8_t _hue = ((uint16_t)i * (uint16_t)range) / rgblight_ranges.effect_num_led
 1594               		.loc 1 481 22 view .LVU374
 481:quantum/rgblight.c ****                     uint8_t _hue = ((uint16_t)i * (uint16_t)range) / rgblight_ranges.effect_num_led
 1595               		.loc 1 481 30 is_stmt 0 view .LVU375
 1596 00ec C12C      		mov r12,__zero_reg__
 1597               	.LBB32:
 482:quantum/rgblight.c ****                     if (direction) {
 1598               		.loc 1 482 49 view .LVU376
 1599 00ee BB24      		clr r11
 1600               	.LVL93:
 1601               	.L79:
 482:quantum/rgblight.c ****                     if (direction) {
 1602               		.loc 1 482 49 view .LVU377
 1603               	.LBE32:
 481:quantum/rgblight.c ****                     uint8_t _hue = ((uint16_t)i * (uint16_t)range) / rgblight_ranges.effect_num_led
 1604               		.loc 1 481 37 is_stmt 1 discriminator 1 view .LVU378
 481:quantum/rgblight.c ****                     uint8_t _hue = ((uint16_t)i * (uint16_t)range) / rgblight_ranges.effect_num_led
 1605               		.loc 1 481 56 is_stmt 0 discriminator 1 view .LVU379
 1606 00f0 6091 0000 		lds r22,rgblight_ranges+4
 481:quantum/rgblight.c ****                     uint8_t _hue = ((uint16_t)i * (uint16_t)range) / rgblight_ranges.effect_num_led
 1607               		.loc 1 481 17 discriminator 1 view .LVU380
 1608 00f4 C616      		cp r12,r22
 1609 00f6 00F0      		brlo .L82
 1610               	.LBE31:
 491:quantum/rgblight.c ****             }
 1611               		.loc 1 491 17 is_stmt 1 view .LVU381
 1612 00f8 0E94 0000 		call rgblight_set
 1613               	.LVL94:
 1614 00fc 00C0      		rjmp .L75
 1615               	.L82:
 1616               	.LBB35:
 1617               	.LBB33:
 482:quantum/rgblight.c ****                     if (direction) {
 1618               		.loc 1 482 21 view .LVU382
 482:quantum/rgblight.c ****                     if (direction) {
 1619               		.loc 1 482 37 is_stmt 0 view .LVU383
 1620 00fe 2C2D      		mov r18,r12
 1621 0100 30E0      		ldi r19,0
 482:quantum/rgblight.c ****                     if (direction) {
 1622               		.loc 1 482 49 view .LVU384
 1623 0102 A29E      		mul r10,r18
 1624 0104 C001      		movw r24,r0
 1625 0106 A39E      		mul r10,r19
 1626 0108 900D      		add r25,r0
 1627 010a B29E      		mul r11,r18
 1628 010c 900D      		add r25,r0
 1629 010e 1124      		clr r1
 482:quantum/rgblight.c ****                     if (direction) {
 1630               		.loc 1 482 85 view .LVU385
 1631 0110 70E0      		ldi r23,0
 482:quantum/rgblight.c ****                     if (direction) {
 1632               		.loc 1 482 68 view .LVU386
 1633 0112 0E94 0000 		call __udivmodhi4
 1634               	.LVL95:
 483:quantum/rgblight.c ****                         _hue = hue + _hue;
 1635               		.loc 1 483 21 is_stmt 1 view .LVU387
 484:quantum/rgblight.c ****                     } else {
 1636               		.loc 1 484 30 is_stmt 0 view .LVU388
 1637 0116 812F      		mov r24,r17
 483:quantum/rgblight.c ****                         _hue = hue + _hue;
 1638               		.loc 1 483 24 view .LVU389
 1639 0118 D110      		cpse r13,__zero_reg__
 1640 011a 00C0      		rjmp .L80
 484:quantum/rgblight.c ****                     } else {
 1641               		.loc 1 484 25 is_stmt 1 view .LVU390
 484:quantum/rgblight.c ****                     } else {
 1642               		.loc 1 484 30 is_stmt 0 view .LVU391
 1643 011c 860F      		add r24,r22
 1644               	.LVL96:
 1645               	.L81:
 488:quantum/rgblight.c ****                     sethsv(_hue, sat, val, (LED_TYPE *)&led[i + rgblight_ranges.effect_start_pos]);
 1646               		.loc 1 488 98 is_stmt 1 discriminator 2 view .LVU392
 489:quantum/rgblight.c ****                 }
 1647               		.loc 1 489 21 discriminator 2 view .LVU393
 489:quantum/rgblight.c ****                 }
 1648               		.loc 1 489 80 is_stmt 0 discriminator 2 view .LVU394
 1649 011e 4091 0000 		lds r20,rgblight_ranges+2
 489:quantum/rgblight.c ****                 }
 1650               		.loc 1 489 63 discriminator 2 view .LVU395
 1651 0122 420F      		add r20,r18
 1652 0124 532F      		mov r21,r19
 1653 0126 511D      		adc r21,__zero_reg__
 489:quantum/rgblight.c ****                 }
 1654               		.loc 1 489 21 discriminator 2 view .LVU396
 1655 0128 9A01      		movw r18,r20
 1656 012a 220F      		lsl r18
 1657 012c 331F      		rol r19
 1658 012e 240F      		add r18,r20
 1659 0130 351F      		adc r19,r21
 1660 0132 2050      		subi r18,lo8(-(led))
 1661 0134 3040      		sbci r19,hi8(-(led))
 1662 0136 402F      		mov r20,r16
 1663 0138 6F2D      		mov r22,r15
 1664 013a 0E94 0000 		call sethsv
 1665               	.LVL97:
 489:quantum/rgblight.c ****                 }
 1666               		.loc 1 489 21 discriminator 2 view .LVU397
 1667               	.LBE33:
 481:quantum/rgblight.c ****                     uint8_t _hue = ((uint16_t)i * (uint16_t)range) / rgblight_ranges.effect_num_led
 1668               		.loc 1 481 74 is_stmt 1 discriminator 2 view .LVU398
 481:quantum/rgblight.c ****                     uint8_t _hue = ((uint16_t)i * (uint16_t)range) / rgblight_ranges.effect_num_led
 1669               		.loc 1 481 75 is_stmt 0 discriminator 2 view .LVU399
 1670 013e C394      		inc r12
 1671               	.LVL98:
 481:quantum/rgblight.c ****                     uint8_t _hue = ((uint16_t)i * (uint16_t)range) / rgblight_ranges.effect_num_led
 1672               		.loc 1 481 75 discriminator 2 view .LVU400
 1673 0140 00C0      		rjmp .L79
 1674               	.LVL99:
 1675               	.L80:
 1676               	.LBB34:
 486:quantum/rgblight.c ****                     }
 1677               		.loc 1 486 25 is_stmt 1 view .LVU401
 486:quantum/rgblight.c ****                     }
 1678               		.loc 1 486 30 is_stmt 0 view .LVU402
 1679 0142 861B      		sub r24,r22
 1680               	.LVL100:
 486:quantum/rgblight.c ****                     }
 1681               		.loc 1 486 30 view .LVU403
 1682 0144 00C0      		rjmp .L81
 1683               	.LBE34:
 1684               	.LBE35:
 1685               	.LBE29:
 1686               		.cfi_endproc
 1687               	.LFE143:
 1689               		.section	.text.rgblight_increase_hue_helper,"ax",@progbits
 1690               	.global	rgblight_increase_hue_helper
 1692               	rgblight_increase_hue_helper:
 1693               	.LVL101:
 1694               	.LFB118:
 375:quantum/rgblight.c ****     uint8_t hue = rgblight_config.hue + RGBLIGHT_HUE_STEP;
 1695               		.loc 1 375 57 is_stmt 1 view -0
 1696               		.cfi_startproc
 1697               	/* prologue: function */
 1698               	/* frame size = 0 */
 1699               	/* stack size = 0 */
 1700               	.L__stack_usage = 0
 376:quantum/rgblight.c ****     rgblight_sethsv_eeprom_helper(hue, rgblight_config.sat, rgblight_config.val, write_to_eeprom);
 1701               		.loc 1 376 5 view .LVU405
 377:quantum/rgblight.c **** }
 1702               		.loc 1 377 5 view .LVU406
 1703 0000 E0E0      		ldi r30,lo8(rgblight_config)
 1704 0002 F0E0      		ldi r31,hi8(rgblight_config)
 376:quantum/rgblight.c ****     rgblight_sethsv_eeprom_helper(hue, rgblight_config.sat, rgblight_config.val, write_to_eeprom);
 1705               		.loc 1 376 13 is_stmt 0 view .LVU407
 1706 0004 9181      		ldd r25,Z+1
 377:quantum/rgblight.c **** }
 1707               		.loc 1 377 5 view .LVU408
 1708 0006 282F      		mov r18,r24
 1709 0008 4381      		ldd r20,Z+3
 1710 000a 6281      		ldd r22,Z+2
 1711 000c 8AE0      		ldi r24,lo8(10)
 1712               	.LVL102:
 377:quantum/rgblight.c **** }
 1713               		.loc 1 377 5 view .LVU409
 1714 000e 890F      		add r24,r25
 1715               	.LVL103:
 377:quantum/rgblight.c **** }
 1716               		.loc 1 377 5 view .LVU410
 1717 0010 0C94 0000 		jmp rgblight_sethsv_eeprom_helper
 1718               	.LVL104:
 377:quantum/rgblight.c **** }
 1719               		.loc 1 377 5 view .LVU411
 1720               		.cfi_endproc
 1721               	.LFE118:
 1723               		.section	.text.rgblight_increase_hue_noeeprom,"ax",@progbits
 1724               	.global	rgblight_increase_hue_noeeprom
 1726               	rgblight_increase_hue_noeeprom:
 1727               	.LFB119:
 379:quantum/rgblight.c **** void rgblight_increase_hue(void) { rgblight_increase_hue_helper(true); }
 1728               		.loc 1 379 43 is_stmt 1 view -0
 1729               		.cfi_startproc
 1730               	/* prologue: function */
 1731               	/* frame size = 0 */
 1732               	/* stack size = 0 */
 1733               	.L__stack_usage = 0
 379:quantum/rgblight.c **** void rgblight_increase_hue(void) { rgblight_increase_hue_helper(true); }
 1734               		.loc 1 379 45 view .LVU413
 1735 0000 80E0      		ldi r24,0
 1736 0002 0C94 0000 		jmp rgblight_increase_hue_helper
 1737               	.LVL105:
 1738               		.cfi_endproc
 1739               	.LFE119:
 1741               		.section	.text.rgblight_increase_hue,"ax",@progbits
 1742               	.global	rgblight_increase_hue
 1744               	rgblight_increase_hue:
 1745               	.LFB120:
 380:quantum/rgblight.c **** void rgblight_decrease_hue_helper(bool write_to_eeprom) {
 1746               		.loc 1 380 34 view -0
 1747               		.cfi_startproc
 1748               	/* prologue: function */
 1749               	/* frame size = 0 */
 1750               	/* stack size = 0 */
 1751               	.L__stack_usage = 0
 380:quantum/rgblight.c **** void rgblight_decrease_hue_helper(bool write_to_eeprom) {
 1752               		.loc 1 380 36 view .LVU415
 1753 0000 81E0      		ldi r24,lo8(1)
 1754 0002 0C94 0000 		jmp rgblight_increase_hue_helper
 1755               	.LVL106:
 1756               		.cfi_endproc
 1757               	.LFE120:
 1759               		.section	.text.rgblight_decrease_hue_helper,"ax",@progbits
 1760               	.global	rgblight_decrease_hue_helper
 1762               	rgblight_decrease_hue_helper:
 1763               	.LVL107:
 1764               	.LFB121:
 381:quantum/rgblight.c ****     uint8_t hue = rgblight_config.hue - RGBLIGHT_HUE_STEP;
 1765               		.loc 1 381 57 view -0
 1766               		.cfi_startproc
 1767               	/* prologue: function */
 1768               	/* frame size = 0 */
 1769               	/* stack size = 0 */
 1770               	.L__stack_usage = 0
 382:quantum/rgblight.c ****     rgblight_sethsv_eeprom_helper(hue, rgblight_config.sat, rgblight_config.val, write_to_eeprom);
 1771               		.loc 1 382 5 view .LVU417
 383:quantum/rgblight.c **** }
 1772               		.loc 1 383 5 view .LVU418
 1773 0000 E0E0      		ldi r30,lo8(rgblight_config)
 1774 0002 F0E0      		ldi r31,hi8(rgblight_config)
 382:quantum/rgblight.c ****     rgblight_sethsv_eeprom_helper(hue, rgblight_config.sat, rgblight_config.val, write_to_eeprom);
 1775               		.loc 1 382 13 is_stmt 0 view .LVU419
 1776 0004 9181      		ldd r25,Z+1
 383:quantum/rgblight.c **** }
 1777               		.loc 1 383 5 view .LVU420
 1778 0006 282F      		mov r18,r24
 1779 0008 4381      		ldd r20,Z+3
 1780 000a 6281      		ldd r22,Z+2
 1781 000c 86EF      		ldi r24,lo8(-10)
 1782               	.LVL108:
 383:quantum/rgblight.c **** }
 1783               		.loc 1 383 5 view .LVU421
 1784 000e 890F      		add r24,r25
 1785               	.LVL109:
 383:quantum/rgblight.c **** }
 1786               		.loc 1 383 5 view .LVU422
 1787 0010 0C94 0000 		jmp rgblight_sethsv_eeprom_helper
 1788               	.LVL110:
 383:quantum/rgblight.c **** }
 1789               		.loc 1 383 5 view .LVU423
 1790               		.cfi_endproc
 1791               	.LFE121:
 1793               		.section	.text.rgblight_decrease_hue_noeeprom,"ax",@progbits
 1794               	.global	rgblight_decrease_hue_noeeprom
 1796               	rgblight_decrease_hue_noeeprom:
 1797               	.LFB122:
 385:quantum/rgblight.c **** void rgblight_decrease_hue(void) { rgblight_decrease_hue_helper(true); }
 1798               		.loc 1 385 43 is_stmt 1 view -0
 1799               		.cfi_startproc
 1800               	/* prologue: function */
 1801               	/* frame size = 0 */
 1802               	/* stack size = 0 */
 1803               	.L__stack_usage = 0
 385:quantum/rgblight.c **** void rgblight_decrease_hue(void) { rgblight_decrease_hue_helper(true); }
 1804               		.loc 1 385 45 view .LVU425
 1805 0000 80E0      		ldi r24,0
 1806 0002 0C94 0000 		jmp rgblight_decrease_hue_helper
 1807               	.LVL111:
 1808               		.cfi_endproc
 1809               	.LFE122:
 1811               		.section	.text.rgblight_decrease_hue,"ax",@progbits
 1812               	.global	rgblight_decrease_hue
 1814               	rgblight_decrease_hue:
 1815               	.LFB123:
 386:quantum/rgblight.c **** void rgblight_increase_sat_helper(bool write_to_eeprom) {
 1816               		.loc 1 386 34 view -0
 1817               		.cfi_startproc
 1818               	/* prologue: function */
 1819               	/* frame size = 0 */
 1820               	/* stack size = 0 */
 1821               	.L__stack_usage = 0
 386:quantum/rgblight.c **** void rgblight_increase_sat_helper(bool write_to_eeprom) {
 1822               		.loc 1 386 36 view .LVU427
 1823 0000 81E0      		ldi r24,lo8(1)
 1824 0002 0C94 0000 		jmp rgblight_decrease_hue_helper
 1825               	.LVL112:
 1826               		.cfi_endproc
 1827               	.LFE123:
 1829               		.section	.text.rgblight_increase_sat_helper,"ax",@progbits
 1830               	.global	rgblight_increase_sat_helper
 1832               	rgblight_increase_sat_helper:
 1833               	.LVL113:
 1834               	.LFB124:
 387:quantum/rgblight.c ****     uint8_t sat = qadd8(rgblight_config.sat, RGBLIGHT_SAT_STEP);
 1835               		.loc 1 387 57 view -0
 1836               		.cfi_startproc
 1837               	/* prologue: function */
 1838               	/* frame size = 0 */
 1839               	/* stack size = 0 */
 1840               	.L__stack_usage = 0
 388:quantum/rgblight.c ****     rgblight_sethsv_eeprom_helper(rgblight_config.hue, sat, rgblight_config.val, write_to_eeprom);
 1841               		.loc 1 388 5 view .LVU429
 1842               	.LBB36:
 1843               	.LBI36:
 1844               		.file 2 "./lib/lib8tion/math8.h"
   1:./lib/lib8tion/math8.h **** #ifndef __INC_LIB8TION_MATH_H
   2:./lib/lib8tion/math8.h **** #define __INC_LIB8TION_MATH_H
   3:./lib/lib8tion/math8.h **** 
   4:./lib/lib8tion/math8.h **** #include "scale8.h"
   5:./lib/lib8tion/math8.h **** 
   6:./lib/lib8tion/math8.h **** ///@ingroup lib8tion
   7:./lib/lib8tion/math8.h **** 
   8:./lib/lib8tion/math8.h **** ///@defgroup Math Basic math operations
   9:./lib/lib8tion/math8.h **** /// Fast, efficient 8-bit math functions specifically
  10:./lib/lib8tion/math8.h **** /// designed for high-performance LED programming.
  11:./lib/lib8tion/math8.h **** ///
  12:./lib/lib8tion/math8.h **** /// Because of the AVR(Arduino) and ARM assembly language
  13:./lib/lib8tion/math8.h **** /// implementations provided, using these functions often
  14:./lib/lib8tion/math8.h **** /// results in smaller and faster code than the equivalent
  15:./lib/lib8tion/math8.h **** /// program using plain "C" arithmetic and logic.
  16:./lib/lib8tion/math8.h **** ///@{
  17:./lib/lib8tion/math8.h **** 
  18:./lib/lib8tion/math8.h **** 
  19:./lib/lib8tion/math8.h **** /// add one byte to another, saturating at 0xFF
  20:./lib/lib8tion/math8.h **** /// @param i - first byte to add
  21:./lib/lib8tion/math8.h **** /// @param j - second byte to add
  22:./lib/lib8tion/math8.h **** /// @returns the sum of i & j, capped at 0xFF
  23:./lib/lib8tion/math8.h **** LIB8STATIC_ALWAYS_INLINE uint8_t qadd8( uint8_t i, uint8_t j)
 1845               		.loc 2 23 34 view .LVU430
 1846               	.LBB37:
  24:./lib/lib8tion/math8.h **** {
  25:./lib/lib8tion/math8.h **** #if QADD8_C == 1
  26:./lib/lib8tion/math8.h ****     uint16_t t = i + j;
  27:./lib/lib8tion/math8.h ****     if (t > 255) t = 255;
  28:./lib/lib8tion/math8.h ****     return t;
  29:./lib/lib8tion/math8.h **** #elif QADD8_AVRASM == 1
  30:./lib/lib8tion/math8.h ****     asm volatile(
 1847               		.loc 2 30 5 view .LVU431
 1848               	.LBE37:
 1849               	.LBE36:
 388:quantum/rgblight.c ****     rgblight_sethsv_eeprom_helper(rgblight_config.hue, sat, rgblight_config.val, write_to_eeprom);
 1850               		.loc 1 388 19 is_stmt 0 view .LVU432
 1851 0000 E0E0      		ldi r30,lo8(rgblight_config)
 1852 0002 F0E0      		ldi r31,hi8(rgblight_config)
 1853               	.LBB39:
 1854               	.LBB38:
 1855               		.loc 2 30 5 view .LVU433
 1856 0004 6281      		ldd r22,Z+2
 1857 0006 21E1      		ldi r18,lo8(17)
 1858               	/* #APP */
 1859               	 ;  30 "./lib/lib8tion/math8.h" 1
 1860 0008 620F      		add r22, r18    
 1861 000a 00F4      		brcc L_1415     
 1862 000c 6FEF      		ldi r22, 0xFF  
 1863               		L_1415: 
 1864               	 ;  0 "" 2
 1865               	.LVL114:
  31:./lib/lib8tion/math8.h ****          /* First, add j to i, conditioning the C flag */
  32:./lib/lib8tion/math8.h ****          "add %0, %1    \n\t"
  33:./lib/lib8tion/math8.h **** 
  34:./lib/lib8tion/math8.h ****          /* Now test the C flag.
  35:./lib/lib8tion/math8.h ****            If C is clear, we branch around a load of 0xFF into i.
  36:./lib/lib8tion/math8.h ****            If C is set, we go ahead and load 0xFF into i.
  37:./lib/lib8tion/math8.h ****          */
  38:./lib/lib8tion/math8.h ****          "brcc L_%=     \n\t"
  39:./lib/lib8tion/math8.h ****          "ldi %0, 0xFF  \n\t"
  40:./lib/lib8tion/math8.h ****          "L_%=: "
  41:./lib/lib8tion/math8.h ****          : "+a" (i)
  42:./lib/lib8tion/math8.h ****          : "a"  (j) );
  43:./lib/lib8tion/math8.h ****     return i;
 1866               		.loc 2 43 5 is_stmt 1 view .LVU434
 1867               		.loc 2 43 5 is_stmt 0 view .LVU435
 1868               	/* #NOAPP */
 1869               	.LBE38:
 1870               	.LBE39:
 389:quantum/rgblight.c **** }
 1871               		.loc 1 389 5 is_stmt 1 view .LVU436
 1872 000e 282F      		mov r18,r24
 1873 0010 4381      		ldd r20,Z+3
 1874 0012 8181      		ldd r24,Z+1
 1875               	.LVL115:
 389:quantum/rgblight.c **** }
 1876               		.loc 1 389 5 is_stmt 0 view .LVU437
 1877 0014 0C94 0000 		jmp rgblight_sethsv_eeprom_helper
 1878               	.LVL116:
 389:quantum/rgblight.c **** }
 1879               		.loc 1 389 5 view .LVU438
 1880               		.cfi_endproc
 1881               	.LFE124:
 1883               		.section	.text.rgblight_increase_sat_noeeprom,"ax",@progbits
 1884               	.global	rgblight_increase_sat_noeeprom
 1886               	rgblight_increase_sat_noeeprom:
 1887               	.LFB125:
 391:quantum/rgblight.c **** void rgblight_increase_sat(void) { rgblight_increase_sat_helper(true); }
 1888               		.loc 1 391 43 is_stmt 1 view -0
 1889               		.cfi_startproc
 1890               	/* prologue: function */
 1891               	/* frame size = 0 */
 1892               	/* stack size = 0 */
 1893               	.L__stack_usage = 0
 391:quantum/rgblight.c **** void rgblight_increase_sat(void) { rgblight_increase_sat_helper(true); }
 1894               		.loc 1 391 45 view .LVU440
 1895 0000 80E0      		ldi r24,0
 1896 0002 0C94 0000 		jmp rgblight_increase_sat_helper
 1897               	.LVL117:
 1898               		.cfi_endproc
 1899               	.LFE125:
 1901               		.section	.text.rgblight_increase_sat,"ax",@progbits
 1902               	.global	rgblight_increase_sat
 1904               	rgblight_increase_sat:
 1905               	.LFB126:
 392:quantum/rgblight.c **** void rgblight_decrease_sat_helper(bool write_to_eeprom) {
 1906               		.loc 1 392 34 view -0
 1907               		.cfi_startproc
 1908               	/* prologue: function */
 1909               	/* frame size = 0 */
 1910               	/* stack size = 0 */
 1911               	.L__stack_usage = 0
 392:quantum/rgblight.c **** void rgblight_decrease_sat_helper(bool write_to_eeprom) {
 1912               		.loc 1 392 36 view .LVU442
 1913 0000 81E0      		ldi r24,lo8(1)
 1914 0002 0C94 0000 		jmp rgblight_increase_sat_helper
 1915               	.LVL118:
 1916               		.cfi_endproc
 1917               	.LFE126:
 1919               		.section	.text.rgblight_decrease_sat_helper,"ax",@progbits
 1920               	.global	rgblight_decrease_sat_helper
 1922               	rgblight_decrease_sat_helper:
 1923               	.LVL119:
 1924               	.LFB127:
 393:quantum/rgblight.c ****     uint8_t sat = qsub8(rgblight_config.sat, RGBLIGHT_SAT_STEP);
 1925               		.loc 1 393 57 view -0
 1926               		.cfi_startproc
 1927               	/* prologue: function */
 1928               	/* frame size = 0 */
 1929               	/* stack size = 0 */
 1930               	.L__stack_usage = 0
 394:quantum/rgblight.c ****     rgblight_sethsv_eeprom_helper(rgblight_config.hue, sat, rgblight_config.val, write_to_eeprom);
 1931               		.loc 1 394 5 view .LVU444
 1932               	.LBB40:
 1933               	.LBI40:
  44:./lib/lib8tion/math8.h **** #elif QADD8_ARM_DSP_ASM == 1
  45:./lib/lib8tion/math8.h ****     asm volatile( "uqadd8 %0, %0, %1" : "+r" (i) : "r" (j));
  46:./lib/lib8tion/math8.h ****     return i;
  47:./lib/lib8tion/math8.h **** #else
  48:./lib/lib8tion/math8.h **** #error "No implementation for qadd8 available."
  49:./lib/lib8tion/math8.h **** #endif
  50:./lib/lib8tion/math8.h **** }
  51:./lib/lib8tion/math8.h **** 
  52:./lib/lib8tion/math8.h **** /// Add one byte to another, saturating at 0x7F
  53:./lib/lib8tion/math8.h **** /// @param i - first byte to add
  54:./lib/lib8tion/math8.h **** /// @param j - second byte to add
  55:./lib/lib8tion/math8.h **** /// @returns the sum of i & j, capped at 0xFF
  56:./lib/lib8tion/math8.h **** LIB8STATIC_ALWAYS_INLINE int8_t qadd7( int8_t i, int8_t j)
  57:./lib/lib8tion/math8.h **** {
  58:./lib/lib8tion/math8.h **** #if QADD7_C == 1
  59:./lib/lib8tion/math8.h ****     int16_t t = i + j;
  60:./lib/lib8tion/math8.h ****     if (t > 127) t = 127;
  61:./lib/lib8tion/math8.h ****     return t;
  62:./lib/lib8tion/math8.h **** #elif QADD7_AVRASM == 1
  63:./lib/lib8tion/math8.h ****     asm volatile(
  64:./lib/lib8tion/math8.h ****          /* First, add j to i, conditioning the V flag */
  65:./lib/lib8tion/math8.h ****          "add %0, %1    \n\t"
  66:./lib/lib8tion/math8.h **** 
  67:./lib/lib8tion/math8.h ****          /* Now test the V flag.
  68:./lib/lib8tion/math8.h ****           If V is clear, we branch around a load of 0x7F into i.
  69:./lib/lib8tion/math8.h ****           If V is set, we go ahead and load 0x7F into i.
  70:./lib/lib8tion/math8.h ****           */
  71:./lib/lib8tion/math8.h ****          "brvc L_%=     \n\t"
  72:./lib/lib8tion/math8.h ****          "ldi %0, 0x7F  \n\t"
  73:./lib/lib8tion/math8.h ****          "L_%=: "
  74:./lib/lib8tion/math8.h ****          : "+a" (i)
  75:./lib/lib8tion/math8.h ****          : "a"  (j) );
  76:./lib/lib8tion/math8.h **** 
  77:./lib/lib8tion/math8.h ****     return i;
  78:./lib/lib8tion/math8.h **** #elif QADD7_ARM_DSP_ASM == 1
  79:./lib/lib8tion/math8.h ****     asm volatile( "qadd8 %0, %0, %1" : "+r" (i) : "r" (j));
  80:./lib/lib8tion/math8.h ****     return i;
  81:./lib/lib8tion/math8.h **** #else
  82:./lib/lib8tion/math8.h **** #error "No implementation for qadd7 available."
  83:./lib/lib8tion/math8.h **** #endif
  84:./lib/lib8tion/math8.h **** }
  85:./lib/lib8tion/math8.h **** 
  86:./lib/lib8tion/math8.h **** /// subtract one byte from another, saturating at 0x00
  87:./lib/lib8tion/math8.h **** /// @returns i - j with a floor of 0
  88:./lib/lib8tion/math8.h **** LIB8STATIC_ALWAYS_INLINE uint8_t qsub8( uint8_t i, uint8_t j)
 1934               		.loc 2 88 34 view .LVU445
 1935               	.LBB41:
  89:./lib/lib8tion/math8.h **** {
  90:./lib/lib8tion/math8.h **** #if QSUB8_C == 1
  91:./lib/lib8tion/math8.h ****     int16_t t = i - j;
  92:./lib/lib8tion/math8.h ****     if (t < 0) t = 0;
  93:./lib/lib8tion/math8.h ****     return t;
  94:./lib/lib8tion/math8.h **** #elif QSUB8_AVRASM == 1
  95:./lib/lib8tion/math8.h **** 
  96:./lib/lib8tion/math8.h ****     asm volatile(
 1936               		.loc 2 96 5 view .LVU446
 1937               	.LBE41:
 1938               	.LBE40:
 394:quantum/rgblight.c ****     rgblight_sethsv_eeprom_helper(rgblight_config.hue, sat, rgblight_config.val, write_to_eeprom);
 1939               		.loc 1 394 19 is_stmt 0 view .LVU447
 1940 0000 E0E0      		ldi r30,lo8(rgblight_config)
 1941 0002 F0E0      		ldi r31,hi8(rgblight_config)
 1942               	.LBB43:
 1943               	.LBB42:
 1944               		.loc 2 96 5 view .LVU448
 1945 0004 6281      		ldd r22,Z+2
 1946 0006 21E1      		ldi r18,lo8(17)
 1947               	/* #APP */
 1948               	 ;  96 "./lib/lib8tion/math8.h" 1
 1949 0008 621B      		sub r22, r18    
 1950 000a 00F4      		brcc L_1471     
 1951 000c 60E0      		ldi r22, 0x00  
 1952               		L_1471: 
 1953               	 ;  0 "" 2
 1954               	.LVL120:
  97:./lib/lib8tion/math8.h ****          /* First, subtract j from i, conditioning the C flag */
  98:./lib/lib8tion/math8.h ****          "sub %0, %1    \n\t"
  99:./lib/lib8tion/math8.h **** 
 100:./lib/lib8tion/math8.h ****          /* Now test the C flag.
 101:./lib/lib8tion/math8.h ****           If C is clear, we branch around a load of 0x00 into i.
 102:./lib/lib8tion/math8.h ****           If C is set, we go ahead and load 0x00 into i.
 103:./lib/lib8tion/math8.h ****           */
 104:./lib/lib8tion/math8.h ****          "brcc L_%=     \n\t"
 105:./lib/lib8tion/math8.h ****          "ldi %0, 0x00  \n\t"
 106:./lib/lib8tion/math8.h ****          "L_%=: "
 107:./lib/lib8tion/math8.h ****          : "+a" (i)
 108:./lib/lib8tion/math8.h ****          : "a"  (j) );
 109:./lib/lib8tion/math8.h **** 
 110:./lib/lib8tion/math8.h ****     return i;
 1955               		.loc 2 110 5 is_stmt 1 view .LVU449
 1956               		.loc 2 110 5 is_stmt 0 view .LVU450
 1957               	/* #NOAPP */
 1958               	.LBE42:
 1959               	.LBE43:
 395:quantum/rgblight.c **** }
 1960               		.loc 1 395 5 is_stmt 1 view .LVU451
 1961 000e 282F      		mov r18,r24
 1962 0010 4381      		ldd r20,Z+3
 1963 0012 8181      		ldd r24,Z+1
 1964               	.LVL121:
 395:quantum/rgblight.c **** }
 1965               		.loc 1 395 5 is_stmt 0 view .LVU452
 1966 0014 0C94 0000 		jmp rgblight_sethsv_eeprom_helper
 1967               	.LVL122:
 395:quantum/rgblight.c **** }
 1968               		.loc 1 395 5 view .LVU453
 1969               		.cfi_endproc
 1970               	.LFE127:
 1972               		.section	.text.rgblight_decrease_sat_noeeprom,"ax",@progbits
 1973               	.global	rgblight_decrease_sat_noeeprom
 1975               	rgblight_decrease_sat_noeeprom:
 1976               	.LFB128:
 397:quantum/rgblight.c **** void rgblight_decrease_sat(void) { rgblight_decrease_sat_helper(true); }
 1977               		.loc 1 397 43 is_stmt 1 view -0
 1978               		.cfi_startproc
 1979               	/* prologue: function */
 1980               	/* frame size = 0 */
 1981               	/* stack size = 0 */
 1982               	.L__stack_usage = 0
 397:quantum/rgblight.c **** void rgblight_decrease_sat(void) { rgblight_decrease_sat_helper(true); }
 1983               		.loc 1 397 45 view .LVU455
 1984 0000 80E0      		ldi r24,0
 1985 0002 0C94 0000 		jmp rgblight_decrease_sat_helper
 1986               	.LVL123:
 1987               		.cfi_endproc
 1988               	.LFE128:
 1990               		.section	.text.rgblight_decrease_sat,"ax",@progbits
 1991               	.global	rgblight_decrease_sat
 1993               	rgblight_decrease_sat:
 1994               	.LFB129:
 398:quantum/rgblight.c **** void rgblight_increase_val_helper(bool write_to_eeprom) {
 1995               		.loc 1 398 34 view -0
 1996               		.cfi_startproc
 1997               	/* prologue: function */
 1998               	/* frame size = 0 */
 1999               	/* stack size = 0 */
 2000               	.L__stack_usage = 0
 398:quantum/rgblight.c **** void rgblight_increase_val_helper(bool write_to_eeprom) {
 2001               		.loc 1 398 36 view .LVU457
 2002 0000 81E0      		ldi r24,lo8(1)
 2003 0002 0C94 0000 		jmp rgblight_decrease_sat_helper
 2004               	.LVL124:
 2005               		.cfi_endproc
 2006               	.LFE129:
 2008               		.section	.text.rgblight_increase_val_helper,"ax",@progbits
 2009               	.global	rgblight_increase_val_helper
 2011               	rgblight_increase_val_helper:
 2012               	.LVL125:
 2013               	.LFB130:
 399:quantum/rgblight.c ****     uint8_t val = qadd8(rgblight_config.val, RGBLIGHT_VAL_STEP);
 2014               		.loc 1 399 57 view -0
 2015               		.cfi_startproc
 2016               	/* prologue: function */
 2017               	/* frame size = 0 */
 2018               	/* stack size = 0 */
 2019               	.L__stack_usage = 0
 400:quantum/rgblight.c ****     rgblight_sethsv_eeprom_helper(rgblight_config.hue, rgblight_config.sat, val, write_to_eeprom);
 2020               		.loc 1 400 5 view .LVU459
 2021               	.LBB44:
 2022               	.LBI44:
  23:./lib/lib8tion/math8.h **** {
 2023               		.loc 2 23 34 view .LVU460
 2024               	.LBB45:
  30:./lib/lib8tion/math8.h ****          /* First, add j to i, conditioning the C flag */
 2025               		.loc 2 30 5 view .LVU461
 2026               	.LBE45:
 2027               	.LBE44:
 400:quantum/rgblight.c ****     rgblight_sethsv_eeprom_helper(rgblight_config.hue, rgblight_config.sat, val, write_to_eeprom);
 2028               		.loc 1 400 19 is_stmt 0 view .LVU462
 2029 0000 E0E0      		ldi r30,lo8(rgblight_config)
 2030 0002 F0E0      		ldi r31,hi8(rgblight_config)
 2031               	.LBB47:
 2032               	.LBB46:
  30:./lib/lib8tion/math8.h ****          /* First, add j to i, conditioning the C flag */
 2033               		.loc 2 30 5 view .LVU463
 2034 0004 4381      		ldd r20,Z+3
 2035 0006 21E1      		ldi r18,lo8(17)
 2036               	/* #APP */
 2037               	 ;  30 "./lib/lib8tion/math8.h" 1
 2038 0008 420F      		add r20, r18    
 2039 000a 00F4      		brcc L_1527     
 2040 000c 4FEF      		ldi r20, 0xFF  
 2041               		L_1527: 
 2042               	 ;  0 "" 2
 2043               	.LVL126:
  43:./lib/lib8tion/math8.h **** #elif QADD8_ARM_DSP_ASM == 1
 2044               		.loc 2 43 5 is_stmt 1 view .LVU464
  43:./lib/lib8tion/math8.h **** #elif QADD8_ARM_DSP_ASM == 1
 2045               		.loc 2 43 5 is_stmt 0 view .LVU465
 2046               	/* #NOAPP */
 2047               	.LBE46:
 2048               	.LBE47:
 401:quantum/rgblight.c **** }
 2049               		.loc 1 401 5 is_stmt 1 view .LVU466
 2050 000e 282F      		mov r18,r24
 2051 0010 6281      		ldd r22,Z+2
 2052 0012 8181      		ldd r24,Z+1
 2053               	.LVL127:
 401:quantum/rgblight.c **** }
 2054               		.loc 1 401 5 is_stmt 0 view .LVU467
 2055 0014 0C94 0000 		jmp rgblight_sethsv_eeprom_helper
 2056               	.LVL128:
 401:quantum/rgblight.c **** }
 2057               		.loc 1 401 5 view .LVU468
 2058               		.cfi_endproc
 2059               	.LFE130:
 2061               		.section	.text.rgblight_increase_val_noeeprom,"ax",@progbits
 2062               	.global	rgblight_increase_val_noeeprom
 2064               	rgblight_increase_val_noeeprom:
 2065               	.LFB131:
 403:quantum/rgblight.c **** void rgblight_increase_val(void) { rgblight_increase_val_helper(true); }
 2066               		.loc 1 403 43 is_stmt 1 view -0
 2067               		.cfi_startproc
 2068               	/* prologue: function */
 2069               	/* frame size = 0 */
 2070               	/* stack size = 0 */
 2071               	.L__stack_usage = 0
 403:quantum/rgblight.c **** void rgblight_increase_val(void) { rgblight_increase_val_helper(true); }
 2072               		.loc 1 403 45 view .LVU470
 2073 0000 80E0      		ldi r24,0
 2074 0002 0C94 0000 		jmp rgblight_increase_val_helper
 2075               	.LVL129:
 2076               		.cfi_endproc
 2077               	.LFE131:
 2079               		.section	.text.rgblight_increase_val,"ax",@progbits
 2080               	.global	rgblight_increase_val
 2082               	rgblight_increase_val:
 2083               	.LFB132:
 404:quantum/rgblight.c **** void rgblight_decrease_val_helper(bool write_to_eeprom) {
 2084               		.loc 1 404 34 view -0
 2085               		.cfi_startproc
 2086               	/* prologue: function */
 2087               	/* frame size = 0 */
 2088               	/* stack size = 0 */
 2089               	.L__stack_usage = 0
 404:quantum/rgblight.c **** void rgblight_decrease_val_helper(bool write_to_eeprom) {
 2090               		.loc 1 404 36 view .LVU472
 2091 0000 81E0      		ldi r24,lo8(1)
 2092 0002 0C94 0000 		jmp rgblight_increase_val_helper
 2093               	.LVL130:
 2094               		.cfi_endproc
 2095               	.LFE132:
 2097               		.section	.text.rgblight_decrease_val_helper,"ax",@progbits
 2098               	.global	rgblight_decrease_val_helper
 2100               	rgblight_decrease_val_helper:
 2101               	.LVL131:
 2102               	.LFB133:
 405:quantum/rgblight.c ****     uint8_t val = qsub8(rgblight_config.val, RGBLIGHT_VAL_STEP);
 2103               		.loc 1 405 57 view -0
 2104               		.cfi_startproc
 2105               	/* prologue: function */
 2106               	/* frame size = 0 */
 2107               	/* stack size = 0 */
 2108               	.L__stack_usage = 0
 406:quantum/rgblight.c ****     rgblight_sethsv_eeprom_helper(rgblight_config.hue, rgblight_config.sat, val, write_to_eeprom);
 2109               		.loc 1 406 5 view .LVU474
 2110               	.LBB48:
 2111               	.LBI48:
  88:./lib/lib8tion/math8.h **** {
 2112               		.loc 2 88 34 view .LVU475
 2113               	.LBB49:
  96:./lib/lib8tion/math8.h ****          /* First, subtract j from i, conditioning the C flag */
 2114               		.loc 2 96 5 view .LVU476
 2115               	.LBE49:
 2116               	.LBE48:
 406:quantum/rgblight.c ****     rgblight_sethsv_eeprom_helper(rgblight_config.hue, rgblight_config.sat, val, write_to_eeprom);
 2117               		.loc 1 406 19 is_stmt 0 view .LVU477
 2118 0000 E0E0      		ldi r30,lo8(rgblight_config)
 2119 0002 F0E0      		ldi r31,hi8(rgblight_config)
 2120               	.LBB51:
 2121               	.LBB50:
  96:./lib/lib8tion/math8.h ****          /* First, subtract j from i, conditioning the C flag */
 2122               		.loc 2 96 5 view .LVU478
 2123 0004 4381      		ldd r20,Z+3
 2124 0006 21E1      		ldi r18,lo8(17)
 2125               	/* #APP */
 2126               	 ;  96 "./lib/lib8tion/math8.h" 1
 2127 0008 421B      		sub r20, r18    
 2128 000a 00F4      		brcc L_1583     
 2129 000c 40E0      		ldi r20, 0x00  
 2130               		L_1583: 
 2131               	 ;  0 "" 2
 2132               	.LVL132:
 2133               		.loc 2 110 5 is_stmt 1 view .LVU479
 2134               		.loc 2 110 5 is_stmt 0 view .LVU480
 2135               	/* #NOAPP */
 2136               	.LBE50:
 2137               	.LBE51:
 407:quantum/rgblight.c **** }
 2138               		.loc 1 407 5 is_stmt 1 view .LVU481
 2139 000e 282F      		mov r18,r24
 2140 0010 6281      		ldd r22,Z+2
 2141 0012 8181      		ldd r24,Z+1
 2142               	.LVL133:
 407:quantum/rgblight.c **** }
 2143               		.loc 1 407 5 is_stmt 0 view .LVU482
 2144 0014 0C94 0000 		jmp rgblight_sethsv_eeprom_helper
 2145               	.LVL134:
 407:quantum/rgblight.c **** }
 2146               		.loc 1 407 5 view .LVU483
 2147               		.cfi_endproc
 2148               	.LFE133:
 2150               		.section	.text.rgblight_decrease_val_noeeprom,"ax",@progbits
 2151               	.global	rgblight_decrease_val_noeeprom
 2153               	rgblight_decrease_val_noeeprom:
 2154               	.LFB134:
 409:quantum/rgblight.c **** void rgblight_decrease_val(void) { rgblight_decrease_val_helper(true); }
 2155               		.loc 1 409 43 is_stmt 1 view -0
 2156               		.cfi_startproc
 2157               	/* prologue: function */
 2158               	/* frame size = 0 */
 2159               	/* stack size = 0 */
 2160               	.L__stack_usage = 0
 409:quantum/rgblight.c **** void rgblight_decrease_val(void) { rgblight_decrease_val_helper(true); }
 2161               		.loc 1 409 45 view .LVU485
 2162 0000 80E0      		ldi r24,0
 2163 0002 0C94 0000 		jmp rgblight_decrease_val_helper
 2164               	.LVL135:
 2165               		.cfi_endproc
 2166               	.LFE134:
 2168               		.section	.text.rgblight_decrease_val,"ax",@progbits
 2169               	.global	rgblight_decrease_val
 2171               	rgblight_decrease_val:
 2172               	.LFB135:
 410:quantum/rgblight.c **** 
 2173               		.loc 1 410 34 view -0
 2174               		.cfi_startproc
 2175               	/* prologue: function */
 2176               	/* frame size = 0 */
 2177               	/* stack size = 0 */
 2178               	.L__stack_usage = 0
 410:quantum/rgblight.c **** 
 2179               		.loc 1 410 36 view .LVU487
 2180 0000 81E0      		ldi r24,lo8(1)
 2181 0002 0C94 0000 		jmp rgblight_decrease_val_helper
 2182               	.LVL136:
 2183               		.cfi_endproc
 2184               	.LFE135:
 2186               		.section	.text.rgblight_sethsv,"ax",@progbits
 2187               	.global	rgblight_sethsv
 2189               	rgblight_sethsv:
 2190               	.LVL137:
 2191               	.LFB144:
 512:quantum/rgblight.c **** 
 2192               		.loc 1 512 61 view -0
 2193               		.cfi_startproc
 2194               	/* prologue: function */
 2195               	/* frame size = 0 */
 2196               	/* stack size = 0 */
 2197               	.L__stack_usage = 0
 512:quantum/rgblight.c **** 
 2198               		.loc 1 512 63 view .LVU489
 2199 0000 21E0      		ldi r18,lo8(1)
 2200 0002 0C94 0000 		jmp rgblight_sethsv_eeprom_helper
 2201               	.LVL138:
 512:quantum/rgblight.c **** 
 2202               		.loc 1 512 63 is_stmt 0 view .LVU490
 2203               		.cfi_endproc
 2204               	.LFE144:
 2206               		.section	.text.rgblight_sethsv_noeeprom,"ax",@progbits
 2207               	.global	rgblight_sethsv_noeeprom
 2209               	rgblight_sethsv_noeeprom:
 2210               	.LVL139:
 2211               	.LFB145:
 514:quantum/rgblight.c **** 
 2212               		.loc 1 514 70 is_stmt 1 view -0
 2213               		.cfi_startproc
 2214               	/* prologue: function */
 2215               	/* frame size = 0 */
 2216               	/* stack size = 0 */
 2217               	.L__stack_usage = 0
 514:quantum/rgblight.c **** 
 2218               		.loc 1 514 72 view .LVU492
 2219 0000 20E0      		ldi r18,0
 2220 0002 0C94 0000 		jmp rgblight_sethsv_eeprom_helper
 2221               	.LVL140:
 514:quantum/rgblight.c **** 
 2222               		.loc 1 514 72 is_stmt 0 view .LVU493
 2223               		.cfi_endproc
 2224               	.LFE145:
 2226               		.section	.text.rgblight_setrgb_at,"ax",@progbits
 2227               	.global	rgblight_setrgb_at
 2229               	rgblight_setrgb_at:
 2230               	.LVL141:
 2231               	.LFB155:
 556:quantum/rgblight.c ****     if (!rgblight_config.enable || index >= RGBLED_NUM) {
 2232               		.loc 1 556 73 is_stmt 1 view -0
 2233               		.cfi_startproc
 2234               	/* prologue: function */
 2235               	/* frame size = 0 */
 2236               	/* stack size = 0 */
 2237               	.L__stack_usage = 0
 557:quantum/rgblight.c ****         return;
 2238               		.loc 1 557 5 view .LVU495
 557:quantum/rgblight.c ****         return;
 2239               		.loc 1 557 25 is_stmt 0 view .LVU496
 2240 0000 9091 0000 		lds r25,rgblight_config
 557:quantum/rgblight.c ****         return;
 2241               		.loc 1 557 8 view .LVU497
 2242 0004 90FF      		sbrs r25,0
 2243 0006 00C0      		rjmp .L112
 557:quantum/rgblight.c ****         return;
 2244               		.loc 1 557 33 discriminator 1 view .LVU498
 2245 0008 2B31      		cpi r18,lo8(27)
 2246 000a 00F4      		brsh .L112
 561:quantum/rgblight.c ****     led[index].g = g;
 2247               		.loc 1 561 5 is_stmt 1 view .LVU499
 561:quantum/rgblight.c ****     led[index].g = g;
 2248               		.loc 1 561 15 is_stmt 0 view .LVU500
 2249 000c 30E0      		ldi r19,0
 561:quantum/rgblight.c ****     led[index].g = g;
 2250               		.loc 1 561 18 view .LVU501
 2251 000e F901      		movw r30,r18
 2252 0010 EE0F      		lsl r30
 2253 0012 FF1F      		rol r31
 2254 0014 E20F      		add r30,r18
 2255 0016 F31F      		adc r31,r19
 2256 0018 E050      		subi r30,lo8(-(led))
 2257 001a F040      		sbci r31,hi8(-(led))
 2258 001c 8183      		std Z+1,r24
 562:quantum/rgblight.c ****     led[index].b = b;
 2259               		.loc 1 562 5 is_stmt 1 view .LVU502
 562:quantum/rgblight.c ****     led[index].b = b;
 2260               		.loc 1 562 18 is_stmt 0 view .LVU503
 2261 001e 6083      		st Z,r22
 563:quantum/rgblight.c **** #ifdef RGBW
 2262               		.loc 1 563 5 is_stmt 1 view .LVU504
 563:quantum/rgblight.c **** #ifdef RGBW
 2263               		.loc 1 563 18 is_stmt 0 view .LVU505
 2264 0020 4283      		std Z+2,r20
 567:quantum/rgblight.c **** }
 2265               		.loc 1 567 5 is_stmt 1 view .LVU506
 2266 0022 0C94 0000 		jmp rgblight_set
 2267               	.LVL142:
 2268               	.L112:
 2269               	/* epilogue start */
 568:quantum/rgblight.c **** 
 2270               		.loc 1 568 1 is_stmt 0 view .LVU507
 2271 0026 0895      		ret
 2272               		.cfi_endproc
 2273               	.LFE155:
 2275               		.section	.text.rgblight_sethsv_at,"ax",@progbits
 2276               	.global	rgblight_sethsv_at
 2278               	rgblight_sethsv_at:
 2279               	.LVL143:
 2280               	.LFB156:
 570:quantum/rgblight.c ****     if (!rgblight_config.enable) {
 2281               		.loc 1 570 79 is_stmt 1 view -0
 2282               		.cfi_startproc
 570:quantum/rgblight.c ****     if (!rgblight_config.enable) {
 2283               		.loc 1 570 79 is_stmt 0 view .LVU509
 2284 0000 1F93      		push r17
 2285               	.LCFI32:
 2286               		.cfi_def_cfa_offset 3
 2287               		.cfi_offset 17, -2
 2288 0002 CF93      		push r28
 2289               	.LCFI33:
 2290               		.cfi_def_cfa_offset 4
 2291               		.cfi_offset 28, -3
 2292 0004 DF93      		push r29
 2293               	.LCFI34:
 2294               		.cfi_def_cfa_offset 5
 2295               		.cfi_offset 29, -4
 2296 0006 00D0      		rcall .
 2297 0008 0F92      		push __tmp_reg__
 2298               	.LCFI35:
 2299               		.cfi_def_cfa_offset 8
 2300 000a CDB7      		in r28,__SP_L__
 2301 000c DEB7      		in r29,__SP_H__
 2302               	.LCFI36:
 2303               		.cfi_def_cfa_register 28
 2304               	/* prologue: function */
 2305               	/* frame size = 3 */
 2306               	/* stack size = 6 */
 2307               	.L__stack_usage = 6
 2308 000e 122F      		mov r17,r18
 571:quantum/rgblight.c ****         return;
 2309               		.loc 1 571 5 is_stmt 1 view .LVU510
 571:quantum/rgblight.c ****         return;
 2310               		.loc 1 571 25 is_stmt 0 view .LVU511
 2311 0010 9091 0000 		lds r25,rgblight_config
 571:quantum/rgblight.c ****         return;
 2312               		.loc 1 571 8 view .LVU512
 2313 0014 90FF      		sbrs r25,0
 2314 0016 00C0      		rjmp .L117
 575:quantum/rgblight.c ****     sethsv(hue, sat, val, &tmp_led);
 2315               		.loc 1 575 5 is_stmt 1 view .LVU513
 576:quantum/rgblight.c ****     rgblight_setrgb_at(tmp_led.r, tmp_led.g, tmp_led.b, index);
 2316               		.loc 1 576 5 view .LVU514
 2317 0018 9E01      		movw r18,r28
 2318               	.LVL144:
 576:quantum/rgblight.c ****     rgblight_setrgb_at(tmp_led.r, tmp_led.g, tmp_led.b, index);
 2319               		.loc 1 576 5 is_stmt 0 view .LVU515
 2320 001a 2F5F      		subi r18,-1
 2321 001c 3F4F      		sbci r19,-1
 2322 001e 0E94 0000 		call sethsv
 2323               	.LVL145:
 577:quantum/rgblight.c **** }
 2324               		.loc 1 577 5 is_stmt 1 view .LVU516
 2325 0022 212F      		mov r18,r17
 2326 0024 4B81      		ldd r20,Y+3
 2327 0026 6981      		ldd r22,Y+1
 2328 0028 8A81      		ldd r24,Y+2
 2329 002a 0E94 0000 		call rgblight_setrgb_at
 2330               	.LVL146:
 2331               	.L117:
 2332               	/* epilogue start */
 578:quantum/rgblight.c **** 
 2333               		.loc 1 578 1 is_stmt 0 view .LVU517
 2334 002e 0F90      		pop __tmp_reg__
 2335 0030 0F90      		pop __tmp_reg__
 2336 0032 0F90      		pop __tmp_reg__
 2337 0034 DF91      		pop r29
 2338 0036 CF91      		pop r28
 2339 0038 1F91      		pop r17
 2340               	.LVL147:
 578:quantum/rgblight.c **** 
 2341               		.loc 1 578 1 view .LVU518
 2342 003a 0895      		ret
 2343               		.cfi_endproc
 2344               	.LFE156:
 2346               		.section	.text.rgblight_setrgb_range,"ax",@progbits
 2347               	.global	rgblight_setrgb_range
 2349               	rgblight_setrgb_range:
 2350               	.LVL148:
 2351               	.LFB158:
 592:quantum/rgblight.c ****     if (!rgblight_config.enable || start < 0 || start >= end || end > RGBLED_NUM) {
 2352               		.loc 1 592 89 is_stmt 1 view -0
 2353               		.cfi_startproc
 592:quantum/rgblight.c ****     if (!rgblight_config.enable || start < 0 || start >= end || end > RGBLED_NUM) {
 2354               		.loc 1 592 89 is_stmt 0 view .LVU520
 2355 0000 0F93      		push r16
 2356               	.LCFI37:
 2357               		.cfi_def_cfa_offset 3
 2358               		.cfi_offset 16, -2
 2359               	/* prologue: function */
 2360               	/* frame size = 0 */
 2361               	/* stack size = 1 */
 2362               	.L__stack_usage = 1
 593:quantum/rgblight.c ****         return;
 2363               		.loc 1 593 5 is_stmt 1 view .LVU521
 593:quantum/rgblight.c ****         return;
 2364               		.loc 1 593 25 is_stmt 0 view .LVU522
 2365 0002 9091 0000 		lds r25,rgblight_config
 593:quantum/rgblight.c ****         return;
 2366               		.loc 1 593 8 view .LVU523
 2367 0006 90FF      		sbrs r25,0
 2368 0008 00C0      		rjmp .L120
 593:quantum/rgblight.c ****         return;
 2369               		.loc 1 593 46 discriminator 1 view .LVU524
 2370 000a 2017      		cp r18,r16
 2371 000c 00F4      		brsh .L120
 593:quantum/rgblight.c ****         return;
 2372               		.loc 1 593 62 discriminator 2 view .LVU525
 2373 000e 0C31      		cpi r16,lo8(28)
 2374 0010 00F4      		brsh .L120
 2375 0012 93E0      		ldi r25,lo8(3)
 2376 0014 299F      		mul r18,r25
 2377 0016 F001      		movw r30,r0
 2378 0018 1124      		clr __zero_reg__
 2379 001a E050      		subi r30,lo8(-(led))
 2380 001c F040      		sbci r31,hi8(-(led))
 2381               	.LVL149:
 2382               	.L122:
 2383               	.LBB52:
 598:quantum/rgblight.c ****         led[i].g = g;
 2384               		.loc 1 598 9 is_stmt 1 discriminator 3 view .LVU526
 598:quantum/rgblight.c ****         led[i].g = g;
 2385               		.loc 1 598 18 is_stmt 0 discriminator 3 view .LVU527
 2386 001e 8183      		std Z+1,r24
 599:quantum/rgblight.c ****         led[i].b = b;
 2387               		.loc 1 599 9 is_stmt 1 discriminator 3 view .LVU528
 599:quantum/rgblight.c ****         led[i].b = b;
 2388               		.loc 1 599 18 is_stmt 0 discriminator 3 view .LVU529
 2389 0020 6083      		st Z,r22
 600:quantum/rgblight.c **** #ifdef RGBW
 2390               		.loc 1 600 9 is_stmt 1 discriminator 3 view .LVU530
 600:quantum/rgblight.c **** #ifdef RGBW
 2391               		.loc 1 600 18 is_stmt 0 discriminator 3 view .LVU531
 2392 0022 4283      		std Z+2,r20
 597:quantum/rgblight.c ****         led[i].r = r;
 2393               		.loc 1 597 38 is_stmt 1 discriminator 3 view .LVU532
 597:quantum/rgblight.c ****         led[i].r = r;
 2394               		.loc 1 597 39 is_stmt 0 discriminator 3 view .LVU533
 2395 0024 2F5F      		subi r18,lo8(-(1))
 2396               	.LVL150:
 597:quantum/rgblight.c ****         led[i].r = r;
 2397               		.loc 1 597 29 is_stmt 1 discriminator 3 view .LVU534
 2398 0026 3396      		adiw r30,3
 597:quantum/rgblight.c ****         led[i].r = r;
 2399               		.loc 1 597 5 is_stmt 0 discriminator 3 view .LVU535
 2400 0028 0213      		cpse r16,r18
 2401 002a 00C0      		rjmp .L122
 597:quantum/rgblight.c ****         led[i].r = r;
 2402               		.loc 1 597 5 discriminator 3 view .LVU536
 2403               	.LBE52:
 605:quantum/rgblight.c ****     wait_ms(1);
 2404               		.loc 1 605 5 is_stmt 1 view .LVU537
 2405 002c 0E94 0000 		call rgblight_set
 2406               	.LVL151:
 606:quantum/rgblight.c **** }
 2407               		.loc 1 606 5 view .LVU538
 2408               	.LBB53:
 2409               	.LBI53:
 2410               		.file 3 "/usr/local/Cellar/avr-gcc@8/8.4.0_2/avr/include/util/delay.h"
   1:/usr/local/Cellar/avr-gcc@8/8.4.0_2/avr/include/util/delay.h **** /* Copyright (c) 2002, Marek Michalkiewicz
   2:/usr/local/Cellar/avr-gcc@8/8.4.0_2/avr/include/util/delay.h ****    Copyright (c) 2004,2005,2007 Joerg Wunsch
   3:/usr/local/Cellar/avr-gcc@8/8.4.0_2/avr/include/util/delay.h ****    Copyright (c) 2007  Florin-Viorel Petrov
   4:/usr/local/Cellar/avr-gcc@8/8.4.0_2/avr/include/util/delay.h ****    All rights reserved.
   5:/usr/local/Cellar/avr-gcc@8/8.4.0_2/avr/include/util/delay.h **** 
   6:/usr/local/Cellar/avr-gcc@8/8.4.0_2/avr/include/util/delay.h ****    Redistribution and use in source and binary forms, with or without
   7:/usr/local/Cellar/avr-gcc@8/8.4.0_2/avr/include/util/delay.h ****    modification, are permitted provided that the following conditions are met:
   8:/usr/local/Cellar/avr-gcc@8/8.4.0_2/avr/include/util/delay.h **** 
   9:/usr/local/Cellar/avr-gcc@8/8.4.0_2/avr/include/util/delay.h ****    * Redistributions of source code must retain the above copyright
  10:/usr/local/Cellar/avr-gcc@8/8.4.0_2/avr/include/util/delay.h ****      notice, this list of conditions and the following disclaimer.
  11:/usr/local/Cellar/avr-gcc@8/8.4.0_2/avr/include/util/delay.h **** 
  12:/usr/local/Cellar/avr-gcc@8/8.4.0_2/avr/include/util/delay.h ****    * Redistributions in binary form must reproduce the above copyright
  13:/usr/local/Cellar/avr-gcc@8/8.4.0_2/avr/include/util/delay.h ****      notice, this list of conditions and the following disclaimer in
  14:/usr/local/Cellar/avr-gcc@8/8.4.0_2/avr/include/util/delay.h ****      the documentation and/or other materials provided with the
  15:/usr/local/Cellar/avr-gcc@8/8.4.0_2/avr/include/util/delay.h ****      distribution.
  16:/usr/local/Cellar/avr-gcc@8/8.4.0_2/avr/include/util/delay.h **** 
  17:/usr/local/Cellar/avr-gcc@8/8.4.0_2/avr/include/util/delay.h ****    * Neither the name of the copyright holders nor the names of
  18:/usr/local/Cellar/avr-gcc@8/8.4.0_2/avr/include/util/delay.h ****      contributors may be used to endorse or promote products derived
  19:/usr/local/Cellar/avr-gcc@8/8.4.0_2/avr/include/util/delay.h ****      from this software without specific prior written permission.
  20:/usr/local/Cellar/avr-gcc@8/8.4.0_2/avr/include/util/delay.h **** 
  21:/usr/local/Cellar/avr-gcc@8/8.4.0_2/avr/include/util/delay.h ****   THIS SOFTWARE IS PROVIDED BY THE COPYRIGHT HOLDERS AND CONTRIBUTORS "AS IS"
  22:/usr/local/Cellar/avr-gcc@8/8.4.0_2/avr/include/util/delay.h ****   AND ANY EXPRESS OR IMPLIED WARRANTIES, INCLUDING, BUT NOT LIMITED TO, THE
  23:/usr/local/Cellar/avr-gcc@8/8.4.0_2/avr/include/util/delay.h ****   IMPLIED WARRANTIES OF MERCHANTABILITY AND FITNESS FOR A PARTICULAR PURPOSE
  24:/usr/local/Cellar/avr-gcc@8/8.4.0_2/avr/include/util/delay.h ****   ARE DISCLAIMED. IN NO EVENT SHALL THE COPYRIGHT OWNER OR CONTRIBUTORS BE
  25:/usr/local/Cellar/avr-gcc@8/8.4.0_2/avr/include/util/delay.h ****   LIABLE FOR ANY DIRECT, INDIRECT, INCIDENTAL, SPECIAL, EXEMPLARY, OR
  26:/usr/local/Cellar/avr-gcc@8/8.4.0_2/avr/include/util/delay.h ****   CONSEQUENTIAL DAMAGES (INCLUDING, BUT NOT LIMITED TO, PROCUREMENT OF
  27:/usr/local/Cellar/avr-gcc@8/8.4.0_2/avr/include/util/delay.h ****   SUBSTITUTE GOODS OR SERVICES; LOSS OF USE, DATA, OR PROFITS; OR BUSINESS
  28:/usr/local/Cellar/avr-gcc@8/8.4.0_2/avr/include/util/delay.h ****   INTERRUPTION) HOWEVER CAUSED AND ON ANY THEORY OF LIABILITY, WHETHER IN
  29:/usr/local/Cellar/avr-gcc@8/8.4.0_2/avr/include/util/delay.h ****   CONTRACT, STRICT LIABILITY, OR TORT (INCLUDING NEGLIGENCE OR OTHERWISE)
  30:/usr/local/Cellar/avr-gcc@8/8.4.0_2/avr/include/util/delay.h ****   ARISING IN ANY WAY OUT OF THE USE OF THIS SOFTWARE, EVEN IF ADVISED OF THE
  31:/usr/local/Cellar/avr-gcc@8/8.4.0_2/avr/include/util/delay.h ****   POSSIBILITY OF SUCH DAMAGE. */
  32:/usr/local/Cellar/avr-gcc@8/8.4.0_2/avr/include/util/delay.h **** 
  33:/usr/local/Cellar/avr-gcc@8/8.4.0_2/avr/include/util/delay.h **** /* $Id: delay.h.in 2506 2016-02-08 10:05:45Z joerg_wunsch $ */
  34:/usr/local/Cellar/avr-gcc@8/8.4.0_2/avr/include/util/delay.h **** 
  35:/usr/local/Cellar/avr-gcc@8/8.4.0_2/avr/include/util/delay.h **** #ifndef _UTIL_DELAY_H_
  36:/usr/local/Cellar/avr-gcc@8/8.4.0_2/avr/include/util/delay.h **** #define _UTIL_DELAY_H_ 1
  37:/usr/local/Cellar/avr-gcc@8/8.4.0_2/avr/include/util/delay.h **** 
  38:/usr/local/Cellar/avr-gcc@8/8.4.0_2/avr/include/util/delay.h **** #ifndef __DOXYGEN__
  39:/usr/local/Cellar/avr-gcc@8/8.4.0_2/avr/include/util/delay.h **** #  ifndef __HAS_DELAY_CYCLES
  40:/usr/local/Cellar/avr-gcc@8/8.4.0_2/avr/include/util/delay.h **** #    define __HAS_DELAY_CYCLES 1
  41:/usr/local/Cellar/avr-gcc@8/8.4.0_2/avr/include/util/delay.h **** #  endif
  42:/usr/local/Cellar/avr-gcc@8/8.4.0_2/avr/include/util/delay.h **** #endif  /* __DOXYGEN__ */
  43:/usr/local/Cellar/avr-gcc@8/8.4.0_2/avr/include/util/delay.h **** 
  44:/usr/local/Cellar/avr-gcc@8/8.4.0_2/avr/include/util/delay.h **** #include <inttypes.h>
  45:/usr/local/Cellar/avr-gcc@8/8.4.0_2/avr/include/util/delay.h **** #include <util/delay_basic.h>
  46:/usr/local/Cellar/avr-gcc@8/8.4.0_2/avr/include/util/delay.h **** #include <math.h>
  47:/usr/local/Cellar/avr-gcc@8/8.4.0_2/avr/include/util/delay.h **** 
  48:/usr/local/Cellar/avr-gcc@8/8.4.0_2/avr/include/util/delay.h **** /** \file */
  49:/usr/local/Cellar/avr-gcc@8/8.4.0_2/avr/include/util/delay.h **** /** \defgroup util_delay <util/delay.h>: Convenience functions for busy-wait delay loops
  50:/usr/local/Cellar/avr-gcc@8/8.4.0_2/avr/include/util/delay.h ****     \code
  51:/usr/local/Cellar/avr-gcc@8/8.4.0_2/avr/include/util/delay.h ****     #define F_CPU 1000000UL  // 1 MHz
  52:/usr/local/Cellar/avr-gcc@8/8.4.0_2/avr/include/util/delay.h ****     //#define F_CPU 14.7456E6
  53:/usr/local/Cellar/avr-gcc@8/8.4.0_2/avr/include/util/delay.h ****     #include <util/delay.h>
  54:/usr/local/Cellar/avr-gcc@8/8.4.0_2/avr/include/util/delay.h ****     \endcode
  55:/usr/local/Cellar/avr-gcc@8/8.4.0_2/avr/include/util/delay.h **** 
  56:/usr/local/Cellar/avr-gcc@8/8.4.0_2/avr/include/util/delay.h ****     \note As an alternative method, it is possible to pass the
  57:/usr/local/Cellar/avr-gcc@8/8.4.0_2/avr/include/util/delay.h ****     F_CPU macro down to the compiler from the Makefile.
  58:/usr/local/Cellar/avr-gcc@8/8.4.0_2/avr/include/util/delay.h ****     Obviously, in that case, no \c \#define statement should be
  59:/usr/local/Cellar/avr-gcc@8/8.4.0_2/avr/include/util/delay.h ****     used.
  60:/usr/local/Cellar/avr-gcc@8/8.4.0_2/avr/include/util/delay.h **** 
  61:/usr/local/Cellar/avr-gcc@8/8.4.0_2/avr/include/util/delay.h ****     The functions in this header file are wrappers around the basic
  62:/usr/local/Cellar/avr-gcc@8/8.4.0_2/avr/include/util/delay.h ****     busy-wait functions from <util/delay_basic.h>.  They are meant as
  63:/usr/local/Cellar/avr-gcc@8/8.4.0_2/avr/include/util/delay.h ****     convenience functions where actual time values can be specified
  64:/usr/local/Cellar/avr-gcc@8/8.4.0_2/avr/include/util/delay.h ****     rather than a number of cycles to wait for.  The idea behind is
  65:/usr/local/Cellar/avr-gcc@8/8.4.0_2/avr/include/util/delay.h ****     that compile-time constant expressions will be eliminated by
  66:/usr/local/Cellar/avr-gcc@8/8.4.0_2/avr/include/util/delay.h ****     compiler optimization so floating-point expressions can be used
  67:/usr/local/Cellar/avr-gcc@8/8.4.0_2/avr/include/util/delay.h ****     to calculate the number of delay cycles needed based on the CPU
  68:/usr/local/Cellar/avr-gcc@8/8.4.0_2/avr/include/util/delay.h ****     frequency passed by the macro F_CPU.
  69:/usr/local/Cellar/avr-gcc@8/8.4.0_2/avr/include/util/delay.h **** 
  70:/usr/local/Cellar/avr-gcc@8/8.4.0_2/avr/include/util/delay.h ****     \note In order for these functions to work as intended, compiler
  71:/usr/local/Cellar/avr-gcc@8/8.4.0_2/avr/include/util/delay.h ****     optimizations <em>must</em> be enabled, and the delay time
  72:/usr/local/Cellar/avr-gcc@8/8.4.0_2/avr/include/util/delay.h ****     <em>must</em> be an expression that is a known constant at
  73:/usr/local/Cellar/avr-gcc@8/8.4.0_2/avr/include/util/delay.h ****     compile-time.  If these requirements are not met, the resulting
  74:/usr/local/Cellar/avr-gcc@8/8.4.0_2/avr/include/util/delay.h ****     delay will be much longer (and basically unpredictable), and
  75:/usr/local/Cellar/avr-gcc@8/8.4.0_2/avr/include/util/delay.h ****     applications that otherwise do not use floating-point calculations
  76:/usr/local/Cellar/avr-gcc@8/8.4.0_2/avr/include/util/delay.h ****     will experience severe code bloat by the floating-point library
  77:/usr/local/Cellar/avr-gcc@8/8.4.0_2/avr/include/util/delay.h ****     routines linked into the application.
  78:/usr/local/Cellar/avr-gcc@8/8.4.0_2/avr/include/util/delay.h **** 
  79:/usr/local/Cellar/avr-gcc@8/8.4.0_2/avr/include/util/delay.h ****     The functions available allow the specification of microsecond, and
  80:/usr/local/Cellar/avr-gcc@8/8.4.0_2/avr/include/util/delay.h ****     millisecond delays directly, using the application-supplied macro
  81:/usr/local/Cellar/avr-gcc@8/8.4.0_2/avr/include/util/delay.h ****     F_CPU as the CPU clock frequency (in Hertz).
  82:/usr/local/Cellar/avr-gcc@8/8.4.0_2/avr/include/util/delay.h **** 
  83:/usr/local/Cellar/avr-gcc@8/8.4.0_2/avr/include/util/delay.h **** */
  84:/usr/local/Cellar/avr-gcc@8/8.4.0_2/avr/include/util/delay.h **** 
  85:/usr/local/Cellar/avr-gcc@8/8.4.0_2/avr/include/util/delay.h **** #if !defined(__DOXYGEN__)
  86:/usr/local/Cellar/avr-gcc@8/8.4.0_2/avr/include/util/delay.h **** static __inline__ void _delay_us(double __us) __attribute__((__always_inline__));
  87:/usr/local/Cellar/avr-gcc@8/8.4.0_2/avr/include/util/delay.h **** static __inline__ void _delay_ms(double __ms) __attribute__((__always_inline__));
  88:/usr/local/Cellar/avr-gcc@8/8.4.0_2/avr/include/util/delay.h **** #endif
  89:/usr/local/Cellar/avr-gcc@8/8.4.0_2/avr/include/util/delay.h **** 
  90:/usr/local/Cellar/avr-gcc@8/8.4.0_2/avr/include/util/delay.h **** #ifndef F_CPU
  91:/usr/local/Cellar/avr-gcc@8/8.4.0_2/avr/include/util/delay.h **** /* prevent compiler error by supplying a default */
  92:/usr/local/Cellar/avr-gcc@8/8.4.0_2/avr/include/util/delay.h **** # warning "F_CPU not defined for <util/delay.h>"
  93:/usr/local/Cellar/avr-gcc@8/8.4.0_2/avr/include/util/delay.h **** /** \ingroup util_delay
  94:/usr/local/Cellar/avr-gcc@8/8.4.0_2/avr/include/util/delay.h ****     \def F_CPU
  95:/usr/local/Cellar/avr-gcc@8/8.4.0_2/avr/include/util/delay.h ****     \brief CPU frequency in Hz
  96:/usr/local/Cellar/avr-gcc@8/8.4.0_2/avr/include/util/delay.h **** 
  97:/usr/local/Cellar/avr-gcc@8/8.4.0_2/avr/include/util/delay.h ****     The macro F_CPU specifies the CPU frequency to be considered by
  98:/usr/local/Cellar/avr-gcc@8/8.4.0_2/avr/include/util/delay.h ****     the delay macros.  This macro is normally supplied by the
  99:/usr/local/Cellar/avr-gcc@8/8.4.0_2/avr/include/util/delay.h ****     environment (e.g. from within a project header, or the project's
 100:/usr/local/Cellar/avr-gcc@8/8.4.0_2/avr/include/util/delay.h ****     Makefile).  The value 1 MHz here is only provided as a "vanilla"
 101:/usr/local/Cellar/avr-gcc@8/8.4.0_2/avr/include/util/delay.h ****     fallback if no such user-provided definition could be found.
 102:/usr/local/Cellar/avr-gcc@8/8.4.0_2/avr/include/util/delay.h **** 
 103:/usr/local/Cellar/avr-gcc@8/8.4.0_2/avr/include/util/delay.h ****     In terms of the delay functions, the CPU frequency can be given as
 104:/usr/local/Cellar/avr-gcc@8/8.4.0_2/avr/include/util/delay.h ****     a floating-point constant (e.g. 3.6864E6 for 3.6864 MHz).
 105:/usr/local/Cellar/avr-gcc@8/8.4.0_2/avr/include/util/delay.h ****     However, the macros in <util/setbaud.h> require it to be an
 106:/usr/local/Cellar/avr-gcc@8/8.4.0_2/avr/include/util/delay.h ****     integer value.
 107:/usr/local/Cellar/avr-gcc@8/8.4.0_2/avr/include/util/delay.h ****  */
 108:/usr/local/Cellar/avr-gcc@8/8.4.0_2/avr/include/util/delay.h **** # define F_CPU 1000000UL
 109:/usr/local/Cellar/avr-gcc@8/8.4.0_2/avr/include/util/delay.h **** #endif
 110:/usr/local/Cellar/avr-gcc@8/8.4.0_2/avr/include/util/delay.h **** 
 111:/usr/local/Cellar/avr-gcc@8/8.4.0_2/avr/include/util/delay.h **** #ifndef __OPTIMIZE__
 112:/usr/local/Cellar/avr-gcc@8/8.4.0_2/avr/include/util/delay.h **** # warning "Compiler optimizations disabled; functions from <util/delay.h> won't work as designed"
 113:/usr/local/Cellar/avr-gcc@8/8.4.0_2/avr/include/util/delay.h **** #endif
 114:/usr/local/Cellar/avr-gcc@8/8.4.0_2/avr/include/util/delay.h **** 
 115:/usr/local/Cellar/avr-gcc@8/8.4.0_2/avr/include/util/delay.h **** #if __HAS_DELAY_CYCLES && defined(__OPTIMIZE__) && \
 116:/usr/local/Cellar/avr-gcc@8/8.4.0_2/avr/include/util/delay.h ****   !defined(__DELAY_BACKWARD_COMPATIBLE__) &&	   \
 117:/usr/local/Cellar/avr-gcc@8/8.4.0_2/avr/include/util/delay.h ****   __STDC_HOSTED__
 118:/usr/local/Cellar/avr-gcc@8/8.4.0_2/avr/include/util/delay.h **** #  include <math.h>
 119:/usr/local/Cellar/avr-gcc@8/8.4.0_2/avr/include/util/delay.h **** #endif
 120:/usr/local/Cellar/avr-gcc@8/8.4.0_2/avr/include/util/delay.h **** 
 121:/usr/local/Cellar/avr-gcc@8/8.4.0_2/avr/include/util/delay.h **** /**
 122:/usr/local/Cellar/avr-gcc@8/8.4.0_2/avr/include/util/delay.h ****    \ingroup util_delay
 123:/usr/local/Cellar/avr-gcc@8/8.4.0_2/avr/include/util/delay.h **** 
 124:/usr/local/Cellar/avr-gcc@8/8.4.0_2/avr/include/util/delay.h ****    Perform a delay of \c __ms milliseconds, using _delay_loop_2().
 125:/usr/local/Cellar/avr-gcc@8/8.4.0_2/avr/include/util/delay.h **** 
 126:/usr/local/Cellar/avr-gcc@8/8.4.0_2/avr/include/util/delay.h ****    The macro F_CPU is supposed to be defined to a
 127:/usr/local/Cellar/avr-gcc@8/8.4.0_2/avr/include/util/delay.h ****    constant defining the CPU clock frequency (in Hertz).
 128:/usr/local/Cellar/avr-gcc@8/8.4.0_2/avr/include/util/delay.h **** 
 129:/usr/local/Cellar/avr-gcc@8/8.4.0_2/avr/include/util/delay.h ****    The maximal possible delay is 262.14 ms / F_CPU in MHz.
 130:/usr/local/Cellar/avr-gcc@8/8.4.0_2/avr/include/util/delay.h **** 
 131:/usr/local/Cellar/avr-gcc@8/8.4.0_2/avr/include/util/delay.h ****    When the user request delay which exceed the maximum possible one,
 132:/usr/local/Cellar/avr-gcc@8/8.4.0_2/avr/include/util/delay.h ****    _delay_ms() provides a decreased resolution functionality. In this
 133:/usr/local/Cellar/avr-gcc@8/8.4.0_2/avr/include/util/delay.h ****    mode _delay_ms() will work with a resolution of 1/10 ms, providing
 134:/usr/local/Cellar/avr-gcc@8/8.4.0_2/avr/include/util/delay.h ****    delays up to 6.5535 seconds (independent from CPU frequency).  The
 135:/usr/local/Cellar/avr-gcc@8/8.4.0_2/avr/include/util/delay.h ****    user will not be informed about decreased resolution.
 136:/usr/local/Cellar/avr-gcc@8/8.4.0_2/avr/include/util/delay.h **** 
 137:/usr/local/Cellar/avr-gcc@8/8.4.0_2/avr/include/util/delay.h ****    If the avr-gcc toolchain has __builtin_avr_delay_cycles()
 138:/usr/local/Cellar/avr-gcc@8/8.4.0_2/avr/include/util/delay.h ****    support, maximal possible delay is 4294967.295 ms/ F_CPU in MHz. For
 139:/usr/local/Cellar/avr-gcc@8/8.4.0_2/avr/include/util/delay.h ****    values greater than the maximal possible delay, overflows results in
 140:/usr/local/Cellar/avr-gcc@8/8.4.0_2/avr/include/util/delay.h ****    no delay i.e., 0ms.
 141:/usr/local/Cellar/avr-gcc@8/8.4.0_2/avr/include/util/delay.h **** 
 142:/usr/local/Cellar/avr-gcc@8/8.4.0_2/avr/include/util/delay.h ****    Conversion of \c __ms into clock cycles may not always result in
 143:/usr/local/Cellar/avr-gcc@8/8.4.0_2/avr/include/util/delay.h ****    integer.  By default, the clock cycles rounded up to next
 144:/usr/local/Cellar/avr-gcc@8/8.4.0_2/avr/include/util/delay.h ****    integer. This ensures that the user gets at least \c __ms
 145:/usr/local/Cellar/avr-gcc@8/8.4.0_2/avr/include/util/delay.h ****    microseconds of delay.
 146:/usr/local/Cellar/avr-gcc@8/8.4.0_2/avr/include/util/delay.h **** 
 147:/usr/local/Cellar/avr-gcc@8/8.4.0_2/avr/include/util/delay.h ****    Alternatively, by defining the macro \c __DELAY_ROUND_DOWN__, or
 148:/usr/local/Cellar/avr-gcc@8/8.4.0_2/avr/include/util/delay.h ****    \c __DELAY_ROUND_CLOSEST__, before including this header file, the
 149:/usr/local/Cellar/avr-gcc@8/8.4.0_2/avr/include/util/delay.h ****    algorithm can be made to round down, or round to closest integer,
 150:/usr/local/Cellar/avr-gcc@8/8.4.0_2/avr/include/util/delay.h ****    respectively.
 151:/usr/local/Cellar/avr-gcc@8/8.4.0_2/avr/include/util/delay.h **** 
 152:/usr/local/Cellar/avr-gcc@8/8.4.0_2/avr/include/util/delay.h ****    \note
 153:/usr/local/Cellar/avr-gcc@8/8.4.0_2/avr/include/util/delay.h **** 
 154:/usr/local/Cellar/avr-gcc@8/8.4.0_2/avr/include/util/delay.h ****    The implementation of _delay_ms() based on
 155:/usr/local/Cellar/avr-gcc@8/8.4.0_2/avr/include/util/delay.h ****    __builtin_avr_delay_cycles() is not backward compatible with older
 156:/usr/local/Cellar/avr-gcc@8/8.4.0_2/avr/include/util/delay.h ****    implementations.  In order to get functionality backward compatible
 157:/usr/local/Cellar/avr-gcc@8/8.4.0_2/avr/include/util/delay.h ****    with previous versions, the macro \c "__DELAY_BACKWARD_COMPATIBLE__"
 158:/usr/local/Cellar/avr-gcc@8/8.4.0_2/avr/include/util/delay.h ****    must be defined before including this header file. Also, the
 159:/usr/local/Cellar/avr-gcc@8/8.4.0_2/avr/include/util/delay.h ****    backward compatible algorithm will be chosen if the code is
 160:/usr/local/Cellar/avr-gcc@8/8.4.0_2/avr/include/util/delay.h ****    compiled in a <em>freestanding environment</em> (GCC option
 161:/usr/local/Cellar/avr-gcc@8/8.4.0_2/avr/include/util/delay.h ****    \c -ffreestanding), as the math functions required for rounding are
 162:/usr/local/Cellar/avr-gcc@8/8.4.0_2/avr/include/util/delay.h ****    not available to the compiler then.
 163:/usr/local/Cellar/avr-gcc@8/8.4.0_2/avr/include/util/delay.h **** 
 164:/usr/local/Cellar/avr-gcc@8/8.4.0_2/avr/include/util/delay.h ****  */
 165:/usr/local/Cellar/avr-gcc@8/8.4.0_2/avr/include/util/delay.h **** void
 166:/usr/local/Cellar/avr-gcc@8/8.4.0_2/avr/include/util/delay.h **** _delay_ms(double __ms)
 2411               		.loc 3 166 1 view .LVU539
 2412               	.LBB54:
 167:/usr/local/Cellar/avr-gcc@8/8.4.0_2/avr/include/util/delay.h **** {
 168:/usr/local/Cellar/avr-gcc@8/8.4.0_2/avr/include/util/delay.h **** 	double __tmp ;
 2413               		.loc 3 168 2 view .LVU540
 169:/usr/local/Cellar/avr-gcc@8/8.4.0_2/avr/include/util/delay.h **** #if __HAS_DELAY_CYCLES && defined(__OPTIMIZE__) && \
 170:/usr/local/Cellar/avr-gcc@8/8.4.0_2/avr/include/util/delay.h ****   !defined(__DELAY_BACKWARD_COMPATIBLE__) &&	   \
 171:/usr/local/Cellar/avr-gcc@8/8.4.0_2/avr/include/util/delay.h ****   __STDC_HOSTED__
 172:/usr/local/Cellar/avr-gcc@8/8.4.0_2/avr/include/util/delay.h **** 	uint32_t __ticks_dc;
 2414               		.loc 3 172 2 view .LVU541
 173:/usr/local/Cellar/avr-gcc@8/8.4.0_2/avr/include/util/delay.h **** 	extern void __builtin_avr_delay_cycles(unsigned long);
 2415               		.loc 3 173 2 view .LVU542
 174:/usr/local/Cellar/avr-gcc@8/8.4.0_2/avr/include/util/delay.h **** 	__tmp = ((F_CPU) / 1e3) * __ms;
 2416               		.loc 3 174 2 view .LVU543
 175:/usr/local/Cellar/avr-gcc@8/8.4.0_2/avr/include/util/delay.h **** 
 176:/usr/local/Cellar/avr-gcc@8/8.4.0_2/avr/include/util/delay.h **** 	#if defined(__DELAY_ROUND_DOWN__)
 177:/usr/local/Cellar/avr-gcc@8/8.4.0_2/avr/include/util/delay.h **** 		__ticks_dc = (uint32_t)fabs(__tmp);
 178:/usr/local/Cellar/avr-gcc@8/8.4.0_2/avr/include/util/delay.h **** 
 179:/usr/local/Cellar/avr-gcc@8/8.4.0_2/avr/include/util/delay.h **** 	#elif defined(__DELAY_ROUND_CLOSEST__)
 180:/usr/local/Cellar/avr-gcc@8/8.4.0_2/avr/include/util/delay.h **** 		__ticks_dc = (uint32_t)(fabs(__tmp)+0.5);
 181:/usr/local/Cellar/avr-gcc@8/8.4.0_2/avr/include/util/delay.h **** 
 182:/usr/local/Cellar/avr-gcc@8/8.4.0_2/avr/include/util/delay.h **** 	#else
 183:/usr/local/Cellar/avr-gcc@8/8.4.0_2/avr/include/util/delay.h **** 		//round up by default
 184:/usr/local/Cellar/avr-gcc@8/8.4.0_2/avr/include/util/delay.h **** 		__ticks_dc = (uint32_t)(ceil(fabs(__tmp)));
 2417               		.loc 3 184 3 view .LVU544
 185:/usr/local/Cellar/avr-gcc@8/8.4.0_2/avr/include/util/delay.h **** 	#endif
 186:/usr/local/Cellar/avr-gcc@8/8.4.0_2/avr/include/util/delay.h **** 
 187:/usr/local/Cellar/avr-gcc@8/8.4.0_2/avr/include/util/delay.h **** 	__builtin_avr_delay_cycles(__ticks_dc);
 2418               		.loc 3 187 2 view .LVU545
 2419 0030 8FE9      		ldi r24,lo8(3999)
 2420 0032 9FE0      		ldi r25,hi8(3999)
 2421 0034 0197      	1:	sbiw r24,1
 2422 0036 01F4      		brne 1b
 2423 0038 00C0      		rjmp .
 2424 003a 0000      		nop
 2425               	.LVL152:
 2426               	.L120:
 2427               	/* epilogue start */
 2428               		.loc 3 187 2 is_stmt 0 view .LVU546
 2429               	.LBE54:
 2430               	.LBE53:
 607:quantum/rgblight.c **** 
 2431               		.loc 1 607 1 view .LVU547
 2432 003c 0F91      		pop r16
 2433               	.LVL153:
 607:quantum/rgblight.c **** 
 2434               		.loc 1 607 1 view .LVU548
 2435 003e 0895      		ret
 2436               		.cfi_endproc
 2437               	.LFE158:
 2439               		.section	.text.rgblight_sethsv_range,"ax",@progbits
 2440               	.global	rgblight_sethsv_range
 2442               	rgblight_sethsv_range:
 2443               	.LVL154:
 2444               	.LFB159:
 609:quantum/rgblight.c ****     if (!rgblight_config.enable) {
 2445               		.loc 1 609 95 is_stmt 1 view -0
 2446               		.cfi_startproc
 609:quantum/rgblight.c ****     if (!rgblight_config.enable) {
 2447               		.loc 1 609 95 is_stmt 0 view .LVU550
 2448 0000 0F93      		push r16
 2449               	.LCFI38:
 2450               		.cfi_def_cfa_offset 3
 2451               		.cfi_offset 16, -2
 2452 0002 1F93      		push r17
 2453               	.LCFI39:
 2454               		.cfi_def_cfa_offset 4
 2455               		.cfi_offset 17, -3
 2456 0004 CF93      		push r28
 2457               	.LCFI40:
 2458               		.cfi_def_cfa_offset 5
 2459               		.cfi_offset 28, -4
 2460 0006 DF93      		push r29
 2461               	.LCFI41:
 2462               		.cfi_def_cfa_offset 6
 2463               		.cfi_offset 29, -5
 2464 0008 00D0      		rcall .
 2465 000a 0F92      		push __tmp_reg__
 2466               	.LCFI42:
 2467               		.cfi_def_cfa_offset 9
 2468 000c CDB7      		in r28,__SP_L__
 2469 000e DEB7      		in r29,__SP_H__
 2470               	.LCFI43:
 2471               		.cfi_def_cfa_register 28
 2472               	/* prologue: function */
 2473               	/* frame size = 3 */
 2474               	/* stack size = 7 */
 2475               	.L__stack_usage = 7
 2476 0010 122F      		mov r17,r18
 610:quantum/rgblight.c ****         return;
 2477               		.loc 1 610 5 is_stmt 1 view .LVU551
 610:quantum/rgblight.c ****         return;
 2478               		.loc 1 610 25 is_stmt 0 view .LVU552
 2479 0012 9091 0000 		lds r25,rgblight_config
 610:quantum/rgblight.c ****         return;
 2480               		.loc 1 610 8 view .LVU553
 2481 0016 90FF      		sbrs r25,0
 2482 0018 00C0      		rjmp .L127
 614:quantum/rgblight.c ****     sethsv(hue, sat, val, &tmp_led);
 2483               		.loc 1 614 5 is_stmt 1 view .LVU554
 615:quantum/rgblight.c ****     rgblight_setrgb_range(tmp_led.r, tmp_led.g, tmp_led.b, start, end);
 2484               		.loc 1 615 5 view .LVU555
 2485 001a 9E01      		movw r18,r28
 2486               	.LVL155:
 615:quantum/rgblight.c ****     rgblight_setrgb_range(tmp_led.r, tmp_led.g, tmp_led.b, start, end);
 2487               		.loc 1 615 5 is_stmt 0 view .LVU556
 2488 001c 2F5F      		subi r18,-1
 2489 001e 3F4F      		sbci r19,-1
 2490 0020 0E94 0000 		call sethsv
 2491               	.LVL156:
 616:quantum/rgblight.c **** }
 2492               		.loc 1 616 5 is_stmt 1 view .LVU557
 2493 0024 212F      		mov r18,r17
 2494 0026 4B81      		ldd r20,Y+3
 2495 0028 6981      		ldd r22,Y+1
 2496 002a 8A81      		ldd r24,Y+2
 2497 002c 0E94 0000 		call rgblight_setrgb_range
 2498               	.LVL157:
 2499               	.L127:
 2500               	/* epilogue start */
 617:quantum/rgblight.c **** 
 2501               		.loc 1 617 1 is_stmt 0 view .LVU558
 2502 0030 0F90      		pop __tmp_reg__
 2503 0032 0F90      		pop __tmp_reg__
 2504 0034 0F90      		pop __tmp_reg__
 2505 0036 DF91      		pop r29
 2506 0038 CF91      		pop r28
 2507 003a 1F91      		pop r17
 2508               	.LVL158:
 617:quantum/rgblight.c **** 
 2509               		.loc 1 617 1 view .LVU559
 2510 003c 0F91      		pop r16
 2511               	.LVL159:
 617:quantum/rgblight.c **** 
 2512               		.loc 1 617 1 view .LVU560
 2513 003e 0895      		ret
 2514               		.cfi_endproc
 2515               	.LFE159:
 2517               		.section	.text.rgblight_effect_rainbow_swirl,"ax",@progbits
 2518               	.global	rgblight_effect_rainbow_swirl
 2520               	rgblight_effect_rainbow_swirl:
 2521               	.LVL160:
 2522               	.LFB175:
1021:quantum/rgblight.c ****     uint8_t hue;
 2523               		.loc 1 1021 62 is_stmt 1 view -0
 2524               		.cfi_startproc
1021:quantum/rgblight.c ****     uint8_t hue;
 2525               		.loc 1 1021 62 is_stmt 0 view .LVU562
 2526 0000 EF92      		push r14
 2527               	.LCFI44:
 2528               		.cfi_def_cfa_offset 3
 2529               		.cfi_offset 14, -2
 2530 0002 FF92      		push r15
 2531               	.LCFI45:
 2532               		.cfi_def_cfa_offset 4
 2533               		.cfi_offset 15, -3
 2534 0004 1F93      		push r17
 2535               	.LCFI46:
 2536               		.cfi_def_cfa_offset 5
 2537               		.cfi_offset 17, -4
 2538 0006 CF93      		push r28
 2539               	.LCFI47:
 2540               		.cfi_def_cfa_offset 6
 2541               		.cfi_offset 28, -5
 2542 0008 DF93      		push r29
 2543               	.LCFI48:
 2544               		.cfi_def_cfa_offset 7
 2545               		.cfi_offset 29, -6
 2546               	/* prologue: function */
 2547               	/* frame size = 0 */
 2548               	/* stack size = 5 */
 2549               	.L__stack_usage = 5
 2550 000a EC01      		movw r28,r24
1022:quantum/rgblight.c ****     uint8_t i;
 2551               		.loc 1 1022 5 is_stmt 1 view .LVU563
1023:quantum/rgblight.c **** 
 2552               		.loc 1 1023 5 view .LVU564
1025:quantum/rgblight.c ****         hue = (RGBLIGHT_RAINBOW_SWIRL_RANGE / rgblight_ranges.effect_num_leds * i + anim->current_h
 2553               		.loc 1 1025 5 view .LVU565
 2554               	.LVL161:
1025:quantum/rgblight.c ****         hue = (RGBLIGHT_RAINBOW_SWIRL_RANGE / rgblight_ranges.effect_num_leds * i + anim->current_h
 2555               		.loc 1 1025 12 is_stmt 0 view .LVU566
 2556 000c 10E0      		ldi r17,0
1026:quantum/rgblight.c ****         sethsv(hue, rgblight_config.sat, rgblight_config.val, (LED_TYPE *)&led[i + rgblight_ranges.
 2557               		.loc 1 1026 45 view .LVU567
 2558 000e EE24      		clr r14
 2559 0010 EA94      		dec r14
 2560 0012 F12C      		mov r15,__zero_reg__
 2561               	.LVL162:
 2562               	.L131:
1025:quantum/rgblight.c ****         hue = (RGBLIGHT_RAINBOW_SWIRL_RANGE / rgblight_ranges.effect_num_leds * i + anim->current_h
 2563               		.loc 1 1025 17 is_stmt 1 discriminator 1 view .LVU568
1025:quantum/rgblight.c ****         hue = (RGBLIGHT_RAINBOW_SWIRL_RANGE / rgblight_ranges.effect_num_leds * i + anim->current_h
 2564               		.loc 1 1025 36 is_stmt 0 discriminator 1 view .LVU569
 2565 0014 6091 0000 		lds r22,rgblight_ranges+4
1025:quantum/rgblight.c ****         hue = (RGBLIGHT_RAINBOW_SWIRL_RANGE / rgblight_ranges.effect_num_leds * i + anim->current_h
 2566               		.loc 1 1025 5 discriminator 1 view .LVU570
 2567 0018 1617      		cp r17,r22
 2568 001a 00F0      		brlo .L132
1029:quantum/rgblight.c **** 
 2569               		.loc 1 1029 5 is_stmt 1 view .LVU571
 2570 001c 0E94 0000 		call rgblight_set
 2571               	.LVL163:
1031:quantum/rgblight.c ****         anim->current_hue++;
 2572               		.loc 1 1031 5 view .LVU572
1031:quantum/rgblight.c ****         anim->current_hue++;
 2573               		.loc 1 1031 9 is_stmt 0 view .LVU573
 2574 0020 9A81      		ldd r25,Y+2
 2575 0022 8C81      		ldd r24,Y+4
1031:quantum/rgblight.c ****         anim->current_hue++;
 2576               		.loc 1 1031 8 view .LVU574
 2577 0024 90FF      		sbrs r25,0
 2578 0026 00C0      		rjmp .L133
1032:quantum/rgblight.c ****     } else {
 2579               		.loc 1 1032 9 is_stmt 1 view .LVU575
1032:quantum/rgblight.c ****     } else {
 2580               		.loc 1 1032 26 is_stmt 0 view .LVU576
 2581 0028 8F5F      		subi r24,lo8(-(1))
 2582               	.L135:
1034:quantum/rgblight.c ****     }
 2583               		.loc 1 1034 26 view .LVU577
 2584 002a 8C83      		std Y+4,r24
 2585               	/* epilogue start */
1036:quantum/rgblight.c **** #endif
 2586               		.loc 1 1036 1 view .LVU578
 2587 002c DF91      		pop r29
 2588 002e CF91      		pop r28
 2589               	.LVL164:
1036:quantum/rgblight.c **** #endif
 2590               		.loc 1 1036 1 view .LVU579
 2591 0030 1F91      		pop r17
 2592               	.LVL165:
1036:quantum/rgblight.c **** #endif
 2593               		.loc 1 1036 1 view .LVU580
 2594 0032 FF90      		pop r15
 2595 0034 EF90      		pop r14
 2596 0036 0895      		ret
 2597               	.LVL166:
 2598               	.L132:
1026:quantum/rgblight.c ****         sethsv(hue, rgblight_config.sat, rgblight_config.val, (LED_TYPE *)&led[i + rgblight_ranges.
 2599               		.loc 1 1026 9 is_stmt 1 discriminator 3 view .LVU581
1027:quantum/rgblight.c ****     }
 2600               		.loc 1 1027 9 discriminator 3 view .LVU582
1027:quantum/rgblight.c ****     }
 2601               		.loc 1 1027 99 is_stmt 0 discriminator 3 view .LVU583
 2602 0038 2091 0000 		lds r18,rgblight_ranges+2
1027:quantum/rgblight.c ****     }
 2603               		.loc 1 1027 82 discriminator 3 view .LVU584
 2604 003c 422F      		mov r20,r18
 2605 003e 410F      		add r20,r17
 2606 0040 5527      		clr r21
 2607 0042 551F      		rol r21
 2608 0044 CA01      		movw r24,r20
1027:quantum/rgblight.c ****     }
 2609               		.loc 1 1027 9 discriminator 3 view .LVU585
 2610 0046 9A01      		movw r18,r20
 2611 0048 220F      		lsl r18
 2612 004a 331F      		rol r19
 2613 004c 280F      		add r18,r24
 2614 004e 391F      		adc r19,r25
 2615 0050 2050      		subi r18,lo8(-(led))
 2616 0052 3040      		sbci r19,hi8(-(led))
1026:quantum/rgblight.c ****         sethsv(hue, rgblight_config.sat, rgblight_config.val, (LED_TYPE *)&led[i + rgblight_ranges.
 2617               		.loc 1 1026 62 discriminator 3 view .LVU586
 2618 0054 70E0      		ldi r23,0
1026:quantum/rgblight.c ****         sethsv(hue, rgblight_config.sat, rgblight_config.val, (LED_TYPE *)&led[i + rgblight_ranges.
 2619               		.loc 1 1026 45 discriminator 3 view .LVU587
 2620 0056 C701      		movw r24,r14
 2621 0058 0E94 0000 		call __divmodhi4
 2622               	.LVL167:
1026:quantum/rgblight.c ****         sethsv(hue, rgblight_config.sat, rgblight_config.val, (LED_TYPE *)&led[i + rgblight_ranges.
 2623               		.loc 1 1026 45 discriminator 3 view .LVU588
 2624 005c 962F      		mov r25,r22
1026:quantum/rgblight.c ****         sethsv(hue, rgblight_config.sat, rgblight_config.val, (LED_TYPE *)&led[i + rgblight_ranges.
 2625               		.loc 1 1026 13 discriminator 3 view .LVU589
 2626 005e 8C81      		ldd r24,Y+4
1027:quantum/rgblight.c ****     }
 2627               		.loc 1 1027 9 discriminator 3 view .LVU590
 2628 0060 4091 0000 		lds r20,rgblight_config+3
 2629 0064 6091 0000 		lds r22,rgblight_config+2
 2630 0068 199F      		mul r17,r25
 2631 006a 800D      		add r24,r0
 2632 006c 1124      		clr __zero_reg__
 2633 006e 0E94 0000 		call sethsv
 2634               	.LVL168:
1025:quantum/rgblight.c ****         hue = (RGBLIGHT_RAINBOW_SWIRL_RANGE / rgblight_ranges.effect_num_leds * i + anim->current_h
 2635               		.loc 1 1025 54 is_stmt 1 discriminator 3 view .LVU591
1025:quantum/rgblight.c ****         hue = (RGBLIGHT_RAINBOW_SWIRL_RANGE / rgblight_ranges.effect_num_leds * i + anim->current_h
 2636               		.loc 1 1025 55 is_stmt 0 discriminator 3 view .LVU592
 2637 0072 1F5F      		subi r17,lo8(-(1))
 2638               	.LVL169:
1025:quantum/rgblight.c ****         hue = (RGBLIGHT_RAINBOW_SWIRL_RANGE / rgblight_ranges.effect_num_leds * i + anim->current_h
 2639               		.loc 1 1025 55 discriminator 3 view .LVU593
 2640 0074 00C0      		rjmp .L131
 2641               	.L133:
1034:quantum/rgblight.c ****     }
 2642               		.loc 1 1034 9 is_stmt 1 view .LVU594
1034:quantum/rgblight.c ****     }
 2643               		.loc 1 1034 26 is_stmt 0 view .LVU595
 2644 0076 8150      		subi r24,lo8(-(-1))
 2645 0078 00C0      		rjmp .L135
 2646               		.cfi_endproc
 2647               	.LFE175:
 2649               		.section	.text.rgblight_effect_snake,"ax",@progbits
 2650               	.global	rgblight_effect_snake
 2652               	rgblight_effect_snake:
 2653               	.LVL170:
 2654               	.LFB176:
1042:quantum/rgblight.c ****     static uint8_t pos = 0;
 2655               		.loc 1 1042 54 is_stmt 1 view -0
 2656               		.cfi_startproc
1042:quantum/rgblight.c ****     static uint8_t pos = 0;
 2657               		.loc 1 1042 54 is_stmt 0 view .LVU597
 2658 0000 8F92      		push r8
 2659               	.LCFI49:
 2660               		.cfi_def_cfa_offset 3
 2661               		.cfi_offset 8, -2
 2662 0002 9F92      		push r9
 2663               	.LCFI50:
 2664               		.cfi_def_cfa_offset 4
 2665               		.cfi_offset 9, -3
 2666 0004 AF92      		push r10
 2667               	.LCFI51:
 2668               		.cfi_def_cfa_offset 5
 2669               		.cfi_offset 10, -4
 2670 0006 BF92      		push r11
 2671               	.LCFI52:
 2672               		.cfi_def_cfa_offset 6
 2673               		.cfi_offset 11, -5
 2674 0008 CF92      		push r12
 2675               	.LCFI53:
 2676               		.cfi_def_cfa_offset 7
 2677               		.cfi_offset 12, -6
 2678 000a DF92      		push r13
 2679               	.LCFI54:
 2680               		.cfi_def_cfa_offset 8
 2681               		.cfi_offset 13, -7
 2682 000c EF92      		push r14
 2683               	.LCFI55:
 2684               		.cfi_def_cfa_offset 9
 2685               		.cfi_offset 14, -8
 2686 000e FF92      		push r15
 2687               	.LCFI56:
 2688               		.cfi_def_cfa_offset 10
 2689               		.cfi_offset 15, -9
 2690 0010 0F93      		push r16
 2691               	.LCFI57:
 2692               		.cfi_def_cfa_offset 11
 2693               		.cfi_offset 16, -10
 2694 0012 1F93      		push r17
 2695               	.LCFI58:
 2696               		.cfi_def_cfa_offset 12
 2697               		.cfi_offset 17, -11
 2698 0014 CF93      		push r28
 2699               	.LCFI59:
 2700               		.cfi_def_cfa_offset 13
 2701               		.cfi_offset 28, -12
 2702 0016 DF93      		push r29
 2703               	.LCFI60:
 2704               		.cfi_def_cfa_offset 14
 2705               		.cfi_offset 29, -13
 2706               	/* prologue: function */
 2707               	/* frame size = 0 */
 2708               	/* stack size = 12 */
 2709               	.L__stack_usage = 12
 2710 0018 EC01      		movw r28,r24
1043:quantum/rgblight.c ****     uint8_t        i, j;
 2711               		.loc 1 1043 5 is_stmt 1 view .LVU598
1044:quantum/rgblight.c ****     int8_t         k;
 2712               		.loc 1 1044 5 view .LVU599
1045:quantum/rgblight.c ****     int8_t         increment = 1;
 2713               		.loc 1 1045 5 view .LVU600
1046:quantum/rgblight.c **** 
 2714               		.loc 1 1046 5 view .LVU601
 2715               	.LVL171:
1048:quantum/rgblight.c ****         increment = -1;
 2716               		.loc 1 1048 5 view .LVU602
1048:quantum/rgblight.c ****         increment = -1;
 2717               		.loc 1 1048 9 is_stmt 0 view .LVU603
 2718 001a 8A81      		ldd r24,Y+2
 2719               	.LVL172:
1049:quantum/rgblight.c ****     }
 2720               		.loc 1 1049 19 view .LVU604
 2721 001c BB24      		clr r11
 2722 001e BA94      		dec r11
1048:quantum/rgblight.c ****         increment = -1;
 2723               		.loc 1 1048 8 view .LVU605
 2724 0020 80FD      		sbrc r24,0
 2725 0022 00C0      		rjmp .L137
1046:quantum/rgblight.c **** 
 2726               		.loc 1 1046 20 view .LVU606
 2727 0024 BB24      		clr r11
 2728 0026 B394      		inc r11
 2729               	.L137:
 2730               	.LVL173:
1053:quantum/rgblight.c ****         if (increment == 1) {
 2731               		.loc 1 1053 5 is_stmt 1 view .LVU607
1053:quantum/rgblight.c ****         if (increment == 1) {
 2732               		.loc 1 1053 8 is_stmt 0 view .LVU608
 2733 0028 8C81      		ldd r24,Y+4
 2734 002a 8111      		cpse r24,__zero_reg__
 2735 002c 00C0      		rjmp .L138
1054:quantum/rgblight.c ****             pos = rgblight_ranges.effect_num_leds - 1;
 2736               		.loc 1 1054 9 is_stmt 1 view .LVU609
1054:quantum/rgblight.c ****             pos = rgblight_ranges.effect_num_leds - 1;
 2737               		.loc 1 1054 12 is_stmt 0 view .LVU610
 2738 002e 81E0      		ldi r24,lo8(1)
 2739 0030 B812      		cpse r11,r24
 2740 0032 00C0      		rjmp .L139
1055:quantum/rgblight.c ****         } else {
 2741               		.loc 1 1055 13 is_stmt 1 view .LVU611
1055:quantum/rgblight.c ****         } else {
 2742               		.loc 1 1055 51 is_stmt 0 view .LVU612
 2743 0034 8091 0000 		lds r24,rgblight_ranges+4
 2744 0038 8150      		subi r24,lo8(-(-1))
1055:quantum/rgblight.c ****         } else {
 2745               		.loc 1 1055 17 view .LVU613
 2746 003a 8093 0000 		sts pos.3399,r24
 2747               	.L140:
1059:quantum/rgblight.c ****     }
 2748               		.loc 1 1059 9 is_stmt 1 view .LVU614
1059:quantum/rgblight.c ****     }
 2749               		.loc 1 1059 19 is_stmt 0 view .LVU615
 2750 003e 81E0      		ldi r24,lo8(1)
 2751 0040 8C83      		std Y+4,r24
 2752               	.L138:
 2753               	.LBB55:
1067:quantum/rgblight.c **** #    ifdef RGBW
 2754               		.loc 1 1067 24 discriminator 1 view .LVU616
 2755 0042 A12C      		mov r10,__zero_reg__
1074:quantum/rgblight.c ****             }
 2756               		.loc 1 1074 19 discriminator 1 view .LVU617
 2757 0044 4BE1      		ldi r20,lo8(27)
 2758 0046 942E      		mov r9,r20
 2759               	.L141:
 2760               	.LVL174:
1074:quantum/rgblight.c ****             }
 2761               		.loc 1 1074 19 discriminator 1 view .LVU618
 2762               	.LBE55:
1063:quantum/rgblight.c ****         LED_TYPE *ledp = led + i + rgblight_ranges.effect_start_pos;
 2763               		.loc 1 1063 17 is_stmt 1 discriminator 1 view .LVU619
1063:quantum/rgblight.c ****         LED_TYPE *ledp = led + i + rgblight_ranges.effect_start_pos;
